ccopy_reg
_reconstructor
p1
(crep.estimators.tmva
TMVAClassifier
p2
c__builtin__
object
p3
NtRp4
(dp5
S'factory_options'
p6
S'V:!Silent:!Color:!DrawProgressBar:AnalysisType=Classification:AnalysisType=Classification:AnalysisType=Classification:AnalysisType=Classification'
p7
sS'classes_'
p8
cnumpy.core.multiarray
_reconstruct
p9
(cnumpy
ndarray
p10
(I0
tS'b'
tRp11
(I1
(I2
tcnumpy
dtype
p12
(S'i8'
I0
I1
tRp13
(I3
S'<'
NNNI-1
I-1
I0
tbI00
S'\x00\x00\x00\x00\x00\x00\x00\x00\x01\x00\x00\x00\x00\x00\x00\x00'
tbsS'features'
p14
(lp15
cnumpy.core.multiarray
scalar
p16
(g12
(S'S6'
I0
I1
tRp17
(I3
S'|'
NNNI6
I1
I0
tbS'TrackP'
tRp18
ag16
(g12
(S'S7'
I0
I1
tRp19
(I3
S'|'
NNNI7
I1
I0
tbS'TrackPt'
tRp20
ag16
(g12
(S'S15'
I0
I1
tRp21
(I3
S'|'
NNNI15
I1
I0
tbS'TrackChi2PerDof'
tRp22
ag16
(g12
(S'S11'
I0
I1
tRp23
(I3
S'|'
NNNI11
I1
I0
tbS'TrackNumDof'
tRp24
ag16
(g12
(S'S21'
I0
I1
tRp25
(I3
S'|'
NNNI21
I1
I0
tbS'TrackGhostProbability'
tRp26
ag16
(g12
(S'S17'
I0
I1
tRp27
(I3
S'|'
NNNI17
I1
I0
tbS'TrackFitMatchChi2'
tRp28
ag16
(g12
(S'S16'
I0
I1
tRp29
(I3
S'|'
NNNI16
I1
I0
tbS'TrackFitVeloChi2'
tRp30
ag16
(g12
(S'S16'
I0
I1
tRp31
(I3
S'|'
NNNI16
I1
I0
tbS'TrackFitVeloNDoF'
tRp32
ag16
(g12
(S'S13'
I0
I1
tRp33
(I3
S'|'
NNNI13
I1
I0
tbS'TrackFitTChi2'
tRp34
ag16
(g12
(S'S13'
I0
I1
tRp35
(I3
S'|'
NNNI13
I1
I0
tbS'TrackFitTNDoF'
tRp36
ag16
(g12
(S'S13'
I0
I1
tRp37
(I3
S'|'
NNNI13
I1
I0
tbS'RichUsedR1Gas'
tRp38
ag16
(g12
(S'S13'
I0
I1
tRp39
(I3
S'|'
NNNI13
I1
I0
tbS'RichUsedR2Gas'
tRp40
ag16
(g12
(S'S16'
I0
I1
tRp41
(I3
S'|'
NNNI16
I1
I0
tbS'RichAbovePiThres'
tRp42
ag16
(g12
(S'S16'
I0
I1
tRp43
(I3
S'|'
NNNI16
I1
I0
tbS'RichAboveKaThres'
tRp44
ag16
(g12
(S'S16'
I0
I1
tRp45
(I3
S'|'
NNNI16
I1
I0
tbS'RichAbovePrThres'
tRp46
ag16
(g12
(S'S8'
I0
I1
tRp47
(I3
S'|'
NNNI8
I1
I0
tbS'RichDLLe'
tRp48
ag16
(g12
(S'S9'
I0
I1
tRp49
(I3
S'|'
NNNI9
I1
I0
tbS'RichDLLmu'
tRp50
ag16
(g12
(S'S8'
I0
I1
tRp51
(I3
S'|'
NNNI8
I1
I0
tbS'RichDLLk'
tRp52
ag16
(g12
(S'S8'
I0
I1
tRp53
(I3
S'|'
NNNI8
I1
I0
tbS'RichDLLp'
tRp54
ag16
(g12
(S'S9'
I0
I1
tRp55
(I3
S'|'
NNNI9
I1
I0
tbS'RichDLLbt'
tRp56
ag16
(g12
(S'S9'
I0
I1
tRp57
(I3
S'|'
NNNI9
I1
I0
tbS'MuonBkgLL'
tRp58
ag16
(g12
(S'S8'
I0
I1
tRp59
(I3
S'|'
NNNI8
I1
I0
tbS'MuonMuLL'
tRp60
ag16
(g12
(S'S10'
I0
I1
tRp61
(I3
S'|'
NNNI10
I1
I0
tbS'MuonIsMuon'
tRp62
ag16
(g12
(S'S11'
I0
I1
tRp63
(I3
S'|'
NNNI11
I1
I0
tbS'MuonNShared'
tRp64
ag16
(g12
(S'S9'
I0
I1
tRp65
(I3
S'|'
NNNI9
I1
I0
tbS'InAccMuon'
tRp66
ag16
(g12
(S'S15'
I0
I1
tRp67
(I3
S'|'
NNNI15
I1
I0
tbS'MuonIsLooseMuon'
tRp68
ag16
(g12
(S'S8'
I0
I1
tRp69
(I3
S'|'
NNNI8
I1
I0
tbS'EcalPIDe'
tRp70
ag16
(g12
(S'S9'
I0
I1
tRp71
(I3
S'|'
NNNI9
I1
I0
tbS'EcalPIDmu'
tRp72
ag16
(g12
(S'S8'
I0
I1
tRp73
(I3
S'|'
NNNI8
I1
I0
tbS'HcalPIDe'
tRp74
ag16
(g12
(S'S9'
I0
I1
tRp75
(I3
S'|'
NNNI9
I1
I0
tbS'HcalPIDmu'
tRp76
ag16
(g12
(S'S7'
I0
I1
tRp77
(I3
S'|'
NNNI7
I1
I0
tbS'PrsPIDe'
tRp78
ag16
(g12
(S'S9'
I0
I1
tRp79
(I3
S'|'
NNNI9
I1
I0
tbS'InAccBrem'
tRp80
ag16
(g12
(S'S8'
I0
I1
tRp81
(I3
S'|'
NNNI8
I1
I0
tbS'BremPIDe'
tRp82
asS'formula_xml'
p83
S'<?xml version="1.0"?>\n<MethodSetup Method="BDT::REP_Estimator">\n  <GeneralInfo>\n    <Info name="TMVA Release" value="4.2.0 [262656]"/>\n    <Info name="ROOT Release" value="5.34/32 [336416]"/>\n    <Info name="Creator" value="root"/>\n    <Info name="Date" value="Thu Feb 25 16:39:53 2016"/>\n    <Info name="Host" value="Linux localhost.localdomain 2.6.32-431.1.2.el6.x86_64 #1 SMP Thu Dec 12 13:59:19 CST 2013 x86_64 x86_64 x86_64 GNU/Linux"/>\n    <Info name="Dir" value="/notebooks/notebooks/tmpooHfJQ"/>\n    <Info name="Training events" value="120000"/>\n    <Info name="TrainingTime" value="1.13295851e+01"/>\n    <Info name="AnalysisType" value="Classification"/>\n  </GeneralInfo>\n  <Options>\n    <Option name="V" modified="Yes">True</Option>\n    <Option name="VerbosityLevel" modified="No">Verbose</Option>\n    <Option name="VarTransform" modified="Yes">Norm</Option>\n    <Option name="H" modified="Yes">False</Option>\n    <Option name="CreateMVAPdfs" modified="No">False</Option>\n    <Option name="IgnoreNegWeightsInTraining" modified="No">False</Option>\n    <Option name="NTrees" modified="Yes">50</Option>\n    <Option name="MaxDepth" modified="Yes">3</Option>\n    <Option name="MinNodeSize" modified="No">5%</Option>\n    <Option name="nCuts" modified="No">20</Option>\n    <Option name="BoostType" modified="Yes">AdaBoost</Option>\n    <Option name="AdaBoostR2Loss" modified="No">quadratic</Option>\n    <Option name="UseBaggedBoost" modified="No">False</Option>\n    <Option name="Shrinkage" modified="No">1.000000e+00</Option>\n    <Option name="AdaBoostBeta" modified="No">5.000000e-01</Option>\n    <Option name="UseRandomisedTrees" modified="No">False</Option>\n    <Option name="UseNvars" modified="No">6</Option>\n    <Option name="UsePoissonNvars" modified="No">True</Option>\n    <Option name="BaggedSampleFraction" modified="No">6.000000e-01</Option>\n    <Option name="UseYesNoLeaf" modified="No">True</Option>\n    <Option name="NegWeightTreatment" modified="No">inverseboostnegweights</Option>\n    <Option name="Css" modified="No">1.000000e+00</Option>\n    <Option name="Cts_sb" modified="No">1.000000e+00</Option>\n    <Option name="Ctb_ss" modified="No">1.000000e+00</Option>\n    <Option name="Cbb" modified="No">1.000000e+00</Option>\n    <Option name="NodePurityLimit" modified="No">5.000000e-01</Option>\n    <Option name="SeparationType" modified="No">giniindex</Option>\n    <Option name="DoBoostMonitor" modified="No">False</Option>\n    <Option name="UseFisherCuts" modified="No">False</Option>\n    <Option name="MinLinCorrForFisher" modified="No">8.000000e-01</Option>\n    <Option name="UseExclusiveVars" modified="No">False</Option>\n    <Option name="DoPreselection" modified="No">False</Option>\n    <Option name="SigToBkgFraction" modified="No">1.000000e+00</Option>\n    <Option name="PruneMethod" modified="Yes">costcomplexity</Option>\n    <Option name="PruneStrength" modified="Yes">-1.000000e+00</Option>\n    <Option name="PruningValFraction" modified="Yes">3.000000e-01</Option>\n    <Option name="nEventsMin" modified="No">0</Option>\n    <Option name="UseBaggedGrad" modified="No">False</Option>\n    <Option name="GradBaggingFraction" modified="No">6.000000e-01</Option>\n    <Option name="UseNTrainEvents" modified="No">0</Option>\n    <Option name="NNodesMax" modified="No">0</Option>\n  </Options>\n  <Variables NVar="33">\n    <Variable VarIndex="0" Expression="TrackP" Label="TrackP" Title="TrackP" Unit="" Internal="TrackP" Type="F" Min="1.15967004e+03" Max="1.13558638e+06"/>\n    <Variable VarIndex="1" Expression="TrackPt" Label="TrackPt" Title="TrackPt" Unit="" Internal="TrackPt" Type="F" Min="6.90499830e+00" Max="6.83289922e+04"/>\n    <Variable VarIndex="2" Expression="TrackChi2PerDof" Label="TrackChi2PerDof" Title="TrackChi2PerDof" Unit="" Internal="TrackChi2PerDof" Type="F" Min="1.24249414e-01" Max="3.99916315e+00"/>\n    <Variable VarIndex="3" Expression="TrackNumDof" Label="TrackNumDof" Title="TrackNumDof" Unit="" Internal="TrackNumDof" Type="F" Min="7.00000000e+00" Max="4.90000000e+01"/>\n    <Variable VarIndex="4" Expression="TrackGhostProbability" Label="TrackGhostProbability" Title="TrackGhostProbability" Unit="" Internal="TrackGhostProbability" Type="F" Min="1.54159404e-03" Max="3.99982750e-01"/>\n    <Variable VarIndex="5" Expression="TrackFitMatchChi2" Label="TrackFitMatchChi2" Title="TrackFitMatchChi2" Unit="" Internal="TrackFitMatchChi2" Type="F" Min="9.10696853e-03" Max="1.20970528e+02"/>\n    <Variable VarIndex="6" Expression="TrackFitVeloChi2" Label="TrackFitVeloChi2" Title="TrackFitVeloChi2" Unit="" Internal="TrackFitVeloChi2" Type="F" Min="1.97511457e-04" Max="9.81467972e+01"/>\n    <Variable VarIndex="7" Expression="TrackFitVeloNDoF" Label="TrackFitVeloNDoF" Title="TrackFitVeloNDoF" Unit="" Internal="TrackFitVeloNDoF" Type="F" Min="1.00000000e+00" Max="2.00000000e+01"/>\n    <Variable VarIndex="8" Expression="TrackFitTChi2" Label="TrackFitTChi2" Title="TrackFitTChi2" Unit="" Internal="TrackFitTChi2" Type="F" Min="1.41289094e-02" Max="9.80159302e+01"/>\n    <Variable VarIndex="9" Expression="TrackFitTNDoF" Label="TrackFitTNDoF" Title="TrackFitTNDoF" Unit="" Internal="TrackFitTNDoF" Type="F" Min="1.00000000e+00" Max="2.70000000e+01"/>\n    <Variable VarIndex="10" Expression="RichUsedR1Gas" Label="RichUsedR1Gas" Title="RichUsedR1Gas" Unit="" Internal="RichUsedR1Gas" Type="F" Min="0.00000000e+00" Max="1.00000000e+00"/>\n    <Variable VarIndex="11" Expression="RichUsedR2Gas" Label="RichUsedR2Gas" Title="RichUsedR2Gas" Unit="" Internal="RichUsedR2Gas" Type="F" Min="0.00000000e+00" Max="1.00000000e+00"/>\n    <Variable VarIndex="12" Expression="RichAbovePiThres" Label="RichAbovePiThres" Title="RichAbovePiThres" Unit="" Internal="RichAbovePiThres" Type="F" Min="0.00000000e+00" Max="1.00000000e+00"/>\n    <Variable VarIndex="13" Expression="RichAboveKaThres" Label="RichAboveKaThres" Title="RichAboveKaThres" Unit="" Internal="RichAboveKaThres" Type="F" Min="0.00000000e+00" Max="1.00000000e+00"/>\n    <Variable VarIndex="14" Expression="RichAbovePrThres" Label="RichAbovePrThres" Title="RichAbovePrThres" Unit="" Internal="RichAbovePrThres" Type="F" Min="0.00000000e+00" Max="1.00000000e+00"/>\n    <Variable VarIndex="15" Expression="RichDLLe" Label="RichDLLe" Title="RichDLLe" Unit="" Internal="RichDLLe" Type="F" Min="-9.99000000e+02" Max="1.31175797e+02"/>\n    <Variable VarIndex="16" Expression="RichDLLmu" Label="RichDLLmu" Title="RichDLLmu" Unit="" Internal="RichDLLmu" Type="F" Min="-9.99000000e+02" Max="1.24875801e+02"/>\n    <Variable VarIndex="17" Expression="RichDLLk" Label="RichDLLk" Title="RichDLLk" Unit="" Internal="RichDLLk" Type="F" Min="-9.99000000e+02" Max="1.58692993e+02"/>\n    <Variable VarIndex="18" Expression="RichDLLp" Label="RichDLLp" Title="RichDLLp" Unit="" Internal="RichDLLp" Type="F" Min="-9.99000000e+02" Max="1.29497803e+02"/>\n    <Variable VarIndex="19" Expression="RichDLLbt" Label="RichDLLbt" Title="RichDLLbt" Unit="" Internal="RichDLLbt" Type="F" Min="-9.99000000e+02" Max="7.35431976e+01"/>\n    <Variable VarIndex="20" Expression="MuonBkgLL" Label="MuonBkgLL" Title="MuonBkgLL" Unit="" Internal="MuonBkgLL" Type="F" Min="-9.99000000e+02" Max="9.60000046e-03"/>\n    <Variable VarIndex="21" Expression="MuonMuLL" Label="MuonMuLL" Title="MuonMuLL" Unit="" Internal="MuonMuLL" Type="F" Min="-9.99000000e+02" Max="0.00000000e+00"/>\n    <Variable VarIndex="22" Expression="MuonIsMuon" Label="MuonIsMuon" Title="MuonIsMuon" Unit="" Internal="MuonIsMuon" Type="F" Min="0.00000000e+00" Max="1.00000000e+00"/>\n    <Variable VarIndex="23" Expression="MuonNShared" Label="MuonNShared" Title="MuonNShared" Unit="" Internal="MuonNShared" Type="F" Min="0.00000000e+00" Max="3.30000000e+01"/>\n    <Variable VarIndex="24" Expression="InAccMuon" Label="InAccMuon" Title="InAccMuon" Unit="" Internal="InAccMuon" Type="F" Min="0.00000000e+00" Max="1.00000000e+00"/>\n    <Variable VarIndex="25" Expression="MuonIsLooseMuon" Label="MuonIsLooseMuon" Title="MuonIsLooseMuon" Unit="" Internal="MuonIsLooseMuon" Type="F" Min="0.00000000e+00" Max="1.00000000e+00"/>\n    <Variable VarIndex="26" Expression="EcalPIDe" Label="EcalPIDe" Title="EcalPIDe" Unit="" Internal="EcalPIDe" Type="F" Min="-9.99000000e+02" Max="4.05479050e+00"/>\n    <Variable VarIndex="27" Expression="EcalPIDmu" Label="EcalPIDmu" Title="EcalPIDmu" Unit="" Internal="EcalPIDmu" Type="F" Min="-9.99000000e+02" Max="2.15297604e+00"/>\n    <Variable VarIndex="28" Expression="HcalPIDe" Label="HcalPIDe" Title="HcalPIDe" Unit="" Internal="HcalPIDe" Type="F" Min="-9.99000000e+02" Max="2.72250462e+00"/>\n    <Variable VarIndex="29" Expression="HcalPIDmu" Label="HcalPIDmu" Title="HcalPIDmu" Unit="" Internal="HcalPIDmu" Type="F" Min="-9.99000000e+02" Max="2.87338901e+00"/>\n    <Variable VarIndex="30" Expression="PrsPIDe" Label="PrsPIDe" Title="PrsPIDe" Unit="" Internal="PrsPIDe" Type="F" Min="-9.99000000e+02" Max="3.39547467e+00"/>\n    <Variable VarIndex="31" Expression="InAccBrem" Label="InAccBrem" Title="InAccBrem" Unit="" Internal="InAccBrem" Type="F" Min="0.00000000e+00" Max="1.00000000e+00"/>\n    <Variable VarIndex="32" Expression="BremPIDe" Label="BremPIDe" Title="BremPIDe" Unit="" Internal="BremPIDe" Type="F" Min="-9.99000000e+02" Max="4.79148388e+00"/>\n  </Variables>\n  <Spectators NSpec="0"/>\n  <Classes NClass="2">\n    <Class Name="Background" Index="0"/>\n    <Class Name="Signal" Index="1"/>\n  </Classes>\n  <Transformations NTransformations="1">\n    <Transform Name="Normalize">\n      <Selection>\n        <Input NInputs="33">\n          <Input Type="Variable" Label="TrackP" Expression="TrackP"/>\n          <Input Type="Variable" Label="TrackPt" Expression="TrackPt"/>\n          <Input Type="Variable" Label="TrackChi2PerDof" Expression="TrackChi2PerDof"/>\n          <Input Type="Variable" Label="TrackNumDof" Expression="TrackNumDof"/>\n          <Input Type="Variable" Label="TrackGhostProbability" Expression="TrackGhostProbability"/>\n          <Input Type="Variable" Label="TrackFitMatchChi2" Expression="TrackFitMatchChi2"/>\n          <Input Type="Variable" Label="TrackFitVeloChi2" Expression="TrackFitVeloChi2"/>\n          <Input Type="Variable" Label="TrackFitVeloNDoF" Expression="TrackFitVeloNDoF"/>\n          <Input Type="Variable" Label="TrackFitTChi2" Expression="TrackFitTChi2"/>\n          <Input Type="Variable" Label="TrackFitTNDoF" Expression="TrackFitTNDoF"/>\n          <Input Type="Variable" Label="RichUsedR1Gas" Expression="RichUsedR1Gas"/>\n          <Input Type="Variable" Label="RichUsedR2Gas" Expression="RichUsedR2Gas"/>\n          <Input Type="Variable" Label="RichAbovePiThres" Expression="RichAbovePiThres"/>\n          <Input Type="Variable" Label="RichAboveKaThres" Expression="RichAboveKaThres"/>\n          <Input Type="Variable" Label="RichAbovePrThres" Expression="RichAbovePrThres"/>\n          <Input Type="Variable" Label="RichDLLe" Expression="RichDLLe"/>\n          <Input Type="Variable" Label="RichDLLmu" Expression="RichDLLmu"/>\n          <Input Type="Variable" Label="RichDLLk" Expression="RichDLLk"/>\n          <Input Type="Variable" Label="RichDLLp" Expression="RichDLLp"/>\n          <Input Type="Variable" Label="RichDLLbt" Expression="RichDLLbt"/>\n          <Input Type="Variable" Label="MuonBkgLL" Expression="MuonBkgLL"/>\n          <Input Type="Variable" Label="MuonMuLL" Expression="MuonMuLL"/>\n          <Input Type="Variable" Label="MuonIsMuon" Expression="MuonIsMuon"/>\n          <Input Type="Variable" Label="MuonNShared" Expression="MuonNShared"/>\n          <Input Type="Variable" Label="InAccMuon" Expression="InAccMuon"/>\n          <Input Type="Variable" Label="MuonIsLooseMuon" Expression="MuonIsLooseMuon"/>\n          <Input Type="Variable" Label="EcalPIDe" Expression="EcalPIDe"/>\n          <Input Type="Variable" Label="EcalPIDmu" Expression="EcalPIDmu"/>\n          <Input Type="Variable" Label="HcalPIDe" Expression="HcalPIDe"/>\n          <Input Type="Variable" Label="HcalPIDmu" Expression="HcalPIDmu"/>\n          <Input Type="Variable" Label="PrsPIDe" Expression="PrsPIDe"/>\n          <Input Type="Variable" Label="InAccBrem" Expression="InAccBrem"/>\n          <Input Type="Variable" Label="BremPIDe" Expression="BremPIDe"/>\n        </Input>\n        <Output NOutputs="33">\n          <Output Type="Variable" Label="TrackP" Expression="TrackP"/>\n          <Output Type="Variable" Label="TrackPt" Expression="TrackPt"/>\n          <Output Type="Variable" Label="TrackChi2PerDof" Expression="TrackChi2PerDof"/>\n          <Output Type="Variable" Label="TrackNumDof" Expression="TrackNumDof"/>\n          <Output Type="Variable" Label="TrackGhostProbability" Expression="TrackGhostProbability"/>\n          <Output Type="Variable" Label="TrackFitMatchChi2" Expression="TrackFitMatchChi2"/>\n          <Output Type="Variable" Label="TrackFitVeloChi2" Expression="TrackFitVeloChi2"/>\n          <Output Type="Variable" Label="TrackFitVeloNDoF" Expression="TrackFitVeloNDoF"/>\n          <Output Type="Variable" Label="TrackFitTChi2" Expression="TrackFitTChi2"/>\n          <Output Type="Variable" Label="TrackFitTNDoF" Expression="TrackFitTNDoF"/>\n          <Output Type="Variable" Label="RichUsedR1Gas" Expression="RichUsedR1Gas"/>\n          <Output Type="Variable" Label="RichUsedR2Gas" Expression="RichUsedR2Gas"/>\n          <Output Type="Variable" Label="RichAbovePiThres" Expression="RichAbovePiThres"/>\n          <Output Type="Variable" Label="RichAboveKaThres" Expression="RichAboveKaThres"/>\n          <Output Type="Variable" Label="RichAbovePrThres" Expression="RichAbovePrThres"/>\n          <Output Type="Variable" Label="RichDLLe" Expression="RichDLLe"/>\n          <Output Type="Variable" Label="RichDLLmu" Expression="RichDLLmu"/>\n          <Output Type="Variable" Label="RichDLLk" Expression="RichDLLk"/>\n          <Output Type="Variable" Label="RichDLLp" Expression="RichDLLp"/>\n          <Output Type="Variable" Label="RichDLLbt" Expression="RichDLLbt"/>\n          <Output Type="Variable" Label="MuonBkgLL" Expression="MuonBkgLL"/>\n          <Output Type="Variable" Label="MuonMuLL" Expression="MuonMuLL"/>\n          <Output Type="Variable" Label="MuonIsMuon" Expression="MuonIsMuon"/>\n          <Output Type="Variable" Label="MuonNShared" Expression="MuonNShared"/>\n          <Output Type="Variable" Label="InAccMuon" Expression="InAccMuon"/>\n          <Output Type="Variable" Label="MuonIsLooseMuon" Expression="MuonIsLooseMuon"/>\n          <Output Type="Variable" Label="EcalPIDe" Expression="EcalPIDe"/>\n          <Output Type="Variable" Label="EcalPIDmu" Expression="EcalPIDmu"/>\n          <Output Type="Variable" Label="HcalPIDe" Expression="HcalPIDe"/>\n          <Output Type="Variable" Label="HcalPIDmu" Expression="HcalPIDmu"/>\n          <Output Type="Variable" Label="PrsPIDe" Expression="PrsPIDe"/>\n          <Output Type="Variable" Label="InAccBrem" Expression="InAccBrem"/>\n          <Output Type="Variable" Label="BremPIDe" Expression="BremPIDe"/>\n        </Output>\n      </Selection>\n      <Class ClassIndex="0">\n        <Ranges>\n          <Range Index="0" Min="1.1596700439453125e+03" Max="1.1355863750000000e+06"/>\n          <Range Index="1" Min="6.9049983024597168e+00" Max="6.8328992187500000e+04"/>\n          <Range Index="2" Min="1.2424941360950470e-01" Max="3.9991631507873535e+00"/>\n          <Range Index="3" Min="7.0000000000000000e+00" Max="4.9000000000000000e+01"/>\n          <Range Index="4" Min="1.5415940433740616e-03" Max="3.9998275041580200e-01"/>\n          <Range Index="5" Min="9.1069685295224190e-03" Max="1.2097052764892578e+02"/>\n          <Range Index="6" Min="1.9751145737245679e-04" Max="8.1674484252929688e+01"/>\n          <Range Index="7" Min="1.0000000000000000e+00" Max="2.0000000000000000e+01"/>\n          <Range Index="8" Min="1.4128909446299076e-02" Max="9.1586280822753906e+01"/>\n          <Range Index="9" Min="1.0000000000000000e+00" Max="2.7000000000000000e+01"/>\n          <Range Index="10" Min="0.0000000000000000e+00" Max="1.0000000000000000e+00"/>\n          <Range Index="11" Min="0.0000000000000000e+00" Max="1.0000000000000000e+00"/>\n          <Range Index="12" Min="0.0000000000000000e+00" Max="1.0000000000000000e+00"/>\n          <Range Index="13" Min="0.0000000000000000e+00" Max="1.0000000000000000e+00"/>\n          <Range Index="14" Min="0.0000000000000000e+00" Max="1.0000000000000000e+00"/>\n          <Range Index="15" Min="-9.9900000000000000e+02" Max="1.3117579650878906e+02"/>\n          <Range Index="16" Min="-9.9900000000000000e+02" Max="1.2487580108642578e+02"/>\n          <Range Index="17" Min="-9.9900000000000000e+02" Max="1.0009089660644531e+02"/>\n          <Range Index="18" Min="-9.9900000000000000e+02" Max="1.2949780273437500e+02"/>\n          <Range Index="19" Min="-9.9900000000000000e+02" Max="7.3543197631835938e+01"/>\n          <Range Index="20" Min="-9.9900000000000000e+02" Max="9.6000004559755325e-03"/>\n          <Range Index="21" Min="-9.9900000000000000e+02" Max="0.0000000000000000e+00"/>\n          <Range Index="22" Min="0.0000000000000000e+00" Max="1.0000000000000000e+00"/>\n          <Range Index="23" Min="0.0000000000000000e+00" Max="3.3000000000000000e+01"/>\n          <Range Index="24" Min="0.0000000000000000e+00" Max="1.0000000000000000e+00"/>\n          <Range Index="25" Min="0.0000000000000000e+00" Max="1.0000000000000000e+00"/>\n          <Range Index="26" Min="-9.9900000000000000e+02" Max="4.0547904968261719e+00"/>\n          <Range Index="27" Min="-9.9900000000000000e+02" Max="2.1529760360717773e+00"/>\n          <Range Index="28" Min="-9.9900000000000000e+02" Max="2.7225046157836914e+00"/>\n          <Range Index="29" Min="-9.9900000000000000e+02" Max="2.8733890056610107e+00"/>\n          <Range Index="30" Min="-9.9900000000000000e+02" Max="3.3954746723175049e+00"/>\n          <Range Index="31" Min="0.0000000000000000e+00" Max="1.0000000000000000e+00"/>\n          <Range Index="32" Min="-9.9900000000000000e+02" Max="4.7914838790893555e+00"/>\n        </Ranges>\n      </Class>\n      <Class ClassIndex="1">\n        <Ranges>\n          <Range Index="0" Min="1.2115600585937500e+03" Max="7.2095481250000000e+05"/>\n          <Range Index="1" Min="3.7676288604736328e+01" Max="1.8976062500000000e+04"/>\n          <Range Index="2" Min="2.3806807398796082e-01" Max="3.9885246753692627e+00"/>\n          <Range Index="3" Min="8.0000000000000000e+00" Max="4.7000000000000000e+01"/>\n          <Range Index="4" Min="1.7528511816635728e-03" Max="3.9512690901756287e-01"/>\n          <Range Index="5" Min="3.3604998141527176e-02" Max="1.0686666107177734e+02"/>\n          <Range Index="6" Min="3.6981743760406971e-03" Max="9.8146797180175781e+01"/>\n          <Range Index="7" Min="1.0000000000000000e+00" Max="1.9000000000000000e+01"/>\n          <Range Index="8" Min="1.9908614456653595e-02" Max="9.8015930175781250e+01"/>\n          <Range Index="9" Min="1.0000000000000000e+00" Max="2.7000000000000000e+01"/>\n          <Range Index="10" Min="0.0000000000000000e+00" Max="1.0000000000000000e+00"/>\n          <Range Index="11" Min="0.0000000000000000e+00" Max="1.0000000000000000e+00"/>\n          <Range Index="12" Min="0.0000000000000000e+00" Max="1.0000000000000000e+00"/>\n          <Range Index="13" Min="0.0000000000000000e+00" Max="1.0000000000000000e+00"/>\n          <Range Index="14" Min="0.0000000000000000e+00" Max="1.0000000000000000e+00"/>\n          <Range Index="15" Min="-9.9900000000000000e+02" Max="4.4099399566650391e+01"/>\n          <Range Index="16" Min="-9.9900000000000000e+02" Max="3.0338600158691406e+01"/>\n          <Range Index="17" Min="-9.9900000000000000e+02" Max="1.5869299316406250e+02"/>\n          <Range Index="18" Min="-9.9900000000000000e+02" Max="7.0496902465820312e+01"/>\n          <Range Index="19" Min="-9.9900000000000000e+02" Max="7.0496902465820312e+01"/>\n          <Range Index="20" Min="-9.9900000000000000e+02" Max="9.4999996945261955e-03"/>\n          <Range Index="21" Min="-9.9900000000000000e+02" Max="0.0000000000000000e+00"/>\n          <Range Index="22" Min="0.0000000000000000e+00" Max="1.0000000000000000e+00"/>\n          <Range Index="23" Min="0.0000000000000000e+00" Max="2.0000000000000000e+01"/>\n          <Range Index="24" Min="0.0000000000000000e+00" Max="1.0000000000000000e+00"/>\n          <Range Index="25" Min="0.0000000000000000e+00" Max="1.0000000000000000e+00"/>\n          <Range Index="26" Min="-9.9900000000000000e+02" Max="4.0547904968261719e+00"/>\n          <Range Index="27" Min="-9.9900000000000000e+02" Max="2.1529760360717773e+00"/>\n          <Range Index="28" Min="-9.9900000000000000e+02" Max="2.1258347034454346e+00"/>\n          <Range Index="29" Min="-9.9900000000000000e+02" Max="2.8733890056610107e+00"/>\n          <Range Index="30" Min="-9.9900000000000000e+02" Max="3.2956454753875732e+00"/>\n          <Range Index="31" Min="0.0000000000000000e+00" Max="1.0000000000000000e+00"/>\n          <Range Index="32" Min="-9.9900000000000000e+02" Max="4.7914838790893555e+00"/>\n        </Ranges>\n      </Class>\n      <Class ClassIndex="2">\n        <Ranges>\n          <Range Index="0" Min="1.1596700439453125e+03" Max="1.1355863750000000e+06"/>\n          <Range Index="1" Min="6.9049983024597168e+00" Max="6.8328992187500000e+04"/>\n          <Range Index="2" Min="1.2424941360950470e-01" Max="3.9991631507873535e+00"/>\n          <Range Index="3" Min="7.0000000000000000e+00" Max="4.9000000000000000e+01"/>\n          <Range Index="4" Min="1.5415940433740616e-03" Max="3.9998275041580200e-01"/>\n          <Range Index="5" Min="9.1069685295224190e-03" Max="1.2097052764892578e+02"/>\n          <Range Index="6" Min="1.9751145737245679e-04" Max="9.8146797180175781e+01"/>\n          <Range Index="7" Min="1.0000000000000000e+00" Max="2.0000000000000000e+01"/>\n          <Range Index="8" Min="1.4128909446299076e-02" Max="9.8015930175781250e+01"/>\n          <Range Index="9" Min="1.0000000000000000e+00" Max="2.7000000000000000e+01"/>\n          <Range Index="10" Min="0.0000000000000000e+00" Max="1.0000000000000000e+00"/>\n          <Range Index="11" Min="0.0000000000000000e+00" Max="1.0000000000000000e+00"/>\n          <Range Index="12" Min="0.0000000000000000e+00" Max="1.0000000000000000e+00"/>\n          <Range Index="13" Min="0.0000000000000000e+00" Max="1.0000000000000000e+00"/>\n          <Range Index="14" Min="0.0000000000000000e+00" Max="1.0000000000000000e+00"/>\n          <Range Index="15" Min="-9.9900000000000000e+02" Max="1.3117579650878906e+02"/>\n          <Range Index="16" Min="-9.9900000000000000e+02" Max="1.2487580108642578e+02"/>\n          <Range Index="17" Min="-9.9900000000000000e+02" Max="1.5869299316406250e+02"/>\n          <Range Index="18" Min="-9.9900000000000000e+02" Max="1.2949780273437500e+02"/>\n          <Range Index="19" Min="-9.9900000000000000e+02" Max="7.3543197631835938e+01"/>\n          <Range Index="20" Min="-9.9900000000000000e+02" Max="9.6000004559755325e-03"/>\n          <Range Index="21" Min="-9.9900000000000000e+02" Max="0.0000000000000000e+00"/>\n          <Range Index="22" Min="0.0000000000000000e+00" Max="1.0000000000000000e+00"/>\n          <Range Index="23" Min="0.0000000000000000e+00" Max="3.3000000000000000e+01"/>\n          <Range Index="24" Min="0.0000000000000000e+00" Max="1.0000000000000000e+00"/>\n          <Range Index="25" Min="0.0000000000000000e+00" Max="1.0000000000000000e+00"/>\n          <Range Index="26" Min="-9.9900000000000000e+02" Max="4.0547904968261719e+00"/>\n          <Range Index="27" Min="-9.9900000000000000e+02" Max="2.1529760360717773e+00"/>\n          <Range Index="28" Min="-9.9900000000000000e+02" Max="2.7225046157836914e+00"/>\n          <Range Index="29" Min="-9.9900000000000000e+02" Max="2.8733890056610107e+00"/>\n          <Range Index="30" Min="-9.9900000000000000e+02" Max="3.3954746723175049e+00"/>\n          <Range Index="31" Min="0.0000000000000000e+00" Max="1.0000000000000000e+00"/>\n          <Range Index="32" Min="-9.9900000000000000e+02" Max="4.7914838790893555e+00"/>\n        </Ranges>\n      </Class>\n    </Transform>\n  </Transformations>\n  <MVAPdfs/>\n  <Weights NTrees="50" AnalysisType="0">\n    <BinaryTree type="DecisionTree" boostWeight="7.8985492235958410e-01" itree="0">\n      <Node pos="s" depth="0" NCoef="0" IVar="17" Cut="6.8046987056732178e-01" cType="0" res="-9.9000000000000000e+01" rms="0.0000000000000000e+00" purity="5.0000000000000000e-01" nType="0">\n        <Node pos="l" depth="1" NCoef="0" IVar="17" Cut="7.3382014036178589e-01" cType="0" res="-9.9000000000000000e+01" rms="0.0000000000000000e+00" purity="5.6486374139785767e-01" nType="0">\n          <Node pos="l" depth="2" NCoef="0" IVar="-1" Cut="7.4461901187896729e-01" cType="0" res="-9.9000000000000000e+01" rms="0.0000000000000000e+00" purity="8.7480348348617554e-01" nType="1"/>\n          <Node pos="r" depth="2" NCoef="0" IVar="-1" Cut="7.2111767530441284e-01" cType="0" res="-9.9000000000000000e+01" rms="0.0000000000000000e+00" purity="2.5178170204162598e-01" nType="-1"/>\n        </Node>\n        <Node pos="r" depth="1" NCoef="0" IVar="-1" Cut="-9.0476191043853760e-01" cType="1" res="-9.9000000000000000e+01" rms="0.0000000000000000e+00" purity="5.0797801464796066e-02" nType="-1"/>\n      </Node>\n    </BinaryTree>\n    <BinaryTree type="DecisionTree" boostWeight="5.7172395731086778e-01" itree="1">\n      <Node pos="s" depth="0" NCoef="0" IVar="17" Cut="6.8046987056732178e-01" cType="0" res="-9.9000000000000000e+01" rms="0.0000000000000000e+00" purity="5.3038072586059570e-01" nType="0">\n        <Node pos="l" depth="1" NCoef="0" IVar="17" Cut="7.2048318386077881e-01" cType="0" res="-9.9000000000000000e+01" rms="0.0000000000000000e+00" purity="5.8346891403198242e-01" nType="0">\n          <Node pos="l" depth="2" NCoef="0" IVar="4" Cut="-3.3316075801849365e-01" cType="1" res="-9.9000000000000000e+01" rms="0.0000000000000000e+00" purity="6.8499815464019775e-01" nType="0">\n            <Node pos="l" depth="3" NCoef="0" IVar="-1" Cut="0.0000000000000000e+00" cType="1" res="-9.9000000000000000e+01" rms="0.0000000000000000e+00" purity="7.2630900144577026e-01" nType="1"/>\n            <Node pos="r" depth="3" NCoef="0" IVar="-1" Cut="0.0000000000000000e+00" cType="1" res="-9.9000000000000000e+01" rms="0.0000000000000000e+00" purity="2.5878074765205383e-01" nType="-1"/>\n          </Node>\n          <Node pos="r" depth="2" NCoef="0" IVar="-1" Cut="7.0714426040649414e-01" cType="0" res="-9.9000000000000000e+01" rms="0.0000000000000000e+00" purity="2.0819325745105743e-01" nType="-1"/>\n        </Node>\n        <Node pos="r" depth="1" NCoef="0" IVar="-1" Cut="-9.0476191043853760e-01" cType="1" res="-9.9000000000000000e+01" rms="0.0000000000000000e+00" purity="1.0546604543924332e-01" nType="-1"/>\n      </Node>\n    </BinaryTree>\n    <BinaryTree type="DecisionTree" boostWeight="3.2525302589683919e-01" itree="2">\n      <Node pos="s" depth="0" NCoef="0" IVar="17" Cut="6.8046987056732178e-01" cType="0" res="-9.9000000000000000e+01" rms="0.0000000000000000e+00" purity="4.9067977070808411e-01" nType="0">\n        <Node pos="l" depth="1" NCoef="0" IVar="17" Cut="7.4715709686279297e-01" cType="0" res="-9.9000000000000000e+01" rms="0.0000000000000000e+00" purity="5.2648627758026123e-01" nType="0">\n          <Node pos="l" depth="2" NCoef="0" IVar="-1" Cut="-9.8321640491485596e-01" cType="0" res="-9.9000000000000000e+01" rms="0.0000000000000000e+00" purity="7.7705061435699463e-01" nType="1"/>\n          <Node pos="r" depth="2" NCoef="0" IVar="-1" Cut="7.0905119180679321e-01" cType="0" res="-9.9000000000000000e+01" rms="0.0000000000000000e+00" purity="4.2073607444763184e-01" nType="-1"/>\n        </Node>\n        <Node pos="r" depth="1" NCoef="0" IVar="-1" Cut="0.0000000000000000e+00" cType="1" res="-9.9000000000000000e+01" rms="0.0000000000000000e+00" purity="1.7276023328304291e-01" nType="-1"/>\n      </Node>\n    </BinaryTree>\n    <BinaryTree type="DecisionTree" boostWeight="2.6405644503681741e-01" itree="3">\n      <Node pos="s" depth="0" NCoef="0" IVar="17" Cut="6.8046987056732178e-01" cType="0" res="-9.9000000000000000e+01" rms="0.0000000000000000e+00" purity="5.2979135513305664e-01" nType="0">\n        <Node pos="l" depth="1" NCoef="0" IVar="17" Cut="7.0714628696441650e-01" cType="0" res="-9.9000000000000000e+01" rms="0.0000000000000000e+00" purity="5.6200355291366577e-01" nType="0">\n          <Node pos="l" depth="2" NCoef="0" IVar="-1" Cut="7.5541353225708008e-01" cType="0" res="-9.9000000000000000e+01" rms="0.0000000000000000e+00" purity="5.9647822380065918e-01" nType="1"/>\n          <Node pos="r" depth="2" NCoef="0" IVar="-1" Cut="0.0000000000000000e+00" cType="1" res="-9.9000000000000000e+01" rms="0.0000000000000000e+00" purity="2.1363435685634613e-01" nType="-1"/>\n        </Node>\n        <Node pos="r" depth="1" NCoef="0" IVar="-1" Cut="0.0000000000000000e+00" cType="1" res="-9.9000000000000000e+01" rms="0.0000000000000000e+00" purity="2.2427293658256531e-01" nType="-1"/>\n      </Node>\n    </BinaryTree>\n    <BinaryTree type="DecisionTree" boostWeight="2.3217505796310434e-01" itree="4">\n      <Node pos="s" depth="0" NCoef="0" IVar="17" Cut="6.8046987056732178e-01" cType="0" res="-9.9000000000000000e+01" rms="0.0000000000000000e+00" purity="4.8692828416824341e-01" nType="0">\n        <Node pos="l" depth="1" NCoef="0" IVar="17" Cut="7.6049405336380005e-01" cType="0" res="-9.9000000000000000e+01" rms="0.0000000000000000e+00" purity="5.0844246149063110e-01" nType="0">\n          <Node pos="l" depth="2" NCoef="0" IVar="-1" Cut="0.0000000000000000e+00" cType="1" res="-9.9000000000000000e+01" rms="0.0000000000000000e+00" purity="7.4095898866653442e-01" nType="1"/>\n          <Node pos="r" depth="2" NCoef="0" IVar="17" Cut="7.2619390487670898e-01" cType="0" res="-9.9000000000000000e+01" rms="0.0000000000000000e+00" purity="4.6188536286354065e-01" nType="0">\n            <Node pos="l" depth="3" NCoef="0" IVar="-1" Cut="0.0000000000000000e+00" cType="1" res="-9.9000000000000000e+01" rms="0.0000000000000000e+00" purity="5.3540843725204468e-01" nType="1"/>\n            <Node pos="r" depth="3" NCoef="0" IVar="-1" Cut="0.0000000000000000e+00" cType="1" res="-9.9000000000000000e+01" rms="0.0000000000000000e+00" purity="3.8183161616325378e-01" nType="-1"/>\n          </Node>\n        </Node>\n        <Node pos="r" depth="1" NCoef="0" IVar="-1" Cut="0.0000000000000000e+00" cType="1" res="-9.9000000000000000e+01" rms="0.0000000000000000e+00" purity="2.7351120114326477e-01" nType="-1"/>\n      </Node>\n    </BinaryTree>\n    <BinaryTree type="DecisionTree" boostWeight="1.5198749689475105e-01" itree="5">\n      <Node pos="s" depth="0" NCoef="0" IVar="4" Cut="-8.0953234434127808e-01" cType="1" res="-9.9000000000000000e+01" rms="0.0000000000000000e+00" purity="4.8110482096672058e-01" nType="0">\n        <Node pos="l" depth="1" NCoef="0" IVar="17" Cut="6.8046987056732178e-01" cType="0" res="-9.9000000000000000e+01" rms="0.0000000000000000e+00" purity="5.1386207342147827e-01" nType="0">\n          <Node pos="l" depth="2" NCoef="0" IVar="17" Cut="7.6049768924713135e-01" cType="0" res="-9.9000000000000000e+01" rms="0.0000000000000000e+00" purity="5.3332638740539551e-01" nType="0">\n            <Node pos="l" depth="3" NCoef="0" IVar="-1" Cut="0.0000000000000000e+00" cType="1" res="-9.9000000000000000e+01" rms="0.0000000000000000e+00" purity="7.2502666711807251e-01" nType="1"/>\n            <Node pos="r" depth="3" NCoef="0" IVar="-1" Cut="0.0000000000000000e+00" cType="1" res="-9.9000000000000000e+01" rms="0.0000000000000000e+00" purity="4.9213546514511108e-01" nType="-1"/>\n          </Node>\n          <Node pos="r" depth="2" NCoef="0" IVar="-1" Cut="0.0000000000000000e+00" cType="1" res="-9.9000000000000000e+01" rms="0.0000000000000000e+00" purity="3.1361952424049377e-01" nType="-1"/>\n        </Node>\n        <Node pos="r" depth="1" NCoef="0" IVar="-1" Cut="5.2108403295278549e-02" cType="1" res="-9.9000000000000000e+01" rms="0.0000000000000000e+00" purity="3.6560308933258057e-01" nType="-1"/>\n      </Node>\n    </BinaryTree>\n    <BinaryTree type="DecisionTree" boostWeight="1.6169868555224498e-01" itree="6">\n      <Node pos="s" depth="0" NCoef="0" IVar="4" Cut="-8.0953234434127808e-01" cType="1" res="-9.9000000000000000e+01" rms="0.0000000000000000e+00" purity="5.0961357355117798e-01" nType="0">\n        <Node pos="l" depth="1" NCoef="0" IVar="31" Cut="-9.0476191043853760e-01" cType="1" res="-9.9000000000000000e+01" rms="0.0000000000000000e+00" purity="5.3991478681564331e-01" nType="0">\n          <Node pos="l" depth="2" NCoef="0" IVar="-1" Cut="-1.6483511030673981e-01" cType="1" res="-9.9000000000000000e+01" rms="0.0000000000000000e+00" purity="6.5780830383300781e-01" nType="1"/>\n          <Node pos="r" depth="2" NCoef="0" IVar="15" Cut="7.1428573131561279e-01" cType="0" res="-9.9000000000000000e+01" rms="0.0000000000000000e+00" purity="5.0772118568420410e-01" nType="0">\n            <Node pos="l" depth="3" NCoef="0" IVar="-1" Cut="0.0000000000000000e+00" cType="1" res="-9.9000000000000000e+01" rms="0.0000000000000000e+00" purity="5.3314179182052612e-01" nType="1"/>\n            <Node pos="r" depth="3" NCoef="0" IVar="-1" Cut="0.0000000000000000e+00" cType="1" res="-9.9000000000000000e+01" rms="0.0000000000000000e+00" purity="2.5948783755302429e-01" nType="-1"/>\n          </Node>\n        </Node>\n        <Node pos="r" depth="1" NCoef="0" IVar="-1" Cut="5.2108403295278549e-02" cType="1" res="-9.9000000000000000e+01" rms="0.0000000000000000e+00" purity="4.0151920914649963e-01" nType="-1"/>\n      </Node>\n    </BinaryTree>\n    <BinaryTree type="DecisionTree" boostWeight="1.3221226896586424e-01" itree="7">\n      <Node pos="s" depth="0" NCoef="0" IVar="31" Cut="-9.0476191043853760e-01" cType="1" res="-9.9000000000000000e+01" rms="0.0000000000000000e+00" purity="4.9142679572105408e-01" nType="0">\n        <Node pos="l" depth="1" NCoef="0" IVar="4" Cut="-8.0953234434127808e-01" cType="1" res="-9.9000000000000000e+01" rms="0.0000000000000000e+00" purity="5.8798110485076904e-01" nType="0">\n          <Node pos="l" depth="2" NCoef="0" IVar="-1" Cut="-1.6483511030673981e-01" cType="1" res="-9.9000000000000000e+01" rms="0.0000000000000000e+00" purity="6.2054073810577393e-01" nType="1"/>\n          <Node pos="r" depth="2" NCoef="0" IVar="-1" Cut="0.0000000000000000e+00" cType="1" res="-9.9000000000000000e+01" rms="0.0000000000000000e+00" purity="4.9916258454322815e-01" nType="-1"/>\n        </Node>\n        <Node pos="r" depth="1" NCoef="0" IVar="14" Cut="-9.0476191043853760e-01" cType="0" res="-9.9000000000000000e+01" rms="0.0000000000000000e+00" purity="4.6322667598724365e-01" nType="0">\n          <Node pos="l" depth="2" NCoef="0" IVar="-1" Cut="1.6780050098896027e-01" cType="1" res="-9.9000000000000000e+01" rms="0.0000000000000000e+00" purity="5.7840150594711304e-01" nType="1"/>\n          <Node pos="r" depth="2" NCoef="0" IVar="-1" Cut="7.1428573131561279e-01" cType="0" res="-9.9000000000000000e+01" rms="0.0000000000000000e+00" purity="4.4411277770996094e-01" nType="-1"/>\n        </Node>\n      </Node>\n    </BinaryTree>\n    <BinaryTree type="DecisionTree" boostWeight="1.0971328537588376e-01" itree="8">\n      <Node pos="s" depth="0" NCoef="0" IVar="17" Cut="6.8046987056732178e-01" cType="0" res="-9.9000000000000000e+01" rms="0.0000000000000000e+00" purity="5.0629615783691406e-01" nType="0">\n        <Node pos="l" depth="1" NCoef="0" IVar="17" Cut="7.6049405336380005e-01" cType="0" res="-9.9000000000000000e+01" rms="0.0000000000000000e+00" purity="5.2084642648696899e-01" nType="0">\n          <Node pos="l" depth="2" NCoef="0" IVar="-1" Cut="0.0000000000000000e+00" cType="1" res="-9.9000000000000000e+01" rms="0.0000000000000000e+00" purity="6.6408538818359375e-01" nType="1"/>\n          <Node pos="r" depth="2" NCoef="0" IVar="17" Cut="7.0333313941955566e-01" cType="0" res="-9.9000000000000000e+01" rms="0.0000000000000000e+00" purity="4.9431964755058289e-01" nType="0">\n            <Node pos="l" depth="3" NCoef="0" IVar="-1" Cut="0.0000000000000000e+00" cType="1" res="-9.9000000000000000e+01" rms="0.0000000000000000e+00" purity="5.0984054803848267e-01" nType="1"/>\n            <Node pos="r" depth="3" NCoef="0" IVar="-1" Cut="0.0000000000000000e+00" cType="1" res="-9.9000000000000000e+01" rms="0.0000000000000000e+00" purity="3.0432820320129395e-01" nType="-1"/>\n          </Node>\n        </Node>\n        <Node pos="r" depth="1" NCoef="0" IVar="-1" Cut="0.0000000000000000e+00" cType="1" res="-9.9000000000000000e+01" rms="0.0000000000000000e+00" purity="3.5065460205078125e-01" nType="-1"/>\n      </Node>\n    </BinaryTree>\n    <BinaryTree type="DecisionTree" boostWeight="8.9931323759588386e-02" itree="9">\n      <Node pos="s" depth="0" NCoef="0" IVar="4" Cut="4.7572154551744461e-02" cType="1" res="-9.9000000000000000e+01" rms="0.0000000000000000e+00" purity="4.8669433593750000e-01" nType="0">\n        <Node pos="l" depth="1" NCoef="0" IVar="31" Cut="-9.0476191043853760e-01" cType="1" res="-9.9000000000000000e+01" rms="0.0000000000000000e+00" purity="4.9616941809654236e-01" nType="0">\n          <Node pos="l" depth="2" NCoef="0" IVar="-1" Cut="-9.0476191043853760e-01" cType="1" res="-9.9000000000000000e+01" rms="0.0000000000000000e+00" purity="5.7403463125228882e-01" nType="1"/>\n          <Node pos="r" depth="2" NCoef="0" IVar="-1" Cut="7.1428573131561279e-01" cType="0" res="-9.9000000000000000e+01" rms="0.0000000000000000e+00" purity="4.7366413474082947e-01" nType="-1"/>\n        </Node>\n        <Node pos="r" depth="1" NCoef="0" IVar="-1" Cut="0.0000000000000000e+00" cType="1" res="-9.9000000000000000e+01" rms="0.0000000000000000e+00" purity="3.0680230259895325e-01" nType="-1"/>\n      </Node>\n    </BinaryTree>\n    <BinaryTree type="DecisionTree" boostWeight="9.2419624178620777e-02" itree="10">\n      <Node pos="s" depth="0" NCoef="0" IVar="4" Cut="-4.7661680728197098e-02" cType="1" res="-9.9000000000000000e+01" rms="0.0000000000000000e+00" purity="4.9958902597427368e-01" nType="0">\n        <Node pos="l" depth="1" NCoef="0" IVar="17" Cut="6.8046987056732178e-01" cType="0" res="-9.9000000000000000e+01" rms="0.0000000000000000e+00" purity="5.0899076461791992e-01" nType="0">\n          <Node pos="l" depth="2" NCoef="0" IVar="17" Cut="7.6049405336380005e-01" cType="0" res="-9.9000000000000000e+01" rms="0.0000000000000000e+00" purity="5.2063953876495361e-01" nType="0">\n            <Node pos="l" depth="3" NCoef="0" IVar="-1" Cut="0.0000000000000000e+00" cType="1" res="-9.9000000000000000e+01" rms="0.0000000000000000e+00" purity="6.6511791944503784e-01" nType="1"/>\n            <Node pos="r" depth="3" NCoef="0" IVar="-1" Cut="0.0000000000000000e+00" cType="1" res="-9.9000000000000000e+01" rms="0.0000000000000000e+00" purity="4.9318057298660278e-01" nType="-1"/>\n          </Node>\n          <Node pos="r" depth="2" NCoef="0" IVar="-1" Cut="0.0000000000000000e+00" cType="1" res="-9.9000000000000000e+01" rms="0.0000000000000000e+00" purity="3.7795758247375488e-01" nType="-1"/>\n        </Node>\n        <Node pos="r" depth="1" NCoef="0" IVar="-1" Cut="0.0000000000000000e+00" cType="1" res="-9.9000000000000000e+01" rms="0.0000000000000000e+00" purity="3.4437727928161621e-01" nType="-1"/>\n      </Node>\n    </BinaryTree>\n    <BinaryTree type="DecisionTree" boostWeight="9.4005939301124733e-02" itree="11">\n      <Node pos="s" depth="0" NCoef="0" IVar="4" Cut="-4.7661680728197098e-02" cType="1" res="-9.9000000000000000e+01" rms="0.0000000000000000e+00" purity="5.1636135578155518e-01" nType="0">\n        <Node pos="l" depth="1" NCoef="0" IVar="17" Cut="6.8046987056732178e-01" cType="0" res="-9.9000000000000000e+01" rms="0.0000000000000000e+00" purity="5.2539920806884766e-01" nType="0">\n          <Node pos="l" depth="2" NCoef="0" IVar="-1" Cut="7.6049405336380005e-01" cType="0" res="-9.9000000000000000e+01" rms="0.0000000000000000e+00" purity="5.3646153211593628e-01" nType="1"/>\n          <Node pos="r" depth="2" NCoef="0" IVar="-1" Cut="0.0000000000000000e+00" cType="1" res="-9.9000000000000000e+01" rms="0.0000000000000000e+00" purity="3.9991804957389832e-01" nType="-1"/>\n        </Node>\n        <Node pos="r" depth="1" NCoef="0" IVar="-1" Cut="0.0000000000000000e+00" cType="1" res="-9.9000000000000000e+01" rms="0.0000000000000000e+00" purity="3.6553317308425903e-01" nType="-1"/>\n      </Node>\n    </BinaryTree>\n    <BinaryTree type="DecisionTree" boostWeight="9.6867485005611223e-02" itree="12">\n      <Node pos="s" depth="0" NCoef="0" IVar="7" Cut="-5.2380955219268799e-01" cType="1" res="-9.9000000000000000e+01" rms="0.0000000000000000e+00" purity="4.9911871552467346e-01" nType="0">\n        <Node pos="l" depth="1" NCoef="0" IVar="19" Cut="7.9090148210525513e-01" cType="1" res="-9.9000000000000000e+01" rms="0.0000000000000000e+00" purity="5.2500194311141968e-01" nType="0">\n          <Node pos="l" depth="2" NCoef="0" IVar="-1" Cut="0.0000000000000000e+00" cType="1" res="-9.9000000000000000e+01" rms="0.0000000000000000e+00" purity="6.7940324544906616e-01" nType="1"/>\n          <Node pos="r" depth="2" NCoef="0" IVar="17" Cut="7.1498417854309082e-01" cType="0" res="-9.9000000000000000e+01" rms="0.0000000000000000e+00" purity="5.0836211442947388e-01" nType="0">\n            <Node pos="l" depth="3" NCoef="0" IVar="-1" Cut="0.0000000000000000e+00" cType="1" res="-9.9000000000000000e+01" rms="0.0000000000000000e+00" purity="5.2974200248718262e-01" nType="1"/>\n            <Node pos="r" depth="3" NCoef="0" IVar="-1" Cut="0.0000000000000000e+00" cType="1" res="-9.9000000000000000e+01" rms="0.0000000000000000e+00" purity="4.1102528572082520e-01" nType="-1"/>\n          </Node>\n        </Node>\n        <Node pos="r" depth="1" NCoef="0" IVar="14" Cut="-9.0476191043853760e-01" cType="0" res="-9.9000000000000000e+01" rms="0.0000000000000000e+00" purity="4.7053495049476624e-01" nType="0">\n          <Node pos="l" depth="2" NCoef="0" IVar="-1" Cut="0.0000000000000000e+00" cType="1" res="-9.9000000000000000e+01" rms="0.0000000000000000e+00" purity="5.4255568981170654e-01" nType="1"/>\n          <Node pos="r" depth="2" NCoef="0" IVar="-1" Cut="-2.7254399657249451e-01" cType="1" res="-9.9000000000000000e+01" rms="0.0000000000000000e+00" purity="4.5804360508918762e-01" nType="-1"/>\n        </Node>\n      </Node>\n    </BinaryTree>\n    <BinaryTree type="DecisionTree" boostWeight="6.8453060547593952e-02" itree="13">\n      <Node pos="s" depth="0" NCoef="0" IVar="4" Cut="-4.7661680728197098e-02" cType="1" res="-9.9000000000000000e+01" rms="0.0000000000000000e+00" purity="4.9864229559898376e-01" nType="0">\n        <Node pos="l" depth="1" NCoef="0" IVar="17" Cut="6.8046987056732178e-01" cType="0" res="-9.9000000000000000e+01" rms="0.0000000000000000e+00" purity="5.0562047958374023e-01" nType="0">\n          <Node pos="l" depth="2" NCoef="0" IVar="17" Cut="7.6049405336380005e-01" cType="0" res="-9.9000000000000000e+01" rms="0.0000000000000000e+00" purity="5.1360023021697998e-01" nType="0">\n            <Node pos="l" depth="3" NCoef="0" IVar="-1" Cut="0.0000000000000000e+00" cType="1" res="-9.9000000000000000e+01" rms="0.0000000000000000e+00" purity="6.2123668193817139e-01" nType="1"/>\n            <Node pos="r" depth="3" NCoef="0" IVar="-1" Cut="0.0000000000000000e+00" cType="1" res="-9.9000000000000000e+01" rms="0.0000000000000000e+00" purity="4.9374905228614807e-01" nType="-1"/>\n          </Node>\n          <Node pos="r" depth="2" NCoef="0" IVar="-1" Cut="0.0000000000000000e+00" cType="1" res="-9.9000000000000000e+01" rms="0.0000000000000000e+00" purity="4.1260439157485962e-01" nType="-1"/>\n        </Node>\n        <Node pos="r" depth="1" NCoef="0" IVar="-1" Cut="0.0000000000000000e+00" cType="1" res="-9.9000000000000000e+01" rms="0.0000000000000000e+00" purity="3.8163840770721436e-01" nType="-1"/>\n      </Node>\n    </BinaryTree>\n    <BinaryTree type="DecisionTree" boostWeight="1.3616335732580365e-01" itree="14">\n      <Node pos="s" depth="0" NCoef="0" IVar="4" Cut="-4.7661680728197098e-02" cType="1" res="-9.9000000000000000e+01" rms="0.0000000000000000e+00" purity="5.1114463806152344e-01" nType="0">\n        <Node pos="l" depth="1" NCoef="0" IVar="12" Cut="-9.0476191043853760e-01" cType="1" res="-9.9000000000000000e+01" rms="0.0000000000000000e+00" purity="5.1785624027252197e-01" nType="0">\n          <Node pos="l" depth="2" NCoef="0" IVar="-1" Cut="-6.5914785861968994e-01" cType="1" res="-9.9000000000000000e+01" rms="0.0000000000000000e+00" purity="5.8801609277725220e-01" nType="1"/>\n          <Node pos="r" depth="2" NCoef="0" IVar="17" Cut="6.9461399316787720e-01" cType="0" res="-9.9000000000000000e+01" rms="0.0000000000000000e+00" purity="5.0673276185989380e-01" nType="0">\n            <Node pos="l" depth="3" NCoef="0" IVar="-1" Cut="0.0000000000000000e+00" cType="1" res="-9.9000000000000000e+01" rms="0.0000000000000000e+00" purity="5.3730630874633789e-01" nType="1"/>\n            <Node pos="r" depth="3" NCoef="0" IVar="-1" Cut="0.0000000000000000e+00" cType="1" res="-9.9000000000000000e+01" rms="0.0000000000000000e+00" purity="1.4441370964050293e-01" nType="-1"/>\n          </Node>\n        </Node>\n        <Node pos="r" depth="1" NCoef="0" IVar="-1" Cut="0.0000000000000000e+00" cType="1" res="-9.9000000000000000e+01" rms="0.0000000000000000e+00" purity="3.9791822433471680e-01" nType="-1"/>\n      </Node>\n    </BinaryTree>\n    <BinaryTree type="DecisionTree" boostWeight="1.0860006942037262e-01" itree="15">\n      <Node pos="s" depth="0" NCoef="0" IVar="12" Cut="-9.0476191043853760e-01" cType="1" res="-9.9000000000000000e+01" rms="0.0000000000000000e+00" purity="4.8513379693031311e-01" nType="0">\n        <Node pos="l" depth="1" NCoef="0" IVar="3" Cut="5.4421775043010712e-02" cType="1" res="-9.9000000000000000e+01" rms="0.0000000000000000e+00" purity="5.4241186380386353e-01" nType="0">\n          <Node pos="l" depth="2" NCoef="0" IVar="-1" Cut="0.0000000000000000e+00" cType="1" res="-9.9000000000000000e+01" rms="0.0000000000000000e+00" purity="6.2279266119003296e-01" nType="1"/>\n          <Node pos="r" depth="2" NCoef="0" IVar="-1" Cut="0.0000000000000000e+00" cType="1" res="-9.9000000000000000e+01" rms="0.0000000000000000e+00" purity="4.5950964093208313e-01" nType="-1"/>\n        </Node>\n        <Node pos="r" depth="1" NCoef="0" IVar="17" Cut="6.9461399316787720e-01" cType="0" res="-9.9000000000000000e+01" rms="0.0000000000000000e+00" purity="4.7580125927925110e-01" nType="0">\n          <Node pos="l" depth="2" NCoef="0" IVar="17" Cut="7.5793260335922241e-01" cType="0" res="-9.9000000000000000e+01" rms="0.0000000000000000e+00" purity="5.0011861324310303e-01" nType="0">\n            <Node pos="l" depth="3" NCoef="0" IVar="-1" Cut="0.0000000000000000e+00" cType="1" res="-9.9000000000000000e+01" rms="0.0000000000000000e+00" purity="5.6986433267593384e-01" nType="1"/>\n            <Node pos="r" depth="3" NCoef="0" IVar="-1" Cut="0.0000000000000000e+00" cType="1" res="-9.9000000000000000e+01" rms="0.0000000000000000e+00" purity="4.8320293426513672e-01" nType="-1"/>\n          </Node>\n          <Node pos="r" depth="2" NCoef="0" IVar="-1" Cut="0.0000000000000000e+00" cType="1" res="-9.9000000000000000e+01" rms="0.0000000000000000e+00" purity="1.6483204066753387e-01" nType="-1"/>\n        </Node>\n      </Node>\n    </BinaryTree>\n    <BinaryTree type="DecisionTree" boostWeight="6.7168050850838754e-02" itree="16">\n      <Node pos="s" depth="0" NCoef="0" IVar="18" Cut="8.0952382087707520e-01" cType="1" res="-9.9000000000000000e+01" rms="0.0000000000000000e+00" purity="4.9995335936546326e-01" nType="0">\n        <Node pos="l" depth="1" NCoef="0" IVar="1" Cut="-9.6659237146377563e-01" cType="0" res="-9.9000000000000000e+01" rms="0.0000000000000000e+00" purity="5.1290518045425415e-01" nType="0">\n          <Node pos="l" depth="2" NCoef="0" IVar="-1" Cut="-9.1262292861938477e-01" cType="0" res="-9.9000000000000000e+01" rms="0.0000000000000000e+00" purity="5.8200764656066895e-01" nType="1"/>\n          <Node pos="r" depth="2" NCoef="0" IVar="2" Cut="-1.4297051727771759e-01" cType="1" res="-9.9000000000000000e+01" rms="0.0000000000000000e+00" purity="5.0281834602355957e-01" nType="0">\n            <Node pos="l" depth="3" NCoef="0" IVar="-1" Cut="0.0000000000000000e+00" cType="1" res="-9.9000000000000000e+01" rms="0.0000000000000000e+00" purity="5.1094728708267212e-01" nType="1"/>\n            <Node pos="r" depth="3" NCoef="0" IVar="-1" Cut="0.0000000000000000e+00" cType="1" res="-9.9000000000000000e+01" rms="0.0000000000000000e+00" purity="4.3322104215621948e-01" nType="-1"/>\n          </Node>\n        </Node>\n        <Node pos="r" depth="1" NCoef="0" IVar="-1" Cut="0.0000000000000000e+00" cType="1" res="-9.9000000000000000e+01" rms="0.0000000000000000e+00" purity="4.0383228659629822e-01" nType="-1"/>\n      </Node>\n    </BinaryTree>\n    <BinaryTree type="DecisionTree" boostWeight="5.1238522106493919e-02" itree="17">\n      <Node pos="s" depth="0" NCoef="0" IVar="18" Cut="8.0952382087707520e-01" cType="1" res="-9.9000000000000000e+01" rms="0.0000000000000000e+00" purity="4.8983120918273926e-01" nType="0">\n        <Node pos="l" depth="1" NCoef="0" IVar="1" Cut="-9.6659237146377563e-01" cType="0" res="-9.9000000000000000e+01" rms="0.0000000000000000e+00" purity="4.9918192625045776e-01" nType="0">\n          <Node pos="l" depth="2" NCoef="0" IVar="-1" Cut="-9.1262292861938477e-01" cType="0" res="-9.9000000000000000e+01" rms="0.0000000000000000e+00" purity="5.6558310985565186e-01" nType="1"/>\n          <Node pos="r" depth="2" NCoef="0" IVar="17" Cut="7.0946264266967773e-01" cType="0" res="-9.9000000000000000e+01" rms="0.0000000000000000e+00" purity="4.8953187465667725e-01" nType="0">\n            <Node pos="l" depth="3" NCoef="0" IVar="-1" Cut="0.0000000000000000e+00" cType="1" res="-9.9000000000000000e+01" rms="0.0000000000000000e+00" purity="5.0059890747070312e-01" nType="1"/>\n            <Node pos="r" depth="3" NCoef="0" IVar="-1" Cut="0.0000000000000000e+00" cType="1" res="-9.9000000000000000e+01" rms="0.0000000000000000e+00" purity="4.4042718410491943e-01" nType="-1"/>\n          </Node>\n        </Node>\n        <Node pos="r" depth="1" NCoef="0" IVar="-1" Cut="0.0000000000000000e+00" cType="1" res="-9.9000000000000000e+01" rms="0.0000000000000000e+00" purity="4.2010208964347839e-01" nType="-1"/>\n      </Node>\n    </BinaryTree>\n    <BinaryTree type="DecisionTree" boostWeight="7.4959956867241467e-02" itree="18">\n      <Node pos="s" depth="0" NCoef="0" IVar="31" Cut="-9.0476191043853760e-01" cType="1" res="-9.9000000000000000e+01" rms="0.0000000000000000e+00" purity="4.8365843296051025e-01" nType="0">\n        <Node pos="l" depth="1" NCoef="0" IVar="11" Cut="-9.0476191043853760e-01" cType="1" res="-9.9000000000000000e+01" rms="0.0000000000000000e+00" purity="5.2164697647094727e-01" nType="0">\n          <Node pos="l" depth="2" NCoef="0" IVar="-1" Cut="0.0000000000000000e+00" cType="1" res="-9.9000000000000000e+01" rms="0.0000000000000000e+00" purity="6.4166665077209473e-01" nType="1"/>\n          <Node pos="r" depth="2" NCoef="0" IVar="15" Cut="7.6522082090377808e-01" cType="0" res="-9.9000000000000000e+01" rms="0.0000000000000000e+00" purity="4.8038020730018616e-01" nType="0">\n            <Node pos="l" depth="3" NCoef="0" IVar="-1" Cut="0.0000000000000000e+00" cType="1" res="-9.9000000000000000e+01" rms="0.0000000000000000e+00" purity="5.2439618110656738e-01" nType="1"/>\n            <Node pos="r" depth="3" NCoef="0" IVar="-1" Cut="0.0000000000000000e+00" cType="1" res="-9.9000000000000000e+01" rms="0.0000000000000000e+00" purity="4.2239648103713989e-01" nType="-1"/>\n          </Node>\n        </Node>\n        <Node pos="r" depth="1" NCoef="0" IVar="-1" Cut="7.1428573131561279e-01" cType="0" res="-9.9000000000000000e+01" rms="0.0000000000000000e+00" purity="4.7255247831344604e-01" nType="-1"/>\n      </Node>\n    </BinaryTree>\n    <BinaryTree type="DecisionTree" boostWeight="6.8389234246543543e-02" itree="19">\n      <Node pos="s" depth="0" NCoef="0" IVar="17" Cut="6.8046987056732178e-01" cType="0" res="-9.9000000000000000e+01" rms="0.0000000000000000e+00" purity="4.9662694334983826e-01" nType="0">\n        <Node pos="l" depth="1" NCoef="0" IVar="7" Cut="-7.1428573131561279e-01" cType="0" res="-9.9000000000000000e+01" rms="0.0000000000000000e+00" purity="5.0323742628097534e-01" nType="0">\n          <Node pos="l" depth="2" NCoef="0" IVar="18" Cut="7.6493710279464722e-01" cType="1" res="-9.9000000000000000e+01" rms="0.0000000000000000e+00" purity="5.1853513717651367e-01" nType="0">\n            <Node pos="l" depth="3" NCoef="0" IVar="-1" Cut="0.0000000000000000e+00" cType="1" res="-9.9000000000000000e+01" rms="0.0000000000000000e+00" purity="5.8536756038665771e-01" nType="1"/>\n            <Node pos="r" depth="3" NCoef="0" IVar="-1" Cut="0.0000000000000000e+00" cType="1" res="-9.9000000000000000e+01" rms="0.0000000000000000e+00" purity="4.9719193577766418e-01" nType="-1"/>\n          </Node>\n          <Node pos="r" depth="2" NCoef="0" IVar="-1" Cut="-9.0476191043853760e-01" cType="0" res="-9.9000000000000000e+01" rms="0.0000000000000000e+00" purity="4.4092661142349243e-01" nType="-1"/>\n        </Node>\n        <Node pos="r" depth="1" NCoef="0" IVar="-1" Cut="0.0000000000000000e+00" cType="1" res="-9.9000000000000000e+01" rms="0.0000000000000000e+00" purity="4.1231846809387207e-01" nType="-1"/>\n      </Node>\n    </BinaryTree>\n    <BinaryTree type="DecisionTree" boostWeight="7.3247105713059341e-02" itree="20">\n      <Node pos="s" depth="0" NCoef="0" IVar="17" Cut="6.8046987056732178e-01" cType="0" res="-9.9000000000000000e+01" rms="0.0000000000000000e+00" purity="5.0757545232772827e-01" nType="0">\n        <Node pos="l" depth="1" NCoef="0" IVar="17" Cut="7.6049405336380005e-01" cType="0" res="-9.9000000000000000e+01" rms="0.0000000000000000e+00" purity="5.1371330022811890e-01" nType="0">\n          <Node pos="l" depth="2" NCoef="0" IVar="-1" Cut="0.0000000000000000e+00" cType="1" res="-9.9000000000000000e+01" rms="0.0000000000000000e+00" purity="5.9040141105651855e-01" nType="1"/>\n          <Node pos="r" depth="2" NCoef="0" IVar="18" Cut="7.8630644083023071e-01" cType="1" res="-9.9000000000000000e+01" rms="0.0000000000000000e+00" purity="5.0012964010238647e-01" nType="0">\n            <Node pos="l" depth="3" NCoef="0" IVar="-1" Cut="0.0000000000000000e+00" cType="1" res="-9.9000000000000000e+01" rms="0.0000000000000000e+00" purity="5.1503443717956543e-01" nType="1"/>\n            <Node pos="r" depth="3" NCoef="0" IVar="-1" Cut="0.0000000000000000e+00" cType="1" res="-9.9000000000000000e+01" rms="0.0000000000000000e+00" purity="4.4139572978019714e-01" nType="-1"/>\n          </Node>\n        </Node>\n        <Node pos="r" depth="1" NCoef="0" IVar="-1" Cut="0.0000000000000000e+00" cType="1" res="-9.9000000000000000e+01" rms="0.0000000000000000e+00" purity="4.2898342013359070e-01" nType="-1"/>\n      </Node>\n    </BinaryTree>\n    <BinaryTree type="DecisionTree" boostWeight="9.1489912579449315e-02" itree="21">\n      <Node pos="s" depth="0" NCoef="0" IVar="12" Cut="-9.0476191043853760e-01" cType="1" res="-9.9000000000000000e+01" rms="0.0000000000000000e+00" purity="4.9775624275207520e-01" nType="0">\n        <Node pos="l" depth="1" NCoef="0" IVar="28" Cut="-9.0496397018432617e-01" cType="0" res="-9.9000000000000000e+01" rms="0.0000000000000000e+00" purity="5.3963971138000488e-01" nType="0">\n          <Node pos="l" depth="2" NCoef="0" IVar="-1" Cut="0.0000000000000000e+00" cType="1" res="-9.9000000000000000e+01" rms="0.0000000000000000e+00" purity="6.2892347574234009e-01" nType="1"/>\n          <Node pos="r" depth="2" NCoef="0" IVar="-1" Cut="0.0000000000000000e+00" cType="1" res="-9.9000000000000000e+01" rms="0.0000000000000000e+00" purity="4.8484808206558228e-01" nType="-1"/>\n        </Node>\n        <Node pos="r" depth="1" NCoef="0" IVar="17" Cut="6.9461399316787720e-01" cType="0" res="-9.9000000000000000e+01" rms="0.0000000000000000e+00" purity="4.9085128307342529e-01" nType="0">\n          <Node pos="l" depth="2" NCoef="0" IVar="17" Cut="7.4526911973953247e-01" cType="0" res="-9.9000000000000000e+01" rms="0.0000000000000000e+00" purity="5.1349639892578125e-01" nType="0">\n            <Node pos="l" depth="3" NCoef="0" IVar="-1" Cut="0.0000000000000000e+00" cType="1" res="-9.9000000000000000e+01" rms="0.0000000000000000e+00" purity="5.5694437026977539e-01" nType="1"/>\n            <Node pos="r" depth="3" NCoef="0" IVar="-1" Cut="0.0000000000000000e+00" cType="1" res="-9.9000000000000000e+01" rms="0.0000000000000000e+00" purity="4.9269130825996399e-01" nType="-1"/>\n          </Node>\n          <Node pos="r" depth="2" NCoef="0" IVar="-1" Cut="0.0000000000000000e+00" cType="1" res="-9.9000000000000000e+01" rms="0.0000000000000000e+00" purity="1.8190193176269531e-01" nType="-1"/>\n        </Node>\n      </Node>\n    </BinaryTree>\n    <BinaryTree type="DecisionTree" boostWeight="9.8709829262207519e-02" itree="22">\n      <Node pos="s" depth="0" NCoef="0" IVar="18" Cut="8.0952382087707520e-01" cType="1" res="-9.9000000000000000e+01" rms="0.0000000000000000e+00" purity="5.0633966922760010e-01" nType="0">\n        <Node pos="l" depth="1" NCoef="0" IVar="19" Cut="7.8169190883636475e-01" cType="1" res="-9.9000000000000000e+01" rms="0.0000000000000000e+00" purity="5.1594734191894531e-01" nType="0">\n          <Node pos="l" depth="2" NCoef="0" IVar="-1" Cut="0.0000000000000000e+00" cType="1" res="-9.9000000000000000e+01" rms="0.0000000000000000e+00" purity="6.0929852724075317e-01" nType="1"/>\n          <Node pos="r" depth="2" NCoef="0" IVar="17" Cut="6.9781261682510376e-01" cType="0" res="-9.9000000000000000e+01" rms="0.0000000000000000e+00" purity="5.0969988107681274e-01" nType="0">\n            <Node pos="l" depth="3" NCoef="0" IVar="-1" Cut="0.0000000000000000e+00" cType="1" res="-9.9000000000000000e+01" rms="0.0000000000000000e+00" purity="5.2807772159576416e-01" nType="1"/>\n            <Node pos="r" depth="3" NCoef="0" IVar="-1" Cut="0.0000000000000000e+00" cType="1" res="-9.9000000000000000e+01" rms="0.0000000000000000e+00" purity="2.4511341750621796e-01" nType="-1"/>\n          </Node>\n        </Node>\n        <Node pos="r" depth="1" NCoef="0" IVar="-1" Cut="0.0000000000000000e+00" cType="1" res="-9.9000000000000000e+01" rms="0.0000000000000000e+00" purity="4.3415370583534241e-01" nType="-1"/>\n      </Node>\n    </BinaryTree>\n    <BinaryTree type="DecisionTree" boostWeight="5.5848355814990147e-02" itree="23">\n      <Node pos="s" depth="0" NCoef="0" IVar="2" Cut="-3.3342149853706360e-01" cType="1" res="-9.9000000000000000e+01" rms="0.0000000000000000e+00" purity="4.9007606506347656e-01" nType="0">\n        <Node pos="l" depth="1" NCoef="0" IVar="17" Cut="6.8046987056732178e-01" cType="0" res="-9.9000000000000000e+01" rms="0.0000000000000000e+00" purity="4.9726024270057678e-01" nType="0">\n          <Node pos="l" depth="2" NCoef="0" IVar="17" Cut="7.6049405336380005e-01" cType="0" res="-9.9000000000000000e+01" rms="0.0000000000000000e+00" purity="5.0433570146560669e-01" nType="0">\n            <Node pos="l" depth="3" NCoef="0" IVar="-1" Cut="0.0000000000000000e+00" cType="1" res="-9.9000000000000000e+01" rms="0.0000000000000000e+00" purity="5.7302516698837280e-01" nType="1"/>\n            <Node pos="r" depth="3" NCoef="0" IVar="-1" Cut="0.0000000000000000e+00" cType="1" res="-9.9000000000000000e+01" rms="0.0000000000000000e+00" purity="4.9171727895736694e-01" nType="-1"/>\n          </Node>\n          <Node pos="r" depth="2" NCoef="0" IVar="-1" Cut="0.0000000000000000e+00" cType="1" res="-9.9000000000000000e+01" rms="0.0000000000000000e+00" purity="3.9818471670150757e-01" nType="-1"/>\n        </Node>\n        <Node pos="r" depth="1" NCoef="0" IVar="3" Cut="1.6780050098896027e-01" cType="1" res="-9.9000000000000000e+01" rms="0.0000000000000000e+00" purity="4.6247917413711548e-01" nType="0">\n          <Node pos="l" depth="2" NCoef="0" IVar="10" Cut="-9.0476191043853760e-01" cType="1" res="-9.9000000000000000e+01" rms="0.0000000000000000e+00" purity="4.8094886541366577e-01" nType="0">\n            <Node pos="l" depth="3" NCoef="0" IVar="-1" Cut="0.0000000000000000e+00" cType="1" res="-9.9000000000000000e+01" rms="0.0000000000000000e+00" purity="5.1174116134643555e-01" nType="1"/>\n            <Node pos="r" depth="3" NCoef="0" IVar="-1" Cut="0.0000000000000000e+00" cType="1" res="-9.9000000000000000e+01" rms="0.0000000000000000e+00" purity="4.6619319915771484e-01" nType="-1"/>\n          </Node>\n          <Node pos="r" depth="2" NCoef="0" IVar="-1" Cut="0.0000000000000000e+00" cType="1" res="-9.9000000000000000e+01" rms="0.0000000000000000e+00" purity="4.0567281842231750e-01" nType="-1"/>\n        </Node>\n      </Node>\n    </BinaryTree>\n    <BinaryTree type="DecisionTree" boostWeight="6.8210518827775707e-02" itree="24">\n      <Node pos="s" depth="0" NCoef="0" IVar="18" Cut="8.0952382087707520e-01" cType="1" res="-9.9000000000000000e+01" rms="0.0000000000000000e+00" purity="4.9941542744636536e-01" nType="0">\n        <Node pos="l" depth="1" NCoef="0" IVar="19" Cut="7.8169190883636475e-01" cType="1" res="-9.9000000000000000e+01" rms="0.0000000000000000e+00" purity="5.0562870502471924e-01" nType="0">\n          <Node pos="l" depth="2" NCoef="0" IVar="-1" Cut="0.0000000000000000e+00" cType="1" res="-9.9000000000000000e+01" rms="0.0000000000000000e+00" purity="5.9300655126571655e-01" nType="1"/>\n          <Node pos="r" depth="2" NCoef="0" IVar="17" Cut="6.9781261682510376e-01" cType="0" res="-9.9000000000000000e+01" rms="0.0000000000000000e+00" purity="4.9981868267059326e-01" nType="0">\n            <Node pos="l" depth="3" NCoef="0" IVar="-1" Cut="0.0000000000000000e+00" cType="1" res="-9.9000000000000000e+01" rms="0.0000000000000000e+00" purity="5.1496481895446777e-01" nType="1"/>\n            <Node pos="r" depth="3" NCoef="0" IVar="-1" Cut="0.0000000000000000e+00" cType="1" res="-9.9000000000000000e+01" rms="0.0000000000000000e+00" purity="2.7385845780372620e-01" nType="-1"/>\n          </Node>\n        </Node>\n        <Node pos="r" depth="1" NCoef="0" IVar="-1" Cut="0.0000000000000000e+00" cType="1" res="-9.9000000000000000e+01" rms="0.0000000000000000e+00" purity="4.5247811079025269e-01" nType="-1"/>\n      </Node>\n    </BinaryTree>\n    <BinaryTree type="DecisionTree" boostWeight="6.8792870953655244e-02" itree="25">\n      <Node pos="s" depth="0" NCoef="0" IVar="2" Cut="-3.3342149853706360e-01" cType="1" res="-9.9000000000000000e+01" rms="0.0000000000000000e+00" purity="4.8810049891471863e-01" nType="0">\n        <Node pos="l" depth="1" NCoef="0" IVar="17" Cut="6.8046987056732178e-01" cType="0" res="-9.9000000000000000e+01" rms="0.0000000000000000e+00" purity="4.9622222781181335e-01" nType="0">\n          <Node pos="l" depth="2" NCoef="0" IVar="13" Cut="-9.0476191043853760e-01" cType="0" res="-9.9000000000000000e+01" rms="0.0000000000000000e+00" purity="5.0279825925827026e-01" nType="0">\n            <Node pos="l" depth="3" NCoef="0" IVar="-1" Cut="0.0000000000000000e+00" cType="1" res="-9.9000000000000000e+01" rms="0.0000000000000000e+00" purity="5.4253464937210083e-01" nType="1"/>\n            <Node pos="r" depth="3" NCoef="0" IVar="-1" Cut="0.0000000000000000e+00" cType="1" res="-9.9000000000000000e+01" rms="0.0000000000000000e+00" purity="4.8082992434501648e-01" nType="-1"/>\n          </Node>\n          <Node pos="r" depth="2" NCoef="0" IVar="-1" Cut="0.0000000000000000e+00" cType="1" res="-9.9000000000000000e+01" rms="0.0000000000000000e+00" purity="4.0272772312164307e-01" nType="-1"/>\n        </Node>\n        <Node pos="r" depth="1" NCoef="0" IVar="-1" Cut="1.6780050098896027e-01" cType="1" res="-9.9000000000000000e+01" rms="0.0000000000000000e+00" purity="4.5696195960044861e-01" nType="-1"/>\n      </Node>\n    </BinaryTree>\n    <BinaryTree type="DecisionTree" boostWeight="9.1191215838502038e-02" itree="26">\n      <Node pos="s" depth="0" NCoef="0" IVar="12" Cut="-9.0476191043853760e-01" cType="1" res="-9.9000000000000000e+01" rms="0.0000000000000000e+00" purity="4.9621221423149109e-01" nType="0">\n        <Node pos="l" depth="1" NCoef="0" IVar="3" Cut="-2.9478453099727631e-02" cType="1" res="-9.9000000000000000e+01" rms="0.0000000000000000e+00" purity="5.3238481283187866e-01" nType="0">\n          <Node pos="l" depth="2" NCoef="0" IVar="-1" Cut="0.0000000000000000e+00" cType="1" res="-9.9000000000000000e+01" rms="0.0000000000000000e+00" purity="6.1212158203125000e-01" nType="1"/>\n          <Node pos="r" depth="2" NCoef="0" IVar="-1" Cut="0.0000000000000000e+00" cType="1" res="-9.9000000000000000e+01" rms="0.0000000000000000e+00" purity="4.8604843020439148e-01" nType="-1"/>\n        </Node>\n        <Node pos="r" depth="1" NCoef="0" IVar="17" Cut="6.9461399316787720e-01" cType="0" res="-9.9000000000000000e+01" rms="0.0000000000000000e+00" purity="4.9022600054740906e-01" nType="0">\n          <Node pos="l" depth="2" NCoef="0" IVar="7" Cut="-7.1428573131561279e-01" cType="0" res="-9.9000000000000000e+01" rms="0.0000000000000000e+00" purity="5.0799620151519775e-01" nType="0">\n            <Node pos="l" depth="3" NCoef="0" IVar="-1" Cut="0.0000000000000000e+00" cType="1" res="-9.9000000000000000e+01" rms="0.0000000000000000e+00" purity="5.2322995662689209e-01" nType="1"/>\n            <Node pos="r" depth="3" NCoef="0" IVar="-1" Cut="0.0000000000000000e+00" cType="1" res="-9.9000000000000000e+01" rms="0.0000000000000000e+00" purity="4.4571784138679504e-01" nType="-1"/>\n          </Node>\n          <Node pos="r" depth="2" NCoef="0" IVar="-1" Cut="0.0000000000000000e+00" cType="1" res="-9.9000000000000000e+01" rms="0.0000000000000000e+00" purity="2.3026247322559357e-01" nType="-1"/>\n        </Node>\n      </Node>\n    </BinaryTree>\n    <BinaryTree type="DecisionTree" boostWeight="7.1825253679080950e-02" itree="27">\n      <Node pos="s" depth="0" NCoef="0" IVar="12" Cut="-9.0476191043853760e-01" cType="1" res="-9.9000000000000000e+01" rms="0.0000000000000000e+00" purity="4.8716190457344055e-01" nType="0">\n        <Node pos="l" depth="1" NCoef="0" IVar="1" Cut="-9.9356311559677124e-01" cType="0" res="-9.9000000000000000e+01" rms="0.0000000000000000e+00" purity="5.3859639167785645e-01" nType="0">\n          <Node pos="l" depth="2" NCoef="0" IVar="-1" Cut="0.0000000000000000e+00" cType="1" res="-9.9000000000000000e+01" rms="0.0000000000000000e+00" purity="5.8213365077972412e-01" nType="1"/>\n          <Node pos="r" depth="2" NCoef="0" IVar="-1" Cut="0.0000000000000000e+00" cType="1" res="-9.9000000000000000e+01" rms="0.0000000000000000e+00" purity="4.8604530096054077e-01" nType="-1"/>\n        </Node>\n        <Node pos="r" depth="1" NCoef="0" IVar="17" Cut="6.9461399316787720e-01" cType="0" res="-9.9000000000000000e+01" rms="0.0000000000000000e+00" purity="4.7865423560142517e-01" nType="0">\n          <Node pos="l" depth="2" NCoef="0" IVar="18" Cut="8.0200928449630737e-01" cType="1" res="-9.9000000000000000e+01" rms="0.0000000000000000e+00" purity="4.9415341019630432e-01" nType="0">\n            <Node pos="l" depth="3" NCoef="0" IVar="-1" Cut="0.0000000000000000e+00" cType="1" res="-9.9000000000000000e+01" rms="0.0000000000000000e+00" purity="5.0801837444305420e-01" nType="1"/>\n            <Node pos="r" depth="3" NCoef="0" IVar="-1" Cut="0.0000000000000000e+00" cType="1" res="-9.9000000000000000e+01" rms="0.0000000000000000e+00" purity="4.4018399715423584e-01" nType="-1"/>\n          </Node>\n          <Node pos="r" depth="2" NCoef="0" IVar="-1" Cut="0.0000000000000000e+00" cType="1" res="-9.9000000000000000e+01" rms="0.0000000000000000e+00" purity="2.4682120978832245e-01" nType="-1"/>\n        </Node>\n      </Node>\n    </BinaryTree>\n    <BinaryTree type="DecisionTree" boostWeight="9.6108801756508169e-02" itree="28">\n      <Node pos="s" depth="0" NCoef="0" IVar="12" Cut="-9.0476191043853760e-01" cType="1" res="-9.9000000000000000e+01" rms="0.0000000000000000e+00" purity="4.7930011153221130e-01" nType="0">\n        <Node pos="l" depth="1" NCoef="0" IVar="28" Cut="-9.0496397018432617e-01" cType="0" res="-9.9000000000000000e+01" rms="0.0000000000000000e+00" purity="5.3704893589019775e-01" nType="0">\n          <Node pos="l" depth="2" NCoef="0" IVar="-1" Cut="0.0000000000000000e+00" cType="1" res="-9.9000000000000000e+01" rms="0.0000000000000000e+00" purity="5.9680384397506714e-01" nType="1"/>\n          <Node pos="r" depth="2" NCoef="0" IVar="-1" Cut="0.0000000000000000e+00" cType="1" res="-9.9000000000000000e+01" rms="0.0000000000000000e+00" purity="4.9996611475944519e-01" nType="-1"/>\n        </Node>\n        <Node pos="r" depth="1" NCoef="0" IVar="17" Cut="6.9461399316787720e-01" cType="0" res="-9.9000000000000000e+01" rms="0.0000000000000000e+00" purity="4.6976023912429810e-01" nType="0">\n          <Node pos="l" depth="2" NCoef="0" IVar="17" Cut="7.5793260335922241e-01" cType="0" res="-9.9000000000000000e+01" rms="0.0000000000000000e+00" purity="4.8352000117301941e-01" nType="0">\n            <Node pos="l" depth="3" NCoef="0" IVar="-1" Cut="0.0000000000000000e+00" cType="1" res="-9.9000000000000000e+01" rms="0.0000000000000000e+00" purity="5.5414545536041260e-01" nType="1"/>\n            <Node pos="r" depth="3" NCoef="0" IVar="-1" Cut="0.0000000000000000e+00" cType="1" res="-9.9000000000000000e+01" rms="0.0000000000000000e+00" purity="4.6679678559303284e-01" nType="-1"/>\n          </Node>\n          <Node pos="r" depth="2" NCoef="0" IVar="-1" Cut="0.0000000000000000e+00" cType="1" res="-9.9000000000000000e+01" rms="0.0000000000000000e+00" purity="2.6041492819786072e-01" nType="-1"/>\n        </Node>\n      </Node>\n    </BinaryTree>\n    <BinaryTree type="DecisionTree" boostWeight="7.0259628414780589e-02" itree="29">\n      <Node pos="s" depth="0" NCoef="0" IVar="12" Cut="-9.0476191043853760e-01" cType="1" res="-9.9000000000000000e+01" rms="0.0000000000000000e+00" purity="4.9326771497726440e-01" nType="0">\n        <Node pos="l" depth="1" NCoef="0" IVar="-1" Cut="-2.9478453099727631e-02" cType="1" res="-9.9000000000000000e+01" rms="0.0000000000000000e+00" purity="5.4282253980636597e-01" nType="1"/>\n        <Node pos="r" depth="1" NCoef="0" IVar="17" Cut="6.9461399316787720e-01" cType="0" res="-9.9000000000000000e+01" rms="0.0000000000000000e+00" purity="4.8507153987884521e-01" nType="0">\n          <Node pos="l" depth="2" NCoef="0" IVar="18" Cut="8.0200928449630737e-01" cType="1" res="-9.9000000000000000e+01" rms="0.0000000000000000e+00" purity="4.9832963943481445e-01" nType="0">\n            <Node pos="l" depth="3" NCoef="0" IVar="-1" Cut="0.0000000000000000e+00" cType="1" res="-9.9000000000000000e+01" rms="0.0000000000000000e+00" purity="5.1259911060333252e-01" nType="1"/>\n            <Node pos="r" depth="3" NCoef="0" IVar="-1" Cut="0.0000000000000000e+00" cType="1" res="-9.9000000000000000e+01" rms="0.0000000000000000e+00" purity="4.4238311052322388e-01" nType="-1"/>\n          </Node>\n          <Node pos="r" depth="2" NCoef="0" IVar="-1" Cut="0.0000000000000000e+00" cType="1" res="-9.9000000000000000e+01" rms="0.0000000000000000e+00" purity="2.7934673428535461e-01" nType="-1"/>\n        </Node>\n      </Node>\n    </BinaryTree>\n    <BinaryTree type="DecisionTree" boostWeight="7.5653044084844551e-02" itree="30">\n      <Node pos="s" depth="0" NCoef="0" IVar="12" Cut="-9.0476191043853760e-01" cType="1" res="-9.9000000000000000e+01" rms="0.0000000000000000e+00" purity="4.8324579000473022e-01" nType="0">\n        <Node pos="l" depth="1" NCoef="0" IVar="3" Cut="-2.9478453099727631e-02" cType="1" res="-9.9000000000000000e+01" rms="0.0000000000000000e+00" purity="5.2534103393554688e-01" nType="0">\n          <Node pos="l" depth="2" NCoef="0" IVar="-1" Cut="0.0000000000000000e+00" cType="1" res="-9.9000000000000000e+01" rms="0.0000000000000000e+00" purity="5.7326006889343262e-01" nType="1"/>\n          <Node pos="r" depth="2" NCoef="0" IVar="-1" Cut="0.0000000000000000e+00" cType="1" res="-9.9000000000000000e+01" rms="0.0000000000000000e+00" purity="4.9771562218666077e-01" nType="-1"/>\n        </Node>\n        <Node pos="r" depth="1" NCoef="0" IVar="17" Cut="6.9461399316787720e-01" cType="0" res="-9.9000000000000000e+01" rms="0.0000000000000000e+00" purity="4.7628781199455261e-01" nType="0">\n          <Node pos="l" depth="2" NCoef="0" IVar="17" Cut="7.5793260335922241e-01" cType="0" res="-9.9000000000000000e+01" rms="0.0000000000000000e+00" purity="4.8788967728614807e-01" nType="0">\n            <Node pos="l" depth="3" NCoef="0" IVar="-1" Cut="0.0000000000000000e+00" cType="1" res="-9.9000000000000000e+01" rms="0.0000000000000000e+00" purity="5.4351878166198730e-01" nType="1"/>\n            <Node pos="r" depth="3" NCoef="0" IVar="-1" Cut="0.0000000000000000e+00" cType="1" res="-9.9000000000000000e+01" rms="0.0000000000000000e+00" purity="4.7477236390113831e-01" nType="-1"/>\n          </Node>\n          <Node pos="r" depth="2" NCoef="0" IVar="-1" Cut="0.0000000000000000e+00" cType="1" res="-9.9000000000000000e+01" rms="0.0000000000000000e+00" purity="2.9370760917663574e-01" nType="-1"/>\n        </Node>\n      </Node>\n    </BinaryTree>\n    <BinaryTree type="DecisionTree" boostWeight="6.4111537637544944e-02" itree="31">\n      <Node pos="s" depth="0" NCoef="0" IVar="12" Cut="-9.0476191043853760e-01" cType="1" res="-9.9000000000000000e+01" rms="0.0000000000000000e+00" purity="4.9435180425643921e-01" nType="0">\n        <Node pos="l" depth="1" NCoef="0" IVar="4" Cut="-9.0343117713928223e-01" cType="1" res="-9.9000000000000000e+01" rms="0.0000000000000000e+00" purity="5.3048443794250488e-01" nType="0">\n          <Node pos="l" depth="2" NCoef="0" IVar="-1" Cut="0.0000000000000000e+00" cType="1" res="-9.9000000000000000e+01" rms="0.0000000000000000e+00" purity="5.5974197387695312e-01" nType="1"/>\n          <Node pos="r" depth="2" NCoef="0" IVar="-1" Cut="0.0000000000000000e+00" cType="1" res="-9.9000000000000000e+01" rms="0.0000000000000000e+00" purity="4.9008890986442566e-01" nType="-1"/>\n        </Node>\n        <Node pos="r" depth="1" NCoef="0" IVar="17" Cut="6.9461399316787720e-01" cType="0" res="-9.9000000000000000e+01" rms="0.0000000000000000e+00" purity="4.8837438225746155e-01" nType="0">\n          <Node pos="l" depth="2" NCoef="0" IVar="18" Cut="8.0200928449630737e-01" cType="1" res="-9.9000000000000000e+01" rms="0.0000000000000000e+00" purity="4.9957886338233948e-01" nType="0">\n            <Node pos="l" depth="3" NCoef="0" IVar="-1" Cut="0.0000000000000000e+00" cType="1" res="-9.9000000000000000e+01" rms="0.0000000000000000e+00" purity="5.1283043622970581e-01" nType="1"/>\n            <Node pos="r" depth="3" NCoef="0" IVar="-1" Cut="0.0000000000000000e+00" cType="1" res="-9.9000000000000000e+01" rms="0.0000000000000000e+00" purity="4.4733387231826782e-01" nType="-1"/>\n          </Node>\n          <Node pos="r" depth="2" NCoef="0" IVar="-1" Cut="0.0000000000000000e+00" cType="1" res="-9.9000000000000000e+01" rms="0.0000000000000000e+00" purity="3.0964240431785583e-01" nType="-1"/>\n        </Node>\n      </Node>\n    </BinaryTree>\n    <BinaryTree type="DecisionTree" boostWeight="5.3466058157240988e-02" itree="32">\n      <Node pos="s" depth="0" NCoef="0" IVar="12" Cut="-9.0476191043853760e-01" cType="1" res="-9.9000000000000000e+01" rms="0.0000000000000000e+00" purity="4.8707050085067749e-01" nType="0">\n        <Node pos="l" depth="1" NCoef="0" IVar="1" Cut="-9.9356311559677124e-01" cType="0" res="-9.9000000000000000e+01" rms="0.0000000000000000e+00" purity="5.2799201011657715e-01" nType="0">\n          <Node pos="l" depth="2" NCoef="0" IVar="-1" Cut="0.0000000000000000e+00" cType="1" res="-9.9000000000000000e+01" rms="0.0000000000000000e+00" purity="5.5343711376190186e-01" nType="1"/>\n          <Node pos="r" depth="2" NCoef="0" IVar="-1" Cut="0.0000000000000000e+00" cType="1" res="-9.9000000000000000e+01" rms="0.0000000000000000e+00" purity="4.9703049659729004e-01" nType="-1"/>\n        </Node>\n        <Node pos="r" depth="1" NCoef="0" IVar="17" Cut="6.9461399316787720e-01" cType="0" res="-9.9000000000000000e+01" rms="0.0000000000000000e+00" purity="4.8030430078506470e-01" nType="0">\n          <Node pos="l" depth="2" NCoef="0" IVar="15" Cut="7.4948799610137939e-01" cType="0" res="-9.9000000000000000e+01" rms="0.0000000000000000e+00" purity="4.9002662301063538e-01" nType="0">\n            <Node pos="l" depth="3" NCoef="0" IVar="-1" Cut="0.0000000000000000e+00" cType="1" res="-9.9000000000000000e+01" rms="0.0000000000000000e+00" purity="5.0458234548568726e-01" nType="1"/>\n            <Node pos="r" depth="3" NCoef="0" IVar="-1" Cut="0.0000000000000000e+00" cType="1" res="-9.9000000000000000e+01" rms="0.0000000000000000e+00" purity="4.4932180643081665e-01" nType="-1"/>\n          </Node>\n          <Node pos="r" depth="2" NCoef="0" IVar="-1" Cut="0.0000000000000000e+00" cType="1" res="-9.9000000000000000e+01" rms="0.0000000000000000e+00" purity="3.2351163029670715e-01" nType="-1"/>\n        </Node>\n      </Node>\n    </BinaryTree>\n    <BinaryTree type="DecisionTree" boostWeight="5.1806556174237031e-02" itree="33">\n      <Node pos="s" depth="0" NCoef="0" IVar="12" Cut="-9.0476191043853760e-01" cType="1" res="-9.9000000000000000e+01" rms="0.0000000000000000e+00" purity="4.8242011666297913e-01" nType="0">\n        <Node pos="l" depth="1" NCoef="0" IVar="9" Cut="2.8205132484436035e-01" cType="1" res="-9.9000000000000000e+01" rms="0.0000000000000000e+00" purity="5.2672892808914185e-01" nType="0">\n          <Node pos="l" depth="2" NCoef="0" IVar="-1" Cut="0.0000000000000000e+00" cType="1" res="-9.9000000000000000e+01" rms="0.0000000000000000e+00" purity="5.4687976837158203e-01" nType="1"/>\n          <Node pos="r" depth="2" NCoef="0" IVar="-1" Cut="0.0000000000000000e+00" cType="1" res="-9.9000000000000000e+01" rms="0.0000000000000000e+00" purity="4.9327808618545532e-01" nType="-1"/>\n        </Node>\n        <Node pos="r" depth="1" NCoef="0" IVar="-1" Cut="7.2546333074569702e-01" cType="0" res="-9.9000000000000000e+01" rms="0.0000000000000000e+00" purity="4.7509562969207764e-01" nType="-1"/>\n      </Node>\n    </BinaryTree>\n    <BinaryTree type="DecisionTree" boostWeight="2.7469685775017030e-02" itree="34">\n      <Node pos="s" depth="0" NCoef="0" IVar="22" Cut="-9.0476191043853760e-01" cType="1" res="-9.9000000000000000e+01" rms="0.0000000000000000e+00" purity="4.9306693673133850e-01" nType="0">\n        <Node pos="l" depth="1" NCoef="0" IVar="4" Cut="-4.7661680728197098e-02" cType="1" res="-9.9000000000000000e+01" rms="0.0000000000000000e+00" purity="4.9636730551719666e-01" nType="0">\n          <Node pos="l" depth="2" NCoef="0" IVar="19" Cut="8.0952382087707520e-01" cType="1" res="-9.9000000000000000e+01" rms="0.0000000000000000e+00" purity="5.0015753507614136e-01" nType="0">\n            <Node pos="l" depth="3" NCoef="0" IVar="-1" Cut="0.0000000000000000e+00" cType="1" res="-9.9000000000000000e+01" rms="0.0000000000000000e+00" purity="5.6048440933227539e-01" nType="1"/>\n            <Node pos="r" depth="3" NCoef="0" IVar="-1" Cut="0.0000000000000000e+00" cType="1" res="-9.9000000000000000e+01" rms="0.0000000000000000e+00" purity="4.9613478779792786e-01" nType="-1"/>\n          </Node>\n          <Node pos="r" depth="2" NCoef="0" IVar="-1" Cut="0.0000000000000000e+00" cType="1" res="-9.9000000000000000e+01" rms="0.0000000000000000e+00" purity="4.2948442697525024e-01" nType="-1"/>\n        </Node>\n        <Node pos="r" depth="1" NCoef="0" IVar="-1" Cut="0.0000000000000000e+00" cType="1" res="-9.9000000000000000e+01" rms="0.0000000000000000e+00" purity="4.3044829368591309e-01" nType="-1"/>\n      </Node>\n    </BinaryTree>\n    <BinaryTree type="DecisionTree" boostWeight="3.3485669614523997e-02" itree="35">\n      <Node pos="s" depth="0" NCoef="0" IVar="2" Cut="-3.3342149853706360e-01" cType="1" res="-9.9000000000000000e+01" rms="0.0000000000000000e+00" purity="4.9916177988052368e-01" nType="0">\n        <Node pos="l" depth="1" NCoef="0" IVar="7" Cut="-1.4285714924335480e-01" cType="1" res="-9.9000000000000000e+01" rms="0.0000000000000000e+00" purity="5.0584173202514648e-01" nType="0">\n          <Node pos="l" depth="2" NCoef="0" IVar="18" Cut="7.6316165924072266e-01" cType="1" res="-9.9000000000000000e+01" rms="0.0000000000000000e+00" purity="5.1026505231857300e-01" nType="0">\n            <Node pos="l" depth="3" NCoef="0" IVar="-1" Cut="0.0000000000000000e+00" cType="1" res="-9.9000000000000000e+01" rms="0.0000000000000000e+00" purity="5.3808116912841797e-01" nType="1"/>\n            <Node pos="r" depth="3" NCoef="0" IVar="-1" Cut="0.0000000000000000e+00" cType="1" res="-9.9000000000000000e+01" rms="0.0000000000000000e+00" purity="4.9963614344596863e-01" nType="-1"/>\n          </Node>\n          <Node pos="r" depth="2" NCoef="0" IVar="-1" Cut="-5.5184465646743774e-01" cType="0" res="-9.9000000000000000e+01" rms="0.0000000000000000e+00" purity="4.7628715634346008e-01" nType="-1"/>\n        </Node>\n        <Node pos="r" depth="1" NCoef="0" IVar="-1" Cut="1.6780050098896027e-01" cType="1" res="-9.9000000000000000e+01" rms="0.0000000000000000e+00" purity="4.7356501221656799e-01" nType="-1"/>\n      </Node>\n    </BinaryTree>\n    <BinaryTree type="DecisionTree" boostWeight="3.4163061531854742e-02" itree="36">\n      <Node pos="s" depth="0" NCoef="0" IVar="2" Cut="-3.3342149853706360e-01" cType="1" res="-9.9000000000000000e+01" rms="0.0000000000000000e+00" purity="5.0308883190155029e-01" nType="0">\n        <Node pos="l" depth="1" NCoef="0" IVar="6" Cut="-8.1935644149780273e-01" cType="0" res="-9.9000000000000000e+01" rms="0.0000000000000000e+00" purity="5.1019066572189331e-01" nType="0">\n          <Node pos="l" depth="2" NCoef="0" IVar="9" Cut="1.4285714924335480e-01" cType="0" res="-9.9000000000000000e+01" rms="0.0000000000000000e+00" purity="5.2986890077590942e-01" nType="0">\n            <Node pos="l" depth="3" NCoef="0" IVar="-1" Cut="0.0000000000000000e+00" cType="1" res="-9.9000000000000000e+01" rms="0.0000000000000000e+00" purity="5.4962813854217529e-01" nType="1"/>\n            <Node pos="r" depth="3" NCoef="0" IVar="-1" Cut="0.0000000000000000e+00" cType="1" res="-9.9000000000000000e+01" rms="0.0000000000000000e+00" purity="4.9241006374359131e-01" nType="-1"/>\n          </Node>\n          <Node pos="r" depth="2" NCoef="0" IVar="-1" Cut="-9.0476191043853760e-01" cType="1" res="-9.9000000000000000e+01" rms="0.0000000000000000e+00" purity="5.0375199317932129e-01" nType="1"/>\n        </Node>\n        <Node pos="r" depth="1" NCoef="0" IVar="-1" Cut="1.6780050098896027e-01" cType="1" res="-9.9000000000000000e+01" rms="0.0000000000000000e+00" purity="4.7585639357566833e-01" nType="-1"/>\n      </Node>\n    </BinaryTree>\n    <BinaryTree type="DecisionTree" boostWeight="3.9030022936877018e-02" itree="37">\n      <Node pos="s" depth="0" NCoef="0" IVar="2" Cut="-3.3342149853706360e-01" cType="1" res="-9.9000000000000000e+01" rms="0.0000000000000000e+00" purity="5.0658750534057617e-01" nType="0">\n        <Node pos="l" depth="1" NCoef="0" IVar="7" Cut="-1.4285714924335480e-01" cType="1" res="-9.9000000000000000e+01" rms="0.0000000000000000e+00" purity="5.1396685838699341e-01" nType="0">\n          <Node pos="l" depth="2" NCoef="0" IVar="-1" Cut="-8.2832652330398560e-01" cType="0" res="-9.9000000000000000e+01" rms="0.0000000000000000e+00" purity="5.1825869083404541e-01" nType="1"/>\n          <Node pos="r" depth="2" NCoef="0" IVar="-1" Cut="-5.5184465646743774e-01" cType="0" res="-9.9000000000000000e+01" rms="0.0000000000000000e+00" purity="4.8526296019554138e-01" nType="-1"/>\n        </Node>\n        <Node pos="r" depth="1" NCoef="0" IVar="-1" Cut="1.6780050098896027e-01" cType="1" res="-9.9000000000000000e+01" rms="0.0000000000000000e+00" purity="4.7827729582786560e-01" nType="-1"/>\n      </Node>\n    </BinaryTree>\n    <BinaryTree type="DecisionTree" boostWeight="3.2819720017024705e-02" itree="38">\n      <Node pos="s" depth="0" NCoef="0" IVar="22" Cut="-9.0476191043853760e-01" cType="1" res="-9.9000000000000000e+01" rms="0.0000000000000000e+00" purity="5.0134831666946411e-01" nType="0">\n        <Node pos="l" depth="1" NCoef="0" IVar="4" Cut="-4.7661680728197098e-02" cType="1" res="-9.9000000000000000e+01" rms="0.0000000000000000e+00" purity="5.0452095270156860e-01" nType="0">\n          <Node pos="l" depth="2" NCoef="0" IVar="7" Cut="-8.0952382087707520e-01" cType="0" res="-9.9000000000000000e+01" rms="0.0000000000000000e+00" purity="5.0799363851547241e-01" nType="0">\n            <Node pos="l" depth="3" NCoef="0" IVar="-1" Cut="0.0000000000000000e+00" cType="1" res="-9.9000000000000000e+01" rms="0.0000000000000000e+00" purity="5.1074033975601196e-01" nType="1"/>\n            <Node pos="r" depth="3" NCoef="0" IVar="-1" Cut="0.0000000000000000e+00" cType="1" res="-9.9000000000000000e+01" rms="0.0000000000000000e+00" purity="4.7675961256027222e-01" nType="-1"/>\n          </Node>\n          <Node pos="r" depth="2" NCoef="0" IVar="-1" Cut="0.0000000000000000e+00" cType="1" res="-9.9000000000000000e+01" rms="0.0000000000000000e+00" purity="4.4311210513114929e-01" nType="-1"/>\n        </Node>\n        <Node pos="r" depth="1" NCoef="0" IVar="-1" Cut="0.0000000000000000e+00" cType="1" res="-9.9000000000000000e+01" rms="0.0000000000000000e+00" purity="4.4113290309906006e-01" nType="-1"/>\n      </Node>\n    </BinaryTree>\n    <BinaryTree type="DecisionTree" boostWeight="8.7267617318987467e-02" itree="39">\n      <Node pos="s" depth="0" NCoef="0" IVar="17" Cut="6.8046987056732178e-01" cType="0" res="-9.9000000000000000e+01" rms="0.0000000000000000e+00" purity="4.9598997831344604e-01" nType="0">\n        <Node pos="l" depth="1" NCoef="0" IVar="18" Cut="7.6493710279464722e-01" cType="1" res="-9.9000000000000000e+01" rms="0.0000000000000000e+00" purity="4.9828857183456421e-01" nType="0">\n          <Node pos="l" depth="2" NCoef="0" IVar="15" Cut="7.3813557624816895e-01" cType="0" res="-9.9000000000000000e+01" rms="0.0000000000000000e+00" purity="5.3889882564544678e-01" nType="0">\n            <Node pos="l" depth="3" NCoef="0" IVar="-1" Cut="0.0000000000000000e+00" cType="1" res="-9.9000000000000000e+01" rms="0.0000000000000000e+00" purity="5.8148229122161865e-01" nType="1"/>\n            <Node pos="r" depth="3" NCoef="0" IVar="-1" Cut="0.0000000000000000e+00" cType="1" res="-9.9000000000000000e+01" rms="0.0000000000000000e+00" purity="3.9876851439476013e-01" nType="-1"/>\n          </Node>\n          <Node pos="r" depth="2" NCoef="0" IVar="17" Cut="7.6052731275558472e-01" cType="0" res="-9.9000000000000000e+01" rms="0.0000000000000000e+00" purity="4.8552513122558594e-01" nType="0">\n            <Node pos="l" depth="3" NCoef="0" IVar="-1" Cut="0.0000000000000000e+00" cType="1" res="-9.9000000000000000e+01" rms="0.0000000000000000e+00" purity="5.4244947433471680e-01" nType="1"/>\n            <Node pos="r" depth="3" NCoef="0" IVar="-1" Cut="0.0000000000000000e+00" cType="1" res="-9.9000000000000000e+01" rms="0.0000000000000000e+00" purity="4.7229284048080444e-01" nType="-1"/>\n          </Node>\n        </Node>\n        <Node pos="r" depth="1" NCoef="0" IVar="-1" Cut="0.0000000000000000e+00" cType="1" res="-9.9000000000000000e+01" rms="0.0000000000000000e+00" purity="4.6048560738563538e-01" nType="-1"/>\n      </Node>\n    </BinaryTree>\n    <BinaryTree type="DecisionTree" boostWeight="6.1998246841919971e-02" itree="40">\n      <Node pos="s" depth="0" NCoef="0" IVar="18" Cut="8.0952382087707520e-01" cType="1" res="-9.9000000000000000e+01" rms="0.0000000000000000e+00" purity="5.0442141294479370e-01" nType="0">\n        <Node pos="l" depth="1" NCoef="0" IVar="19" Cut="7.8169190883636475e-01" cType="1" res="-9.9000000000000000e+01" rms="0.0000000000000000e+00" purity="5.0957483053207397e-01" nType="0">\n          <Node pos="l" depth="2" NCoef="0" IVar="-1" Cut="0.0000000000000000e+00" cType="1" res="-9.9000000000000000e+01" rms="0.0000000000000000e+00" purity="5.9903097152709961e-01" nType="1"/>\n          <Node pos="r" depth="2" NCoef="0" IVar="17" Cut="7.1486079692840576e-01" cType="0" res="-9.9000000000000000e+01" rms="0.0000000000000000e+00" purity="5.0407236814498901e-01" nType="0">\n            <Node pos="l" depth="3" NCoef="0" IVar="-1" Cut="0.0000000000000000e+00" cType="1" res="-9.9000000000000000e+01" rms="0.0000000000000000e+00" purity="5.1836127042770386e-01" nType="1"/>\n            <Node pos="r" depth="3" NCoef="0" IVar="-1" Cut="0.0000000000000000e+00" cType="1" res="-9.9000000000000000e+01" rms="0.0000000000000000e+00" purity="4.3623408675193787e-01" nType="-1"/>\n          </Node>\n        </Node>\n        <Node pos="r" depth="1" NCoef="0" IVar="-1" Cut="0.0000000000000000e+00" cType="1" res="-9.9000000000000000e+01" rms="0.0000000000000000e+00" purity="4.6539166569709778e-01" nType="-1"/>\n      </Node>\n    </BinaryTree>\n    <BinaryTree type="DecisionTree" boostWeight="3.9972883396898910e-02" itree="41">\n      <Node pos="s" depth="0" NCoef="0" IVar="15" Cut="7.1428573131561279e-01" cType="1" res="-9.9000000000000000e+01" rms="0.0000000000000000e+00" purity="4.9702242016792297e-01" nType="0">\n        <Node pos="l" depth="1" NCoef="0" IVar="-1" Cut="0.0000000000000000e+00" cType="1" res="-9.9000000000000000e+01" rms="0.0000000000000000e+00" purity="5.3195255994796753e-01" nType="1"/>\n        <Node pos="r" depth="1" NCoef="0" IVar="12" Cut="-9.0476191043853760e-01" cType="0" res="-9.9000000000000000e+01" rms="0.0000000000000000e+00" purity="4.9339795112609863e-01" nType="0">\n          <Node pos="l" depth="2" NCoef="0" IVar="10" Cut="-9.0476191043853760e-01" cType="0" res="-9.9000000000000000e+01" rms="0.0000000000000000e+00" purity="4.9969699978828430e-01" nType="0">\n            <Node pos="l" depth="3" NCoef="0" IVar="-1" Cut="0.0000000000000000e+00" cType="1" res="-9.9000000000000000e+01" rms="0.0000000000000000e+00" purity="5.0812220573425293e-01" nType="1"/>\n            <Node pos="r" depth="3" NCoef="0" IVar="-1" Cut="0.0000000000000000e+00" cType="1" res="-9.9000000000000000e+01" rms="0.0000000000000000e+00" purity="4.6067097783088684e-01" nType="-1"/>\n          </Node>\n          <Node pos="r" depth="2" NCoef="0" IVar="-1" Cut="0.0000000000000000e+00" cType="1" res="-9.9000000000000000e+01" rms="0.0000000000000000e+00" purity="4.3122982978820801e-01" nType="-1"/>\n        </Node>\n      </Node>\n    </BinaryTree>\n    <BinaryTree type="DecisionTree" boostWeight="4.9021449575698477e-02" itree="42">\n      <Node pos="s" depth="0" NCoef="0" IVar="12" Cut="-9.0476191043853760e-01" cType="1" res="-9.9000000000000000e+01" rms="0.0000000000000000e+00" purity="4.9160844087600708e-01" nType="0">\n        <Node pos="l" depth="1" NCoef="0" IVar="-1" Cut="-9.9356311559677124e-01" cType="0" res="-9.9000000000000000e+01" rms="0.0000000000000000e+00" purity="5.2113002538681030e-01" nType="1"/>\n        <Node pos="r" depth="1" NCoef="0" IVar="15" Cut="7.2546333074569702e-01" cType="0" res="-9.9000000000000000e+01" rms="0.0000000000000000e+00" purity="4.8675653338432312e-01" nType="0">\n          <Node pos="l" depth="2" NCoef="0" IVar="19" Cut="8.7233769893646240e-01" cType="1" res="-9.9000000000000000e+01" rms="0.0000000000000000e+00" purity="4.9535569548606873e-01" nType="0">\n            <Node pos="l" depth="3" NCoef="0" IVar="-1" Cut="0.0000000000000000e+00" cType="1" res="-9.9000000000000000e+01" rms="0.0000000000000000e+00" purity="5.1199853420257568e-01" nType="1"/>\n            <Node pos="r" depth="3" NCoef="0" IVar="-1" Cut="0.0000000000000000e+00" cType="1" res="-9.9000000000000000e+01" rms="0.0000000000000000e+00" purity="4.7623637318611145e-01" nType="-1"/>\n          </Node>\n          <Node pos="r" depth="2" NCoef="0" IVar="-1" Cut="0.0000000000000000e+00" cType="1" res="-9.9000000000000000e+01" rms="0.0000000000000000e+00" purity="3.8817825913429260e-01" nType="-1"/>\n        </Node>\n      </Node>\n    </BinaryTree>\n    <BinaryTree type="DecisionTree" boostWeight="2.2532100369889615e-02" itree="43">\n      <Node pos="s" depth="0" NCoef="0" IVar="22" Cut="-9.0476191043853760e-01" cType="1" res="-9.9000000000000000e+01" rms="0.0000000000000000e+00" purity="4.9004101753234863e-01" nType="0">\n        <Node pos="l" depth="1" NCoef="0" IVar="2" Cut="-2.3819601535797119e-01" cType="1" res="-9.9000000000000000e+01" rms="0.0000000000000000e+00" purity="4.9261462688446045e-01" nType="0">\n          <Node pos="l" depth="2" NCoef="0" IVar="2" Cut="-6.7353659868240356e-01" cType="0" res="-9.9000000000000000e+01" rms="0.0000000000000000e+00" purity="4.9707150459289551e-01" nType="0">\n            <Node pos="l" depth="3" NCoef="0" IVar="-1" Cut="0.0000000000000000e+00" cType="1" res="-9.9000000000000000e+01" rms="0.0000000000000000e+00" purity="5.0094681978225708e-01" nType="1"/>\n            <Node pos="r" depth="3" NCoef="0" IVar="-1" Cut="0.0000000000000000e+00" cType="1" res="-9.9000000000000000e+01" rms="0.0000000000000000e+00" purity="4.7694760560989380e-01" nType="-1"/>\n          </Node>\n          <Node pos="r" depth="2" NCoef="0" IVar="-1" Cut="-3.3102968335151672e-01" cType="0" res="-9.9000000000000000e+01" rms="0.0000000000000000e+00" purity="4.6392810344696045e-01" nType="-1"/>\n        </Node>\n        <Node pos="r" depth="1" NCoef="0" IVar="-1" Cut="0.0000000000000000e+00" cType="1" res="-9.9000000000000000e+01" rms="0.0000000000000000e+00" purity="4.4149410724639893e-01" nType="-1"/>\n      </Node>\n    </BinaryTree>\n    <BinaryTree type="DecisionTree" boostWeight="7.0947907268918309e-02" itree="44">\n      <Node pos="s" depth="0" NCoef="0" IVar="15" Cut="7.1428573131561279e-01" cType="1" res="-9.9000000000000000e+01" rms="0.0000000000000000e+00" purity="4.8790618777275085e-01" nType="0">\n        <Node pos="l" depth="1" NCoef="0" IVar="-1" Cut="0.0000000000000000e+00" cType="1" res="-9.9000000000000000e+01" rms="0.0000000000000000e+00" purity="5.1764869689941406e-01" nType="1"/>\n        <Node pos="r" depth="1" NCoef="0" IVar="17" Cut="7.4780082702636719e-01" cType="0" res="-9.9000000000000000e+01" rms="0.0000000000000000e+00" purity="4.8484081029891968e-01" nType="0">\n          <Node pos="l" depth="2" NCoef="0" IVar="0" Cut="-9.8291790485382080e-01" cType="0" res="-9.9000000000000000e+01" rms="0.0000000000000000e+00" purity="5.2555370330810547e-01" nType="0">\n            <Node pos="l" depth="3" NCoef="0" IVar="-1" Cut="0.0000000000000000e+00" cType="1" res="-9.9000000000000000e+01" rms="0.0000000000000000e+00" purity="6.0068923234939575e-01" nType="1"/>\n            <Node pos="r" depth="3" NCoef="0" IVar="-1" Cut="0.0000000000000000e+00" cType="1" res="-9.9000000000000000e+01" rms="0.0000000000000000e+00" purity="4.7005018591880798e-01" nType="-1"/>\n          </Node>\n          <Node pos="r" depth="2" NCoef="0" IVar="-1" Cut="-9.0476191043853760e-01" cType="1" res="-9.9000000000000000e+01" rms="0.0000000000000000e+00" purity="4.7067385911941528e-01" nType="-1"/>\n        </Node>\n      </Node>\n    </BinaryTree>\n    <BinaryTree type="DecisionTree" boostWeight="3.8024113405118187e-02" itree="45">\n      <Node pos="s" depth="0" NCoef="0" IVar="17" Cut="6.8046987056732178e-01" cType="0" res="-9.9000000000000000e+01" rms="0.0000000000000000e+00" purity="4.9879398941993713e-01" nType="0">\n        <Node pos="l" depth="1" NCoef="0" IVar="19" Cut="8.3260804414749146e-01" cType="1" res="-9.9000000000000000e+01" rms="0.0000000000000000e+00" purity="5.0236672163009644e-01" nType="0">\n          <Node pos="l" depth="2" NCoef="0" IVar="-1" Cut="0.0000000000000000e+00" cType="1" res="-9.9000000000000000e+01" rms="0.0000000000000000e+00" purity="5.7028299570083618e-01" nType="1"/>\n          <Node pos="r" depth="2" NCoef="0" IVar="3" Cut="-4.7619048506021500e-02" cType="0" res="-9.9000000000000000e+01" rms="0.0000000000000000e+00" purity="4.9810227751731873e-01" nType="0">\n            <Node pos="l" depth="3" NCoef="0" IVar="-1" Cut="0.0000000000000000e+00" cType="1" res="-9.9000000000000000e+01" rms="0.0000000000000000e+00" purity="5.0765818357467651e-01" nType="1"/>\n            <Node pos="r" depth="3" NCoef="0" IVar="-1" Cut="0.0000000000000000e+00" cType="1" res="-9.9000000000000000e+01" rms="0.0000000000000000e+00" purity="4.7131556272506714e-01" nType="-1"/>\n          </Node>\n        </Node>\n        <Node pos="r" depth="1" NCoef="0" IVar="-1" Cut="0.0000000000000000e+00" cType="1" res="-9.9000000000000000e+01" rms="0.0000000000000000e+00" purity="4.4252353906631470e-01" nType="-1"/>\n      </Node>\n    </BinaryTree>\n    <BinaryTree type="DecisionTree" boostWeight="5.4170078046405855e-02" itree="46">\n      <Node pos="s" depth="0" NCoef="0" IVar="10" Cut="-9.0476191043853760e-01" cType="1" res="-9.9000000000000000e+01" rms="0.0000000000000000e+00" purity="4.9484261870384216e-01" nType="0">\n        <Node pos="l" depth="1" NCoef="0" IVar="13" Cut="-9.0476191043853760e-01" cType="1" res="-9.9000000000000000e+01" rms="0.0000000000000000e+00" purity="5.2185082435607910e-01" nType="0">\n          <Node pos="l" depth="2" NCoef="0" IVar="-1" Cut="0.0000000000000000e+00" cType="1" res="-9.9000000000000000e+01" rms="0.0000000000000000e+00" purity="5.4568892717361450e-01" nType="1"/>\n          <Node pos="r" depth="2" NCoef="0" IVar="-1" Cut="0.0000000000000000e+00" cType="1" res="-9.9000000000000000e+01" rms="0.0000000000000000e+00" purity="4.9390152096748352e-01" nType="-1"/>\n        </Node>\n        <Node pos="r" depth="1" NCoef="0" IVar="15" Cut="7.2546333074569702e-01" cType="0" res="-9.9000000000000000e+01" rms="0.0000000000000000e+00" purity="4.8874032497406006e-01" nType="0">\n          <Node pos="l" depth="2" NCoef="0" IVar="19" Cut="8.5106068849563599e-01" cType="1" res="-9.9000000000000000e+01" rms="0.0000000000000000e+00" purity="4.9805080890655518e-01" nType="0">\n            <Node pos="l" depth="3" NCoef="0" IVar="-1" Cut="0.0000000000000000e+00" cType="1" res="-9.9000000000000000e+01" rms="0.0000000000000000e+00" purity="5.5261737108230591e-01" nType="1"/>\n            <Node pos="r" depth="3" NCoef="0" IVar="-1" Cut="0.0000000000000000e+00" cType="1" res="-9.9000000000000000e+01" rms="0.0000000000000000e+00" purity="4.8674911260604858e-01" nType="-1"/>\n          </Node>\n          <Node pos="r" depth="2" NCoef="0" IVar="-1" Cut="7.1357107162475586e-01" cType="0" res="-9.9000000000000000e+01" rms="0.0000000000000000e+00" purity="4.2648997902870178e-01" nType="-1"/>\n        </Node>\n      </Node>\n    </BinaryTree>\n    <BinaryTree type="DecisionTree" boostWeight="4.6949780111781525e-02" itree="47">\n      <Node pos="s" depth="0" NCoef="0" IVar="17" Cut="6.8046987056732178e-01" cType="0" res="-9.9000000000000000e+01" rms="0.0000000000000000e+00" purity="5.0239521265029907e-01" nType="0">\n        <Node pos="l" depth="1" NCoef="0" IVar="12" Cut="-9.0476191043853760e-01" cType="0" res="-9.9000000000000000e+01" rms="0.0000000000000000e+00" purity="5.0616174936294556e-01" nType="0">\n          <Node pos="l" depth="2" NCoef="0" IVar="18" Cut="8.0767577886581421e-01" cType="1" res="-9.9000000000000000e+01" rms="0.0000000000000000e+00" purity="5.1159626245498657e-01" nType="0">\n            <Node pos="l" depth="3" NCoef="0" IVar="-1" Cut="0.0000000000000000e+00" cType="1" res="-9.9000000000000000e+01" rms="0.0000000000000000e+00" purity="5.1820731163024902e-01" nType="1"/>\n            <Node pos="r" depth="3" NCoef="0" IVar="-1" Cut="0.0000000000000000e+00" cType="1" res="-9.9000000000000000e+01" rms="0.0000000000000000e+00" purity="4.7494575381278992e-01" nType="-1"/>\n          </Node>\n          <Node pos="r" depth="2" NCoef="0" IVar="-1" Cut="0.0000000000000000e+00" cType="1" res="-9.9000000000000000e+01" rms="0.0000000000000000e+00" purity="4.6180647611618042e-01" nType="-1"/>\n        </Node>\n        <Node pos="r" depth="1" NCoef="0" IVar="-1" Cut="0.0000000000000000e+00" cType="1" res="-9.9000000000000000e+01" rms="0.0000000000000000e+00" purity="4.4264692068099976e-01" nType="-1"/>\n      </Node>\n    </BinaryTree>\n    <BinaryTree type="DecisionTree" boostWeight="4.6511940164106605e-02" itree="48">\n      <Node pos="s" depth="0" NCoef="0" IVar="30" Cut="-9.0476191043853760e-01" cType="1" res="-9.9000000000000000e+01" rms="0.0000000000000000e+00" purity="4.9746453762054443e-01" nType="0">\n        <Node pos="l" depth="1" NCoef="0" IVar="9" Cut="-2.6739925146102905e-01" cType="1" res="-9.9000000000000000e+01" rms="0.0000000000000000e+00" purity="5.2600830793380737e-01" nType="0">\n          <Node pos="l" depth="2" NCoef="0" IVar="-1" Cut="0.0000000000000000e+00" cType="1" res="-9.9000000000000000e+01" rms="0.0000000000000000e+00" purity="5.7139664888381958e-01" nType="1"/>\n          <Node pos="r" depth="2" NCoef="0" IVar="-1" Cut="0.0000000000000000e+00" cType="1" res="-9.9000000000000000e+01" rms="0.0000000000000000e+00" purity="4.9084421992301941e-01" nType="-1"/>\n        </Node>\n        <Node pos="r" depth="1" NCoef="0" IVar="30" Cut="9.9410074949264526e-01" cType="1" res="-9.9000000000000000e+01" rms="0.0000000000000000e+00" purity="4.9195596575737000e-01" nType="0">\n          <Node pos="l" depth="2" NCoef="0" IVar="7" Cut="-2.3809523880481720e-01" cType="1" res="-9.9000000000000000e+01" rms="0.0000000000000000e+00" purity="5.0170022249221802e-01" nType="0">\n            <Node pos="l" depth="3" NCoef="0" IVar="-1" Cut="0.0000000000000000e+00" cType="1" res="-9.9000000000000000e+01" rms="0.0000000000000000e+00" purity="5.0861525535583496e-01" nType="1"/>\n            <Node pos="r" depth="3" NCoef="0" IVar="-1" Cut="0.0000000000000000e+00" cType="1" res="-9.9000000000000000e+01" rms="0.0000000000000000e+00" purity="4.7455832362174988e-01" nType="-1"/>\n          </Node>\n          <Node pos="r" depth="2" NCoef="0" IVar="-1" Cut="0.0000000000000000e+00" cType="1" res="-9.9000000000000000e+01" rms="0.0000000000000000e+00" purity="3.7574791908264160e-01" nType="-1"/>\n        </Node>\n      </Node>\n    </BinaryTree>\n    <BinaryTree type="DecisionTree" boostWeight="4.1590734185135543e-02" itree="49">\n      <Node pos="s" depth="0" NCoef="0" IVar="30" Cut="-9.0476191043853760e-01" cType="1" res="-9.9000000000000000e+01" rms="0.0000000000000000e+00" purity="4.9310970306396484e-01" nType="0">\n        <Node pos="l" depth="1" NCoef="0" IVar="-1" Cut="-2.6739925146102905e-01" cType="1" res="-9.9000000000000000e+01" rms="0.0000000000000000e+00" purity="5.2753049135208130e-01" nType="1"/>\n        <Node pos="r" depth="1" NCoef="0" IVar="30" Cut="9.9410074949264526e-01" cType="1" res="-9.9000000000000000e+01" rms="0.0000000000000000e+00" purity="4.8647183179855347e-01" nType="0">\n          <Node pos="l" depth="2" NCoef="0" IVar="4" Cut="-3.3300244808197021e-01" cType="0" res="-9.9000000000000000e+01" rms="0.0000000000000000e+00" purity="4.9479252099990845e-01" nType="0">\n            <Node pos="l" depth="3" NCoef="0" IVar="-1" Cut="0.0000000000000000e+00" cType="1" res="-9.9000000000000000e+01" rms="0.0000000000000000e+00" purity="5.3647977113723755e-01" nType="1"/>\n            <Node pos="r" depth="3" NCoef="0" IVar="-1" Cut="0.0000000000000000e+00" cType="1" res="-9.9000000000000000e+01" rms="0.0000000000000000e+00" purity="4.9074929952621460e-01" nType="-1"/>\n          </Node>\n          <Node pos="r" depth="2" NCoef="0" IVar="-1" Cut="0.0000000000000000e+00" cType="1" res="-9.9000000000000000e+01" rms="0.0000000000000000e+00" purity="3.8671925663948059e-01" nType="-1"/>\n        </Node>\n      </Node>\n    </BinaryTree>\n  </Weights>\n</MethodSetup>\n'
p84
sS'n_classes_'
p85
I2
sS'sigmoid_function'
p86
S'bdt'
p87
sS'method'
p88
S'kBDT'
p89
sS'_method_name'
p90
S'REP_Estimator'
p91
sS'method_parameters'
p92
(dp93
S'VarTransform'
p94
S'Norm'
p95
sS'PruningValFraction'
p96
F0.29999999999999999
sS'NTrees'
p97
I50
sS'PruneStrength'
p98
I-1
sS'H'
S'false'
p99
sS'PruneMethod'
p100
S'CostComplexity'
p101
sS'MaxDepth'
p102
I3
sS'V'
S'true'
p103
sS'BoostType'
p104
S'AdaBoost'
p105
ssb.