ccopy_reg
_reconstructor
p1
(crep.estimators.tmva
TMVAClassifier
p2
c__builtin__
object
p3
NtRp4
(dp5
S'factory_options'
p6
S'V:!Silent:!Color:!DrawProgressBar:AnalysisType=Classification:AnalysisType=Classification:AnalysisType=Classification:AnalysisType=Classification'
p7
sS'classes_'
p8
cnumpy.core.multiarray
_reconstruct
p9
(cnumpy
ndarray
p10
(I0
tS'b'
tRp11
(I1
(I2
tcnumpy
dtype
p12
(S'i8'
I0
I1
tRp13
(I3
S'<'
NNNI-1
I-1
I0
tbI00
S'\x00\x00\x00\x00\x00\x00\x00\x00\x01\x00\x00\x00\x00\x00\x00\x00'
tbsS'features'
p14
(lp15
cnumpy.core.multiarray
scalar
p16
(g12
(S'S6'
I0
I1
tRp17
(I3
S'|'
NNNI6
I1
I0
tbS'TrackP'
tRp18
ag16
(g12
(S'S7'
I0
I1
tRp19
(I3
S'|'
NNNI7
I1
I0
tbS'TrackPt'
tRp20
ag16
(g12
(S'S15'
I0
I1
tRp21
(I3
S'|'
NNNI15
I1
I0
tbS'TrackChi2PerDof'
tRp22
ag16
(g12
(S'S11'
I0
I1
tRp23
(I3
S'|'
NNNI11
I1
I0
tbS'TrackNumDof'
tRp24
ag16
(g12
(S'S21'
I0
I1
tRp25
(I3
S'|'
NNNI21
I1
I0
tbS'TrackGhostProbability'
tRp26
ag16
(g12
(S'S17'
I0
I1
tRp27
(I3
S'|'
NNNI17
I1
I0
tbS'TrackFitMatchChi2'
tRp28
ag16
(g12
(S'S16'
I0
I1
tRp29
(I3
S'|'
NNNI16
I1
I0
tbS'TrackFitVeloChi2'
tRp30
ag16
(g12
(S'S16'
I0
I1
tRp31
(I3
S'|'
NNNI16
I1
I0
tbS'TrackFitVeloNDoF'
tRp32
ag16
(g12
(S'S13'
I0
I1
tRp33
(I3
S'|'
NNNI13
I1
I0
tbS'TrackFitTChi2'
tRp34
ag16
(g12
(S'S13'
I0
I1
tRp35
(I3
S'|'
NNNI13
I1
I0
tbS'TrackFitTNDoF'
tRp36
ag16
(g12
(S'S13'
I0
I1
tRp37
(I3
S'|'
NNNI13
I1
I0
tbS'RichUsedR1Gas'
tRp38
ag16
(g12
(S'S13'
I0
I1
tRp39
(I3
S'|'
NNNI13
I1
I0
tbS'RichUsedR2Gas'
tRp40
ag16
(g12
(S'S16'
I0
I1
tRp41
(I3
S'|'
NNNI16
I1
I0
tbS'RichAbovePiThres'
tRp42
ag16
(g12
(S'S16'
I0
I1
tRp43
(I3
S'|'
NNNI16
I1
I0
tbS'RichAboveKaThres'
tRp44
ag16
(g12
(S'S16'
I0
I1
tRp45
(I3
S'|'
NNNI16
I1
I0
tbS'RichAbovePrThres'
tRp46
ag16
(g12
(S'S8'
I0
I1
tRp47
(I3
S'|'
NNNI8
I1
I0
tbS'RichDLLe'
tRp48
ag16
(g12
(S'S9'
I0
I1
tRp49
(I3
S'|'
NNNI9
I1
I0
tbS'RichDLLmu'
tRp50
ag16
(g12
(S'S8'
I0
I1
tRp51
(I3
S'|'
NNNI8
I1
I0
tbS'RichDLLk'
tRp52
ag16
(g12
(S'S8'
I0
I1
tRp53
(I3
S'|'
NNNI8
I1
I0
tbS'RichDLLp'
tRp54
ag16
(g12
(S'S9'
I0
I1
tRp55
(I3
S'|'
NNNI9
I1
I0
tbS'RichDLLbt'
tRp56
ag16
(g12
(S'S9'
I0
I1
tRp57
(I3
S'|'
NNNI9
I1
I0
tbS'MuonBkgLL'
tRp58
ag16
(g12
(S'S8'
I0
I1
tRp59
(I3
S'|'
NNNI8
I1
I0
tbS'MuonMuLL'
tRp60
ag16
(g12
(S'S10'
I0
I1
tRp61
(I3
S'|'
NNNI10
I1
I0
tbS'MuonIsMuon'
tRp62
ag16
(g12
(S'S11'
I0
I1
tRp63
(I3
S'|'
NNNI11
I1
I0
tbS'MuonNShared'
tRp64
ag16
(g12
(S'S9'
I0
I1
tRp65
(I3
S'|'
NNNI9
I1
I0
tbS'InAccMuon'
tRp66
ag16
(g12
(S'S15'
I0
I1
tRp67
(I3
S'|'
NNNI15
I1
I0
tbS'MuonIsLooseMuon'
tRp68
ag16
(g12
(S'S8'
I0
I1
tRp69
(I3
S'|'
NNNI8
I1
I0
tbS'EcalPIDe'
tRp70
ag16
(g12
(S'S9'
I0
I1
tRp71
(I3
S'|'
NNNI9
I1
I0
tbS'EcalPIDmu'
tRp72
ag16
(g12
(S'S8'
I0
I1
tRp73
(I3
S'|'
NNNI8
I1
I0
tbS'HcalPIDe'
tRp74
ag16
(g12
(S'S9'
I0
I1
tRp75
(I3
S'|'
NNNI9
I1
I0
tbS'HcalPIDmu'
tRp76
ag16
(g12
(S'S8'
I0
I1
tRp77
(I3
S'|'
NNNI8
I1
I0
tbS'CaloPrsE'
tRp78
ag16
(g12
(S'S7'
I0
I1
tRp79
(I3
S'|'
NNNI7
I1
I0
tbS'PrsPIDe'
tRp80
ag16
(g12
(S'S9'
I0
I1
tRp81
(I3
S'|'
NNNI9
I1
I0
tbS'InAccBrem'
tRp82
ag16
(g12
(S'S8'
I0
I1
tRp83
(I3
S'|'
NNNI8
I1
I0
tbS'BremPIDe'
tRp84
asS'formula_xml'
p85
S'<?xml version="1.0"?>\n<MethodSetup Method="BDT::REP_Estimator">\n  <GeneralInfo>\n    <Info name="TMVA Release" value="4.2.0 [262656]"/>\n    <Info name="ROOT Release" value="5.34/32 [336416]"/>\n    <Info name="Creator" value="root"/>\n    <Info name="Date" value="Thu Feb 25 16:41:15 2016"/>\n    <Info name="Host" value="Linux localhost.localdomain 2.6.32-431.1.2.el6.x86_64 #1 SMP Thu Dec 12 13:59:19 CST 2013 x86_64 x86_64 x86_64 GNU/Linux"/>\n    <Info name="Dir" value="/notebooks/notebooks/tmp9XE2Hh"/>\n    <Info name="Training events" value="120000"/>\n    <Info name="TrainingTime" value="1.04829650e+01"/>\n    <Info name="AnalysisType" value="Classification"/>\n  </GeneralInfo>\n  <Options>\n    <Option name="V" modified="Yes">True</Option>\n    <Option name="VerbosityLevel" modified="No">Verbose</Option>\n    <Option name="VarTransform" modified="Yes">Norm</Option>\n    <Option name="H" modified="Yes">False</Option>\n    <Option name="CreateMVAPdfs" modified="No">False</Option>\n    <Option name="IgnoreNegWeightsInTraining" modified="No">False</Option>\n    <Option name="NTrees" modified="Yes">50</Option>\n    <Option name="MaxDepth" modified="Yes">3</Option>\n    <Option name="MinNodeSize" modified="No">5%</Option>\n    <Option name="nCuts" modified="No">20</Option>\n    <Option name="BoostType" modified="Yes">AdaBoost</Option>\n    <Option name="AdaBoostR2Loss" modified="No">quadratic</Option>\n    <Option name="UseBaggedBoost" modified="No">False</Option>\n    <Option name="Shrinkage" modified="No">1.000000e+00</Option>\n    <Option name="AdaBoostBeta" modified="No">5.000000e-01</Option>\n    <Option name="UseRandomisedTrees" modified="No">False</Option>\n    <Option name="UseNvars" modified="No">6</Option>\n    <Option name="UsePoissonNvars" modified="No">True</Option>\n    <Option name="BaggedSampleFraction" modified="No">6.000000e-01</Option>\n    <Option name="UseYesNoLeaf" modified="No">True</Option>\n    <Option name="NegWeightTreatment" modified="No">inverseboostnegweights</Option>\n    <Option name="Css" modified="No">1.000000e+00</Option>\n    <Option name="Cts_sb" modified="No">1.000000e+00</Option>\n    <Option name="Ctb_ss" modified="No">1.000000e+00</Option>\n    <Option name="Cbb" modified="No">1.000000e+00</Option>\n    <Option name="NodePurityLimit" modified="No">5.000000e-01</Option>\n    <Option name="SeparationType" modified="No">giniindex</Option>\n    <Option name="DoBoostMonitor" modified="No">False</Option>\n    <Option name="UseFisherCuts" modified="No">False</Option>\n    <Option name="MinLinCorrForFisher" modified="No">8.000000e-01</Option>\n    <Option name="UseExclusiveVars" modified="No">False</Option>\n    <Option name="DoPreselection" modified="No">False</Option>\n    <Option name="SigToBkgFraction" modified="No">1.000000e+00</Option>\n    <Option name="PruneMethod" modified="Yes">costcomplexity</Option>\n    <Option name="PruneStrength" modified="Yes">-1.000000e+00</Option>\n    <Option name="PruningValFraction" modified="Yes">3.000000e-01</Option>\n    <Option name="nEventsMin" modified="No">0</Option>\n    <Option name="UseBaggedGrad" modified="No">False</Option>\n    <Option name="GradBaggingFraction" modified="No">6.000000e-01</Option>\n    <Option name="UseNTrainEvents" modified="No">0</Option>\n    <Option name="NNodesMax" modified="No">0</Option>\n  </Options>\n  <Variables NVar="34">\n    <Variable VarIndex="0" Expression="TrackP" Label="TrackP" Title="TrackP" Unit="" Internal="TrackP" Type="F" Min="1.15967004e+03" Max="1.13558638e+06"/>\n    <Variable VarIndex="1" Expression="TrackPt" Label="TrackPt" Title="TrackPt" Unit="" Internal="TrackPt" Type="F" Min="6.90499830e+00" Max="6.83289922e+04"/>\n    <Variable VarIndex="2" Expression="TrackChi2PerDof" Label="TrackChi2PerDof" Title="TrackChi2PerDof" Unit="" Internal="TrackChi2PerDof" Type="F" Min="1.24249414e-01" Max="3.99916315e+00"/>\n    <Variable VarIndex="3" Expression="TrackNumDof" Label="TrackNumDof" Title="TrackNumDof" Unit="" Internal="TrackNumDof" Type="F" Min="7.00000000e+00" Max="4.90000000e+01"/>\n    <Variable VarIndex="4" Expression="TrackGhostProbability" Label="TrackGhostProbability" Title="TrackGhostProbability" Unit="" Internal="TrackGhostProbability" Type="F" Min="1.54159404e-03" Max="3.99982750e-01"/>\n    <Variable VarIndex="5" Expression="TrackFitMatchChi2" Label="TrackFitMatchChi2" Title="TrackFitMatchChi2" Unit="" Internal="TrackFitMatchChi2" Type="F" Min="9.10696853e-03" Max="1.20970528e+02"/>\n    <Variable VarIndex="6" Expression="TrackFitVeloChi2" Label="TrackFitVeloChi2" Title="TrackFitVeloChi2" Unit="" Internal="TrackFitVeloChi2" Type="F" Min="1.97511457e-04" Max="9.81467972e+01"/>\n    <Variable VarIndex="7" Expression="TrackFitVeloNDoF" Label="TrackFitVeloNDoF" Title="TrackFitVeloNDoF" Unit="" Internal="TrackFitVeloNDoF" Type="F" Min="1.00000000e+00" Max="2.00000000e+01"/>\n    <Variable VarIndex="8" Expression="TrackFitTChi2" Label="TrackFitTChi2" Title="TrackFitTChi2" Unit="" Internal="TrackFitTChi2" Type="F" Min="1.41289094e-02" Max="9.80159302e+01"/>\n    <Variable VarIndex="9" Expression="TrackFitTNDoF" Label="TrackFitTNDoF" Title="TrackFitTNDoF" Unit="" Internal="TrackFitTNDoF" Type="F" Min="1.00000000e+00" Max="2.70000000e+01"/>\n    <Variable VarIndex="10" Expression="RichUsedR1Gas" Label="RichUsedR1Gas" Title="RichUsedR1Gas" Unit="" Internal="RichUsedR1Gas" Type="F" Min="0.00000000e+00" Max="1.00000000e+00"/>\n    <Variable VarIndex="11" Expression="RichUsedR2Gas" Label="RichUsedR2Gas" Title="RichUsedR2Gas" Unit="" Internal="RichUsedR2Gas" Type="F" Min="0.00000000e+00" Max="1.00000000e+00"/>\n    <Variable VarIndex="12" Expression="RichAbovePiThres" Label="RichAbovePiThres" Title="RichAbovePiThres" Unit="" Internal="RichAbovePiThres" Type="F" Min="0.00000000e+00" Max="1.00000000e+00"/>\n    <Variable VarIndex="13" Expression="RichAboveKaThres" Label="RichAboveKaThres" Title="RichAboveKaThres" Unit="" Internal="RichAboveKaThres" Type="F" Min="0.00000000e+00" Max="1.00000000e+00"/>\n    <Variable VarIndex="14" Expression="RichAbovePrThres" Label="RichAbovePrThres" Title="RichAbovePrThres" Unit="" Internal="RichAbovePrThres" Type="F" Min="0.00000000e+00" Max="1.00000000e+00"/>\n    <Variable VarIndex="15" Expression="RichDLLe" Label="RichDLLe" Title="RichDLLe" Unit="" Internal="RichDLLe" Type="F" Min="-9.99000000e+02" Max="1.31175797e+02"/>\n    <Variable VarIndex="16" Expression="RichDLLmu" Label="RichDLLmu" Title="RichDLLmu" Unit="" Internal="RichDLLmu" Type="F" Min="-9.99000000e+02" Max="1.24875801e+02"/>\n    <Variable VarIndex="17" Expression="RichDLLk" Label="RichDLLk" Title="RichDLLk" Unit="" Internal="RichDLLk" Type="F" Min="-9.99000000e+02" Max="1.58692993e+02"/>\n    <Variable VarIndex="18" Expression="RichDLLp" Label="RichDLLp" Title="RichDLLp" Unit="" Internal="RichDLLp" Type="F" Min="-9.99000000e+02" Max="1.29497803e+02"/>\n    <Variable VarIndex="19" Expression="RichDLLbt" Label="RichDLLbt" Title="RichDLLbt" Unit="" Internal="RichDLLbt" Type="F" Min="-9.99000000e+02" Max="7.35431976e+01"/>\n    <Variable VarIndex="20" Expression="MuonBkgLL" Label="MuonBkgLL" Title="MuonBkgLL" Unit="" Internal="MuonBkgLL" Type="F" Min="-9.99000000e+02" Max="9.60000046e-03"/>\n    <Variable VarIndex="21" Expression="MuonMuLL" Label="MuonMuLL" Title="MuonMuLL" Unit="" Internal="MuonMuLL" Type="F" Min="-9.99000000e+02" Max="0.00000000e+00"/>\n    <Variable VarIndex="22" Expression="MuonIsMuon" Label="MuonIsMuon" Title="MuonIsMuon" Unit="" Internal="MuonIsMuon" Type="F" Min="0.00000000e+00" Max="1.00000000e+00"/>\n    <Variable VarIndex="23" Expression="MuonNShared" Label="MuonNShared" Title="MuonNShared" Unit="" Internal="MuonNShared" Type="F" Min="0.00000000e+00" Max="3.30000000e+01"/>\n    <Variable VarIndex="24" Expression="InAccMuon" Label="InAccMuon" Title="InAccMuon" Unit="" Internal="InAccMuon" Type="F" Min="0.00000000e+00" Max="1.00000000e+00"/>\n    <Variable VarIndex="25" Expression="MuonIsLooseMuon" Label="MuonIsLooseMuon" Title="MuonIsLooseMuon" Unit="" Internal="MuonIsLooseMuon" Type="F" Min="0.00000000e+00" Max="1.00000000e+00"/>\n    <Variable VarIndex="26" Expression="EcalPIDe" Label="EcalPIDe" Title="EcalPIDe" Unit="" Internal="EcalPIDe" Type="F" Min="-9.99000000e+02" Max="4.05479050e+00"/>\n    <Variable VarIndex="27" Expression="EcalPIDmu" Label="EcalPIDmu" Title="EcalPIDmu" Unit="" Internal="EcalPIDmu" Type="F" Min="-9.99000000e+02" Max="2.15297604e+00"/>\n    <Variable VarIndex="28" Expression="HcalPIDe" Label="HcalPIDe" Title="HcalPIDe" Unit="" Internal="HcalPIDe" Type="F" Min="-9.99000000e+02" Max="2.72250462e+00"/>\n    <Variable VarIndex="29" Expression="HcalPIDmu" Label="HcalPIDmu" Title="HcalPIDmu" Unit="" Internal="HcalPIDmu" Type="F" Min="-9.99000000e+02" Max="2.87338901e+00"/>\n    <Variable VarIndex="30" Expression="CaloPrsE" Label="CaloPrsE" Title="CaloPrsE" Unit="" Internal="CaloPrsE" Type="F" Min="-9.99000000e+02" Max="2.80579987e+02"/>\n    <Variable VarIndex="31" Expression="PrsPIDe" Label="PrsPIDe" Title="PrsPIDe" Unit="" Internal="PrsPIDe" Type="F" Min="-9.99000000e+02" Max="3.39547467e+00"/>\n    <Variable VarIndex="32" Expression="InAccBrem" Label="InAccBrem" Title="InAccBrem" Unit="" Internal="InAccBrem" Type="F" Min="0.00000000e+00" Max="1.00000000e+00"/>\n    <Variable VarIndex="33" Expression="BremPIDe" Label="BremPIDe" Title="BremPIDe" Unit="" Internal="BremPIDe" Type="F" Min="-9.99000000e+02" Max="4.79148388e+00"/>\n  </Variables>\n  <Spectators NSpec="0"/>\n  <Classes NClass="2">\n    <Class Name="Background" Index="0"/>\n    <Class Name="Signal" Index="1"/>\n  </Classes>\n  <Transformations NTransformations="1">\n    <Transform Name="Normalize">\n      <Selection>\n        <Input NInputs="34">\n          <Input Type="Variable" Label="TrackP" Expression="TrackP"/>\n          <Input Type="Variable" Label="TrackPt" Expression="TrackPt"/>\n          <Input Type="Variable" Label="TrackChi2PerDof" Expression="TrackChi2PerDof"/>\n          <Input Type="Variable" Label="TrackNumDof" Expression="TrackNumDof"/>\n          <Input Type="Variable" Label="TrackGhostProbability" Expression="TrackGhostProbability"/>\n          <Input Type="Variable" Label="TrackFitMatchChi2" Expression="TrackFitMatchChi2"/>\n          <Input Type="Variable" Label="TrackFitVeloChi2" Expression="TrackFitVeloChi2"/>\n          <Input Type="Variable" Label="TrackFitVeloNDoF" Expression="TrackFitVeloNDoF"/>\n          <Input Type="Variable" Label="TrackFitTChi2" Expression="TrackFitTChi2"/>\n          <Input Type="Variable" Label="TrackFitTNDoF" Expression="TrackFitTNDoF"/>\n          <Input Type="Variable" Label="RichUsedR1Gas" Expression="RichUsedR1Gas"/>\n          <Input Type="Variable" Label="RichUsedR2Gas" Expression="RichUsedR2Gas"/>\n          <Input Type="Variable" Label="RichAbovePiThres" Expression="RichAbovePiThres"/>\n          <Input Type="Variable" Label="RichAboveKaThres" Expression="RichAboveKaThres"/>\n          <Input Type="Variable" Label="RichAbovePrThres" Expression="RichAbovePrThres"/>\n          <Input Type="Variable" Label="RichDLLe" Expression="RichDLLe"/>\n          <Input Type="Variable" Label="RichDLLmu" Expression="RichDLLmu"/>\n          <Input Type="Variable" Label="RichDLLk" Expression="RichDLLk"/>\n          <Input Type="Variable" Label="RichDLLp" Expression="RichDLLp"/>\n          <Input Type="Variable" Label="RichDLLbt" Expression="RichDLLbt"/>\n          <Input Type="Variable" Label="MuonBkgLL" Expression="MuonBkgLL"/>\n          <Input Type="Variable" Label="MuonMuLL" Expression="MuonMuLL"/>\n          <Input Type="Variable" Label="MuonIsMuon" Expression="MuonIsMuon"/>\n          <Input Type="Variable" Label="MuonNShared" Expression="MuonNShared"/>\n          <Input Type="Variable" Label="InAccMuon" Expression="InAccMuon"/>\n          <Input Type="Variable" Label="MuonIsLooseMuon" Expression="MuonIsLooseMuon"/>\n          <Input Type="Variable" Label="EcalPIDe" Expression="EcalPIDe"/>\n          <Input Type="Variable" Label="EcalPIDmu" Expression="EcalPIDmu"/>\n          <Input Type="Variable" Label="HcalPIDe" Expression="HcalPIDe"/>\n          <Input Type="Variable" Label="HcalPIDmu" Expression="HcalPIDmu"/>\n          <Input Type="Variable" Label="CaloPrsE" Expression="CaloPrsE"/>\n          <Input Type="Variable" Label="PrsPIDe" Expression="PrsPIDe"/>\n          <Input Type="Variable" Label="InAccBrem" Expression="InAccBrem"/>\n          <Input Type="Variable" Label="BremPIDe" Expression="BremPIDe"/>\n        </Input>\n        <Output NOutputs="34">\n          <Output Type="Variable" Label="TrackP" Expression="TrackP"/>\n          <Output Type="Variable" Label="TrackPt" Expression="TrackPt"/>\n          <Output Type="Variable" Label="TrackChi2PerDof" Expression="TrackChi2PerDof"/>\n          <Output Type="Variable" Label="TrackNumDof" Expression="TrackNumDof"/>\n          <Output Type="Variable" Label="TrackGhostProbability" Expression="TrackGhostProbability"/>\n          <Output Type="Variable" Label="TrackFitMatchChi2" Expression="TrackFitMatchChi2"/>\n          <Output Type="Variable" Label="TrackFitVeloChi2" Expression="TrackFitVeloChi2"/>\n          <Output Type="Variable" Label="TrackFitVeloNDoF" Expression="TrackFitVeloNDoF"/>\n          <Output Type="Variable" Label="TrackFitTChi2" Expression="TrackFitTChi2"/>\n          <Output Type="Variable" Label="TrackFitTNDoF" Expression="TrackFitTNDoF"/>\n          <Output Type="Variable" Label="RichUsedR1Gas" Expression="RichUsedR1Gas"/>\n          <Output Type="Variable" Label="RichUsedR2Gas" Expression="RichUsedR2Gas"/>\n          <Output Type="Variable" Label="RichAbovePiThres" Expression="RichAbovePiThres"/>\n          <Output Type="Variable" Label="RichAboveKaThres" Expression="RichAboveKaThres"/>\n          <Output Type="Variable" Label="RichAbovePrThres" Expression="RichAbovePrThres"/>\n          <Output Type="Variable" Label="RichDLLe" Expression="RichDLLe"/>\n          <Output Type="Variable" Label="RichDLLmu" Expression="RichDLLmu"/>\n          <Output Type="Variable" Label="RichDLLk" Expression="RichDLLk"/>\n          <Output Type="Variable" Label="RichDLLp" Expression="RichDLLp"/>\n          <Output Type="Variable" Label="RichDLLbt" Expression="RichDLLbt"/>\n          <Output Type="Variable" Label="MuonBkgLL" Expression="MuonBkgLL"/>\n          <Output Type="Variable" Label="MuonMuLL" Expression="MuonMuLL"/>\n          <Output Type="Variable" Label="MuonIsMuon" Expression="MuonIsMuon"/>\n          <Output Type="Variable" Label="MuonNShared" Expression="MuonNShared"/>\n          <Output Type="Variable" Label="InAccMuon" Expression="InAccMuon"/>\n          <Output Type="Variable" Label="MuonIsLooseMuon" Expression="MuonIsLooseMuon"/>\n          <Output Type="Variable" Label="EcalPIDe" Expression="EcalPIDe"/>\n          <Output Type="Variable" Label="EcalPIDmu" Expression="EcalPIDmu"/>\n          <Output Type="Variable" Label="HcalPIDe" Expression="HcalPIDe"/>\n          <Output Type="Variable" Label="HcalPIDmu" Expression="HcalPIDmu"/>\n          <Output Type="Variable" Label="CaloPrsE" Expression="CaloPrsE"/>\n          <Output Type="Variable" Label="PrsPIDe" Expression="PrsPIDe"/>\n          <Output Type="Variable" Label="InAccBrem" Expression="InAccBrem"/>\n          <Output Type="Variable" Label="BremPIDe" Expression="BremPIDe"/>\n        </Output>\n      </Selection>\n      <Class ClassIndex="0">\n        <Ranges>\n          <Range Index="0" Min="1.1596700439453125e+03" Max="1.1355863750000000e+06"/>\n          <Range Index="1" Min="6.9049983024597168e+00" Max="6.8328992187500000e+04"/>\n          <Range Index="2" Min="1.2424941360950470e-01" Max="3.9991631507873535e+00"/>\n          <Range Index="3" Min="7.0000000000000000e+00" Max="4.9000000000000000e+01"/>\n          <Range Index="4" Min="1.5415940433740616e-03" Max="3.9998275041580200e-01"/>\n          <Range Index="5" Min="9.1069685295224190e-03" Max="1.2097052764892578e+02"/>\n          <Range Index="6" Min="1.9751145737245679e-04" Max="9.8146797180175781e+01"/>\n          <Range Index="7" Min="1.0000000000000000e+00" Max="2.0000000000000000e+01"/>\n          <Range Index="8" Min="1.4128909446299076e-02" Max="9.8015930175781250e+01"/>\n          <Range Index="9" Min="1.0000000000000000e+00" Max="2.7000000000000000e+01"/>\n          <Range Index="10" Min="0.0000000000000000e+00" Max="1.0000000000000000e+00"/>\n          <Range Index="11" Min="0.0000000000000000e+00" Max="1.0000000000000000e+00"/>\n          <Range Index="12" Min="0.0000000000000000e+00" Max="1.0000000000000000e+00"/>\n          <Range Index="13" Min="0.0000000000000000e+00" Max="1.0000000000000000e+00"/>\n          <Range Index="14" Min="0.0000000000000000e+00" Max="1.0000000000000000e+00"/>\n          <Range Index="15" Min="-9.9900000000000000e+02" Max="1.3117579650878906e+02"/>\n          <Range Index="16" Min="-9.9900000000000000e+02" Max="1.2487580108642578e+02"/>\n          <Range Index="17" Min="-9.9900000000000000e+02" Max="1.5869299316406250e+02"/>\n          <Range Index="18" Min="-9.9900000000000000e+02" Max="8.5176300048828125e+01"/>\n          <Range Index="19" Min="-9.9900000000000000e+02" Max="7.0496902465820312e+01"/>\n          <Range Index="20" Min="-9.9900000000000000e+02" Max="9.6000004559755325e-03"/>\n          <Range Index="21" Min="-9.9900000000000000e+02" Max="0.0000000000000000e+00"/>\n          <Range Index="22" Min="0.0000000000000000e+00" Max="1.0000000000000000e+00"/>\n          <Range Index="23" Min="0.0000000000000000e+00" Max="3.3000000000000000e+01"/>\n          <Range Index="24" Min="0.0000000000000000e+00" Max="1.0000000000000000e+00"/>\n          <Range Index="25" Min="0.0000000000000000e+00" Max="1.0000000000000000e+00"/>\n          <Range Index="26" Min="-9.9900000000000000e+02" Max="4.0547904968261719e+00"/>\n          <Range Index="27" Min="-9.9900000000000000e+02" Max="2.1529760360717773e+00"/>\n          <Range Index="28" Min="-9.9900000000000000e+02" Max="2.7225046157836914e+00"/>\n          <Range Index="29" Min="-9.9900000000000000e+02" Max="2.8733890056610107e+00"/>\n          <Range Index="30" Min="-9.9900000000000000e+02" Max="2.8057998657226562e+02"/>\n          <Range Index="31" Min="-9.9900000000000000e+02" Max="3.3954746723175049e+00"/>\n          <Range Index="32" Min="0.0000000000000000e+00" Max="1.0000000000000000e+00"/>\n          <Range Index="33" Min="-9.9900000000000000e+02" Max="4.7914838790893555e+00"/>\n        </Ranges>\n      </Class>\n      <Class ClassIndex="1">\n        <Ranges>\n          <Range Index="0" Min="1.2436999511718750e+03" Max="1.0630282500000000e+06"/>\n          <Range Index="1" Min="3.3165794372558594e+01" Max="1.7145919921875000e+04"/>\n          <Range Index="2" Min="3.1504279375076294e-01" Max="3.9694437980651855e+00"/>\n          <Range Index="3" Min="9.0000000000000000e+00" Max="4.4000000000000000e+01"/>\n          <Range Index="4" Min="1.6847355291247368e-03" Max="3.9522334933280945e-01"/>\n          <Range Index="5" Min="1.2679569423198700e-01" Max="9.4505325317382812e+01"/>\n          <Range Index="6" Min="3.8306734059005976e-03" Max="4.7053634643554688e+01"/>\n          <Range Index="7" Min="1.0000000000000000e+00" Max="1.8000000000000000e+01"/>\n          <Range Index="8" Min="1.2767636775970459e-01" Max="7.8493110656738281e+01"/>\n          <Range Index="9" Min="1.0000000000000000e+00" Max="2.6000000000000000e+01"/>\n          <Range Index="10" Min="0.0000000000000000e+00" Max="1.0000000000000000e+00"/>\n          <Range Index="11" Min="0.0000000000000000e+00" Max="1.0000000000000000e+00"/>\n          <Range Index="12" Min="0.0000000000000000e+00" Max="1.0000000000000000e+00"/>\n          <Range Index="13" Min="0.0000000000000000e+00" Max="1.0000000000000000e+00"/>\n          <Range Index="14" Min="0.0000000000000000e+00" Max="1.0000000000000000e+00"/>\n          <Range Index="15" Min="-9.9900000000000000e+02" Max="6.2736801147460938e+01"/>\n          <Range Index="16" Min="-9.9900000000000000e+02" Max="3.5318901062011719e+01"/>\n          <Range Index="17" Min="-9.9900000000000000e+02" Max="5.5114498138427734e+01"/>\n          <Range Index="18" Min="-9.9900000000000000e+02" Max="1.2949780273437500e+02"/>\n          <Range Index="19" Min="-9.9900000000000000e+02" Max="7.3543197631835938e+01"/>\n          <Range Index="20" Min="-9.9900000000000000e+02" Max="1.2000000569969416e-03"/>\n          <Range Index="21" Min="-9.9900000000000000e+02" Max="0.0000000000000000e+00"/>\n          <Range Index="22" Min="0.0000000000000000e+00" Max="1.0000000000000000e+00"/>\n          <Range Index="23" Min="0.0000000000000000e+00" Max="2.1000000000000000e+01"/>\n          <Range Index="24" Min="0.0000000000000000e+00" Max="1.0000000000000000e+00"/>\n          <Range Index="25" Min="0.0000000000000000e+00" Max="1.0000000000000000e+00"/>\n          <Range Index="26" Min="-9.9900000000000000e+02" Max="3.9375019073486328e+00"/>\n          <Range Index="27" Min="-9.9900000000000000e+02" Max="2.1529760360717773e+00"/>\n          <Range Index="28" Min="-9.9900000000000000e+02" Max="2.0164070129394531e+00"/>\n          <Range Index="29" Min="-9.9900000000000000e+02" Max="2.8733890056610107e+00"/>\n          <Range Index="30" Min="-9.9900000000000000e+02" Max="1.9857275390625000e+02"/>\n          <Range Index="31" Min="-9.9900000000000000e+02" Max="3.1131386756896973e+00"/>\n          <Range Index="32" Min="0.0000000000000000e+00" Max="1.0000000000000000e+00"/>\n          <Range Index="33" Min="-9.9900000000000000e+02" Max="4.4935369491577148e+00"/>\n        </Ranges>\n      </Class>\n      <Class ClassIndex="2">\n        <Ranges>\n          <Range Index="0" Min="1.1596700439453125e+03" Max="1.1355863750000000e+06"/>\n          <Range Index="1" Min="6.9049983024597168e+00" Max="6.8328992187500000e+04"/>\n          <Range Index="2" Min="1.2424941360950470e-01" Max="3.9991631507873535e+00"/>\n          <Range Index="3" Min="7.0000000000000000e+00" Max="4.9000000000000000e+01"/>\n          <Range Index="4" Min="1.5415940433740616e-03" Max="3.9998275041580200e-01"/>\n          <Range Index="5" Min="9.1069685295224190e-03" Max="1.2097052764892578e+02"/>\n          <Range Index="6" Min="1.9751145737245679e-04" Max="9.8146797180175781e+01"/>\n          <Range Index="7" Min="1.0000000000000000e+00" Max="2.0000000000000000e+01"/>\n          <Range Index="8" Min="1.4128909446299076e-02" Max="9.8015930175781250e+01"/>\n          <Range Index="9" Min="1.0000000000000000e+00" Max="2.7000000000000000e+01"/>\n          <Range Index="10" Min="0.0000000000000000e+00" Max="1.0000000000000000e+00"/>\n          <Range Index="11" Min="0.0000000000000000e+00" Max="1.0000000000000000e+00"/>\n          <Range Index="12" Min="0.0000000000000000e+00" Max="1.0000000000000000e+00"/>\n          <Range Index="13" Min="0.0000000000000000e+00" Max="1.0000000000000000e+00"/>\n          <Range Index="14" Min="0.0000000000000000e+00" Max="1.0000000000000000e+00"/>\n          <Range Index="15" Min="-9.9900000000000000e+02" Max="1.3117579650878906e+02"/>\n          <Range Index="16" Min="-9.9900000000000000e+02" Max="1.2487580108642578e+02"/>\n          <Range Index="17" Min="-9.9900000000000000e+02" Max="1.5869299316406250e+02"/>\n          <Range Index="18" Min="-9.9900000000000000e+02" Max="1.2949780273437500e+02"/>\n          <Range Index="19" Min="-9.9900000000000000e+02" Max="7.3543197631835938e+01"/>\n          <Range Index="20" Min="-9.9900000000000000e+02" Max="9.6000004559755325e-03"/>\n          <Range Index="21" Min="-9.9900000000000000e+02" Max="0.0000000000000000e+00"/>\n          <Range Index="22" Min="0.0000000000000000e+00" Max="1.0000000000000000e+00"/>\n          <Range Index="23" Min="0.0000000000000000e+00" Max="3.3000000000000000e+01"/>\n          <Range Index="24" Min="0.0000000000000000e+00" Max="1.0000000000000000e+00"/>\n          <Range Index="25" Min="0.0000000000000000e+00" Max="1.0000000000000000e+00"/>\n          <Range Index="26" Min="-9.9900000000000000e+02" Max="4.0547904968261719e+00"/>\n          <Range Index="27" Min="-9.9900000000000000e+02" Max="2.1529760360717773e+00"/>\n          <Range Index="28" Min="-9.9900000000000000e+02" Max="2.7225046157836914e+00"/>\n          <Range Index="29" Min="-9.9900000000000000e+02" Max="2.8733890056610107e+00"/>\n          <Range Index="30" Min="-9.9900000000000000e+02" Max="2.8057998657226562e+02"/>\n          <Range Index="31" Min="-9.9900000000000000e+02" Max="3.3954746723175049e+00"/>\n          <Range Index="32" Min="0.0000000000000000e+00" Max="1.0000000000000000e+00"/>\n          <Range Index="33" Min="-9.9900000000000000e+02" Max="4.7914838790893555e+00"/>\n        </Ranges>\n      </Class>\n    </Transform>\n  </Transformations>\n  <MVAPdfs/>\n  <Weights NTrees="50" AnalysisType="0">\n    <BinaryTree type="DecisionTree" boostWeight="7.3025897821703134e-01" itree="0">\n      <Node pos="s" depth="0" NCoef="0" IVar="18" Cut="7.6082575321197510e-01" cType="0" res="-9.9000000000000000e+01" rms="0.0000000000000000e+00" purity="5.0000000000000000e-01" nType="0">\n        <Node pos="l" depth="1" NCoef="0" IVar="18" Cut="7.7847880125045776e-01" cType="0" res="-9.9000000000000000e+01" rms="0.0000000000000000e+00" purity="6.6991555690765381e-01" nType="0">\n          <Node pos="l" depth="2" NCoef="0" IVar="-1" Cut="7.8646534681320190e-01" cType="0" res="-9.9000000000000000e+01" rms="0.0000000000000000e+00" purity="8.4226417541503906e-01" nType="1"/>\n          <Node pos="r" depth="2" NCoef="0" IVar="18" Cut="7.7175408601760864e-01" cType="0" res="-9.9000000000000000e+01" rms="0.0000000000000000e+00" purity="3.6531874537467957e-01" nType="0">\n            <Node pos="l" depth="3" NCoef="0" IVar="-1" Cut="0.0000000000000000e+00" cType="1" res="-9.9000000000000000e+01" rms="0.0000000000000000e+00" purity="5.0691956281661987e-01" nType="1"/>\n            <Node pos="r" depth="3" NCoef="0" IVar="-1" Cut="0.0000000000000000e+00" cType="1" res="-9.9000000000000000e+01" rms="0.0000000000000000e+00" purity="3.0075988173484802e-01" nType="-1"/>\n          </Node>\n        </Node>\n        <Node pos="r" depth="1" NCoef="0" IVar="-1" Cut="-9.0476191043853760e-01" cType="1" res="-9.9000000000000000e+01" rms="0.0000000000000000e+00" purity="8.3488672971725464e-02" nType="-1"/>\n      </Node>\n    </BinaryTree>\n    <BinaryTree type="DecisionTree" boostWeight="4.3659825832617932e-01" itree="1">\n      <Node pos="s" depth="0" NCoef="0" IVar="18" Cut="7.6082575321197510e-01" cType="0" res="-9.9000000000000000e+01" rms="0.0000000000000000e+00" purity="4.8480960726737976e-01" nType="0">\n        <Node pos="l" depth="1" NCoef="0" IVar="18" Cut="7.8730493783950806e-01" cType="0" res="-9.9000000000000000e+01" rms="0.0000000000000000e+00" purity="6.0080951452255249e-01" nType="0">\n          <Node pos="l" depth="2" NCoef="0" IVar="-1" Cut="7.5943189859390259e-01" cType="1" res="-9.9000000000000000e+01" rms="0.0000000000000000e+00" purity="7.7339416742324829e-01" nType="1"/>\n          <Node pos="r" depth="2" NCoef="0" IVar="-1" Cut="-4.2792600393295288e-01" cType="1" res="-9.9000000000000000e+01" rms="0.0000000000000000e+00" purity="4.4668394327163696e-01" nType="-1"/>\n        </Node>\n        <Node pos="r" depth="1" NCoef="0" IVar="-1" Cut="-9.0476191043853760e-01" cType="1" res="-9.9000000000000000e+01" rms="0.0000000000000000e+00" purity="1.5901109576225281e-01" nType="-1"/>\n      </Node>\n    </BinaryTree>\n    <BinaryTree type="DecisionTree" boostWeight="3.8956625032088926e-01" itree="2">\n      <Node pos="s" depth="0" NCoef="0" IVar="18" Cut="7.6082575321197510e-01" cType="0" res="-9.9000000000000000e+01" rms="0.0000000000000000e+00" purity="5.1919275522232056e-01" nType="0">\n        <Node pos="l" depth="1" NCoef="0" IVar="4" Cut="-4.2831799387931824e-01" cType="1" res="-9.9000000000000000e+01" rms="0.0000000000000000e+00" purity="6.1462146043777466e-01" nType="0">\n          <Node pos="l" depth="2" NCoef="0" IVar="-1" Cut="7.7847880125045776e-01" cType="0" res="-9.9000000000000000e+01" rms="0.0000000000000000e+00" purity="6.5208196640014648e-01" nType="1"/>\n          <Node pos="r" depth="2" NCoef="0" IVar="-1" Cut="0.0000000000000000e+00" cType="1" res="-9.9000000000000000e+01" rms="0.0000000000000000e+00" purity="3.0444395542144775e-01" nType="-1"/>\n        </Node>\n        <Node pos="r" depth="1" NCoef="0" IVar="-1" Cut="-9.0476191043853760e-01" cType="1" res="-9.9000000000000000e+01" rms="0.0000000000000000e+00" purity="2.2635541856288910e-01" nType="-1"/>\n      </Node>\n    </BinaryTree>\n    <BinaryTree type="DecisionTree" boostWeight="1.8532275798004422e-01" itree="3">\n      <Node pos="s" depth="0" NCoef="0" IVar="17" Cut="6.9447720050811768e-01" cType="0" res="-9.9000000000000000e+01" rms="0.0000000000000000e+00" purity="4.8484393954277039e-01" nType="0">\n        <Node pos="l" depth="1" NCoef="0" IVar="18" Cut="7.9105168581008911e-01" cType="0" res="-9.9000000000000000e+01" rms="0.0000000000000000e+00" purity="5.2511370182037354e-01" nType="0">\n          <Node pos="l" depth="2" NCoef="0" IVar="-1" Cut="-9.0476191043853760e-01" cType="0" res="-9.9000000000000000e+01" rms="0.0000000000000000e+00" purity="6.2999612092971802e-01" nType="1"/>\n          <Node pos="r" depth="2" NCoef="0" IVar="-1" Cut="-2.3787558078765869e-01" cType="1" res="-9.9000000000000000e+01" rms="0.0000000000000000e+00" purity="4.7213563323020935e-01" nType="-1"/>\n        </Node>\n        <Node pos="r" depth="1" NCoef="0" IVar="-1" Cut="-5.4887217283248901e-01" cType="1" res="-9.9000000000000000e+01" rms="0.0000000000000000e+00" purity="1.9961205124855042e-01" nType="-1"/>\n      </Node>\n    </BinaryTree>\n    <BinaryTree type="DecisionTree" boostWeight="2.1179185292679228e-01" itree="4">\n      <Node pos="s" depth="0" NCoef="0" IVar="17" Cut="6.9447720050811768e-01" cType="0" res="-9.9000000000000000e+01" rms="0.0000000000000000e+00" purity="5.0393688678741455e-01" nType="0">\n        <Node pos="l" depth="1" NCoef="0" IVar="4" Cut="-1.4265438914299011e-01" cType="1" res="-9.9000000000000000e+01" rms="0.0000000000000000e+00" purity="5.4077190160751343e-01" nType="0">\n          <Node pos="l" depth="2" NCoef="0" IVar="17" Cut="7.0792907476425171e-01" cType="0" res="-9.9000000000000000e+01" rms="0.0000000000000000e+00" purity="5.5632007122039795e-01" nType="0">\n            <Node pos="l" depth="3" NCoef="0" IVar="-1" Cut="0.0000000000000000e+00" cType="1" res="-9.9000000000000000e+01" rms="0.0000000000000000e+00" purity="5.7016205787658691e-01" nType="1"/>\n            <Node pos="r" depth="3" NCoef="0" IVar="-1" Cut="0.0000000000000000e+00" cType="1" res="-9.9000000000000000e+01" rms="0.0000000000000000e+00" purity="3.4828516840934753e-01" nType="-1"/>\n          </Node>\n          <Node pos="r" depth="2" NCoef="0" IVar="-1" Cut="0.0000000000000000e+00" cType="1" res="-9.9000000000000000e+01" rms="0.0000000000000000e+00" purity="3.2082024216651917e-01" nType="-1"/>\n        </Node>\n        <Node pos="r" depth="1" NCoef="0" IVar="-1" Cut="8.1632688641548157e-02" cType="1" res="-9.9000000000000000e+01" rms="0.0000000000000000e+00" purity="2.3087127506732941e-01" nType="-1"/>\n      </Node>\n    </BinaryTree>\n    <BinaryTree type="DecisionTree" boostWeight="1.3737368743853121e-01" itree="5">\n      <Node pos="s" depth="0" NCoef="0" IVar="17" Cut="6.9447720050811768e-01" cType="0" res="-9.9000000000000000e+01" rms="0.0000000000000000e+00" purity="4.7472363710403442e-01" nType="0">\n        <Node pos="l" depth="1" NCoef="0" IVar="14" Cut="-9.0476191043853760e-01" cType="0" res="-9.9000000000000000e+01" rms="0.0000000000000000e+00" purity="5.0115376710891724e-01" nType="0">\n          <Node pos="l" depth="2" NCoef="0" IVar="-1" Cut="-3.2966963946819305e-02" cType="1" res="-9.9000000000000000e+01" rms="0.0000000000000000e+00" purity="6.1258304119110107e-01" nType="1"/>\n          <Node pos="r" depth="2" NCoef="0" IVar="1" Cut="-9.9244803190231323e-01" cType="0" res="-9.9000000000000000e+01" rms="0.0000000000000000e+00" purity="4.7641208767890930e-01" nType="0">\n            <Node pos="l" depth="3" NCoef="0" IVar="-1" Cut="0.0000000000000000e+00" cType="1" res="-9.9000000000000000e+01" rms="0.0000000000000000e+00" purity="5.0531613826751709e-01" nType="1"/>\n            <Node pos="r" depth="3" NCoef="0" IVar="-1" Cut="0.0000000000000000e+00" cType="1" res="-9.9000000000000000e+01" rms="0.0000000000000000e+00" purity="3.8479021191596985e-01" nType="-1"/>\n          </Node>\n        </Node>\n        <Node pos="r" depth="1" NCoef="0" IVar="16" Cut="7.3057049512863159e-01" cType="1" res="-9.9000000000000000e+01" rms="0.0000000000000000e+00" purity="2.7059495449066162e-01" nType="0">\n          <Node pos="l" depth="2" NCoef="0" IVar="-1" Cut="0.0000000000000000e+00" cType="1" res="-9.9000000000000000e+01" rms="0.0000000000000000e+00" purity="5.0897538661956787e-01" nType="1"/>\n          <Node pos="r" depth="2" NCoef="0" IVar="-1" Cut="0.0000000000000000e+00" cType="1" res="-9.9000000000000000e+01" rms="0.0000000000000000e+00" purity="8.3765298128128052e-02" nType="-1"/>\n        </Node>\n      </Node>\n    </BinaryTree>\n    <BinaryTree type="DecisionTree" boostWeight="2.0387509478110910e-01" itree="6">\n      <Node pos="s" depth="0" NCoef="0" IVar="17" Cut="6.9447720050811768e-01" cType="0" res="-9.9000000000000000e+01" rms="0.0000000000000000e+00" purity="4.5634809136390686e-01" nType="0">\n        <Node pos="l" depth="1" NCoef="0" IVar="17" Cut="7.6172071695327759e-01" cType="1" res="-9.9000000000000000e+01" rms="0.0000000000000000e+00" purity="4.8019635677337646e-01" nType="0">\n          <Node pos="l" depth="2" NCoef="0" IVar="13" Cut="-9.0476191043853760e-01" cType="0" res="-9.9000000000000000e+01" rms="0.0000000000000000e+00" purity="5.0053501129150391e-01" nType="0">\n            <Node pos="l" depth="3" NCoef="0" IVar="-1" Cut="0.0000000000000000e+00" cType="1" res="-9.9000000000000000e+01" rms="0.0000000000000000e+00" purity="6.0571634769439697e-01" nType="1"/>\n            <Node pos="r" depth="3" NCoef="0" IVar="-1" Cut="0.0000000000000000e+00" cType="1" res="-9.9000000000000000e+01" rms="0.0000000000000000e+00" purity="4.4139483571052551e-01" nType="-1"/>\n          </Node>\n          <Node pos="r" depth="2" NCoef="0" IVar="-1" Cut="0.0000000000000000e+00" cType="1" res="-9.9000000000000000e+01" rms="0.0000000000000000e+00" purity="3.7184745073318481e-01" nType="-1"/>\n        </Node>\n        <Node pos="r" depth="1" NCoef="0" IVar="-1" Cut="7.3057049512863159e-01" cType="1" res="-9.9000000000000000e+01" rms="0.0000000000000000e+00" purity="2.6717442274093628e-01" nType="-1"/>\n      </Node>\n    </BinaryTree>\n    <BinaryTree type="DecisionTree" boostWeight="1.3250621969413540e-01" itree="7">\n      <Node pos="s" depth="0" NCoef="0" IVar="17" Cut="6.9447720050811768e-01" cType="0" res="-9.9000000000000000e+01" rms="0.0000000000000000e+00" purity="4.7938320040702820e-01" nType="0">\n        <Node pos="l" depth="1" NCoef="0" IVar="18" Cut="8.0828768014907837e-01" cType="0" res="-9.9000000000000000e+01" rms="0.0000000000000000e+00" purity="5.0021004676818848e-01" nType="0">\n          <Node pos="l" depth="2" NCoef="0" IVar="-1" Cut="0.0000000000000000e+00" cType="1" res="-9.9000000000000000e+01" rms="0.0000000000000000e+00" purity="5.8058929443359375e-01" nType="1"/>\n          <Node pos="r" depth="2" NCoef="0" IVar="12" Cut="-9.0476191043853760e-01" cType="1" res="-9.9000000000000000e+01" rms="0.0000000000000000e+00" purity="4.8361268639564514e-01" nType="0">\n            <Node pos="l" depth="3" NCoef="0" IVar="-1" Cut="0.0000000000000000e+00" cType="1" res="-9.9000000000000000e+01" rms="0.0000000000000000e+00" purity="5.8888053894042969e-01" nType="1"/>\n            <Node pos="r" depth="3" NCoef="0" IVar="-1" Cut="0.0000000000000000e+00" cType="1" res="-9.9000000000000000e+01" rms="0.0000000000000000e+00" purity="4.6685469150543213e-01" nType="-1"/>\n          </Node>\n        </Node>\n        <Node pos="r" depth="1" NCoef="0" IVar="16" Cut="7.3057049512863159e-01" cType="1" res="-9.9000000000000000e+01" rms="0.0000000000000000e+00" purity="3.0892905592918396e-01" nType="0">\n          <Node pos="l" depth="2" NCoef="0" IVar="-1" Cut="0.0000000000000000e+00" cType="1" res="-9.9000000000000000e+01" rms="0.0000000000000000e+00" purity="5.2557933330535889e-01" nType="1"/>\n          <Node pos="r" depth="2" NCoef="0" IVar="-1" Cut="0.0000000000000000e+00" cType="1" res="-9.9000000000000000e+01" rms="0.0000000000000000e+00" purity="1.1395087838172913e-01" nType="-1"/>\n        </Node>\n      </Node>\n    </BinaryTree>\n    <BinaryTree type="DecisionTree" boostWeight="1.2485182642749325e-01" itree="8">\n      <Node pos="s" depth="0" NCoef="0" IVar="17" Cut="6.9447720050811768e-01" cType="0" res="-9.9000000000000000e+01" rms="0.0000000000000000e+00" purity="4.9218109250068665e-01" nType="0">\n        <Node pos="l" depth="1" NCoef="0" IVar="17" Cut="7.6172071695327759e-01" cType="1" res="-9.9000000000000000e+01" rms="0.0000000000000000e+00" purity="5.1452672481536865e-01" nType="0">\n          <Node pos="l" depth="2" NCoef="0" IVar="-1" Cut="-9.0476191043853760e-01" cType="0" res="-9.9000000000000000e+01" rms="0.0000000000000000e+00" purity="5.3602719306945801e-01" nType="1"/>\n          <Node pos="r" depth="2" NCoef="0" IVar="-1" Cut="0.0000000000000000e+00" cType="1" res="-9.9000000000000000e+01" rms="0.0000000000000000e+00" purity="3.9874851703643799e-01" nType="-1"/>\n        </Node>\n        <Node pos="r" depth="1" NCoef="0" IVar="-1" Cut="7.3057049512863159e-01" cType="1" res="-9.9000000000000000e+01" rms="0.0000000000000000e+00" purity="3.0511891841888428e-01" nType="-1"/>\n      </Node>\n    </BinaryTree>\n    <BinaryTree type="DecisionTree" boostWeight="1.2629583216569623e-01" itree="9">\n      <Node pos="s" depth="0" NCoef="0" IVar="17" Cut="6.9447720050811768e-01" cType="0" res="-9.9000000000000000e+01" rms="0.0000000000000000e+00" purity="4.7619950771331787e-01" nType="0">\n        <Node pos="l" depth="1" NCoef="0" IVar="4" Cut="-7.1398156881332397e-01" cType="1" res="-9.9000000000000000e+01" rms="0.0000000000000000e+00" purity="4.9307873845100403e-01" nType="0">\n          <Node pos="l" depth="2" NCoef="0" IVar="18" Cut="7.7889174222946167e-01" cType="0" res="-9.9000000000000000e+01" rms="0.0000000000000000e+00" purity="5.0960189104080200e-01" nType="0">\n            <Node pos="l" depth="3" NCoef="0" IVar="-1" Cut="0.0000000000000000e+00" cType="1" res="-9.9000000000000000e+01" rms="0.0000000000000000e+00" purity="5.4958260059356689e-01" nType="1"/>\n            <Node pos="r" depth="3" NCoef="0" IVar="-1" Cut="0.0000000000000000e+00" cType="1" res="-9.9000000000000000e+01" rms="0.0000000000000000e+00" purity="4.7045946121215820e-01" nType="-1"/>\n          </Node>\n          <Node pos="r" depth="2" NCoef="0" IVar="-1" Cut="7.5302273035049438e-01" cType="1" res="-9.9000000000000000e+01" rms="0.0000000000000000e+00" purity="4.1112497448921204e-01" nType="-1"/>\n        </Node>\n        <Node pos="r" depth="1" NCoef="0" IVar="16" Cut="7.3057049512863159e-01" cType="1" res="-9.9000000000000000e+01" rms="0.0000000000000000e+00" purity="3.3221426606178284e-01" nType="0">\n          <Node pos="l" depth="2" NCoef="0" IVar="-1" Cut="0.0000000000000000e+00" cType="1" res="-9.9000000000000000e+01" rms="0.0000000000000000e+00" purity="5.2367037534713745e-01" nType="1"/>\n          <Node pos="r" depth="2" NCoef="0" IVar="-1" Cut="0.0000000000000000e+00" cType="1" res="-9.9000000000000000e+01" rms="0.0000000000000000e+00" purity="1.4262618124485016e-01" nType="-1"/>\n        </Node>\n      </Node>\n    </BinaryTree>\n    <BinaryTree type="DecisionTree" boostWeight="9.9115490967540520e-02" itree="10">\n      <Node pos="s" depth="0" NCoef="0" IVar="17" Cut="6.9447720050811768e-01" cType="0" res="-9.9000000000000000e+01" rms="0.0000000000000000e+00" purity="4.8104995489120483e-01" nType="0">\n        <Node pos="l" depth="1" NCoef="0" IVar="17" Cut="7.6172071695327759e-01" cType="1" res="-9.9000000000000000e+01" rms="0.0000000000000000e+00" purity="4.9863922595977783e-01" nType="0">\n          <Node pos="l" depth="2" NCoef="0" IVar="14" Cut="-9.0476191043853760e-01" cType="0" res="-9.9000000000000000e+01" rms="0.0000000000000000e+00" purity="5.1605689525604248e-01" nType="0">\n            <Node pos="l" depth="3" NCoef="0" IVar="-1" Cut="0.0000000000000000e+00" cType="1" res="-9.9000000000000000e+01" rms="0.0000000000000000e+00" purity="6.1698579788208008e-01" nType="1"/>\n            <Node pos="r" depth="3" NCoef="0" IVar="-1" Cut="0.0000000000000000e+00" cType="1" res="-9.9000000000000000e+01" rms="0.0000000000000000e+00" purity="4.9506285786628723e-01" nType="-1"/>\n          </Node>\n          <Node pos="r" depth="2" NCoef="0" IVar="-1" Cut="0.0000000000000000e+00" cType="1" res="-9.9000000000000000e+01" rms="0.0000000000000000e+00" purity="4.0533310174942017e-01" nType="-1"/>\n        </Node>\n        <Node pos="r" depth="1" NCoef="0" IVar="-1" Cut="7.3057049512863159e-01" cType="1" res="-9.9000000000000000e+01" rms="0.0000000000000000e+00" purity="3.2822328805923462e-01" nType="-1"/>\n      </Node>\n    </BinaryTree>\n    <BinaryTree type="DecisionTree" boostWeight="1.2319560958833656e-01" itree="11">\n      <Node pos="s" depth="0" NCoef="0" IVar="17" Cut="6.9447720050811768e-01" cType="0" res="-9.9000000000000000e+01" rms="0.0000000000000000e+00" purity="4.9936190247535706e-01" nType="0">\n        <Node pos="l" depth="1" NCoef="0" IVar="17" Cut="7.6172071695327759e-01" cType="1" res="-9.9000000000000000e+01" rms="0.0000000000000000e+00" purity="5.1626962423324585e-01" nType="0">\n          <Node pos="l" depth="2" NCoef="0" IVar="-1" Cut="-7.1315377950668335e-01" cType="1" res="-9.9000000000000000e+01" rms="0.0000000000000000e+00" purity="5.3236675262451172e-01" nType="1"/>\n          <Node pos="r" depth="2" NCoef="0" IVar="-1" Cut="0.0000000000000000e+00" cType="1" res="-9.9000000000000000e+01" rms="0.0000000000000000e+00" purity="4.2943012714385986e-01" nType="-1"/>\n        </Node>\n        <Node pos="r" depth="1" NCoef="0" IVar="-1" Cut="0.0000000000000000e+00" cType="1" res="-9.9000000000000000e+01" rms="0.0000000000000000e+00" purity="3.5043755173683167e-01" nType="-1"/>\n      </Node>\n    </BinaryTree>\n    <BinaryTree type="DecisionTree" boostWeight="1.3094979891899353e-01" itree="12">\n      <Node pos="s" depth="0" NCoef="0" IVar="12" Cut="-9.0476191043853760e-01" cType="1" res="-9.9000000000000000e+01" rms="0.0000000000000000e+00" purity="4.8817318677902222e-01" nType="0">\n        <Node pos="l" depth="1" NCoef="0" IVar="-1" Cut="-9.9356311559677124e-01" cType="0" res="-9.9000000000000000e+01" rms="0.0000000000000000e+00" purity="6.0465788841247559e-01" nType="1"/>\n        <Node pos="r" depth="1" NCoef="0" IVar="18" Cut="7.4168831110000610e-01" cType="0" res="-9.9000000000000000e+01" rms="0.0000000000000000e+00" purity="4.6865573525428772e-01" nType="0">\n          <Node pos="l" depth="2" NCoef="0" IVar="18" Cut="8.0985093116760254e-01" cType="0" res="-9.9000000000000000e+01" rms="0.0000000000000000e+00" purity="4.9857243895530701e-01" nType="0">\n            <Node pos="l" depth="3" NCoef="0" IVar="-1" Cut="0.0000000000000000e+00" cType="1" res="-9.9000000000000000e+01" rms="0.0000000000000000e+00" purity="5.8301895856857300e-01" nType="1"/>\n            <Node pos="r" depth="3" NCoef="0" IVar="-1" Cut="0.0000000000000000e+00" cType="1" res="-9.9000000000000000e+01" rms="0.0000000000000000e+00" purity="4.8024585843086243e-01" nType="-1"/>\n          </Node>\n          <Node pos="r" depth="2" NCoef="0" IVar="-1" Cut="0.0000000000000000e+00" cType="1" res="-9.9000000000000000e+01" rms="0.0000000000000000e+00" purity="1.4091680943965912e-01" nType="-1"/>\n        </Node>\n      </Node>\n    </BinaryTree>\n    <BinaryTree type="DecisionTree" boostWeight="9.5881116594790067e-02" itree="13">\n      <Node pos="s" depth="0" NCoef="0" IVar="7" Cut="-3.6842104792594910e-01" cType="1" res="-9.9000000000000000e+01" rms="0.0000000000000000e+00" purity="5.0235068798065186e-01" nType="0">\n        <Node pos="l" depth="1" NCoef="0" IVar="4" Cut="-2.3809523880481720e-01" cType="1" res="-9.9000000000000000e+01" rms="0.0000000000000000e+00" purity="5.2882730960845947e-01" nType="0">\n          <Node pos="l" depth="2" NCoef="0" IVar="-1" Cut="4.9886669963598251e-02" cType="1" res="-9.9000000000000000e+01" rms="0.0000000000000000e+00" purity="5.3751599788665771e-01" nType="1"/>\n          <Node pos="r" depth="2" NCoef="0" IVar="-1" Cut="0.0000000000000000e+00" cType="1" res="-9.9000000000000000e+01" rms="0.0000000000000000e+00" purity="4.2870390415191650e-01" nType="-1"/>\n        </Node>\n        <Node pos="r" depth="1" NCoef="0" IVar="18" Cut="7.7010387182235718e-01" cType="0" res="-9.9000000000000000e+01" rms="0.0000000000000000e+00" purity="4.3244957923889160e-01" nType="0">\n          <Node pos="l" depth="2" NCoef="0" IVar="7" Cut="-1.5288220345973969e-01" cType="1" res="-9.9000000000000000e+01" rms="0.0000000000000000e+00" purity="4.7234067320823669e-01" nType="0">\n            <Node pos="l" depth="3" NCoef="0" IVar="-1" Cut="0.0000000000000000e+00" cType="1" res="-9.9000000000000000e+01" rms="0.0000000000000000e+00" purity="5.0030273199081421e-01" nType="1"/>\n            <Node pos="r" depth="3" NCoef="0" IVar="-1" Cut="0.0000000000000000e+00" cType="1" res="-9.9000000000000000e+01" rms="0.0000000000000000e+00" purity="4.3715435266494751e-01" nType="-1"/>\n          </Node>\n          <Node pos="r" depth="2" NCoef="0" IVar="-1" Cut="0.0000000000000000e+00" cType="1" res="-9.9000000000000000e+01" rms="0.0000000000000000e+00" purity="3.0274048447608948e-01" nType="-1"/>\n        </Node>\n      </Node>\n    </BinaryTree>\n    <BinaryTree type="DecisionTree" boostWeight="8.8868865538411890e-02" itree="14">\n      <Node pos="s" depth="0" NCoef="0" IVar="17" Cut="6.9447720050811768e-01" cType="0" res="-9.9000000000000000e+01" rms="0.0000000000000000e+00" purity="4.8867315053939819e-01" nType="0">\n        <Node pos="l" depth="1" NCoef="0" IVar="17" Cut="7.4827265739440918e-01" cType="1" res="-9.9000000000000000e+01" rms="0.0000000000000000e+00" purity="5.0173503160476685e-01" nType="0">\n          <Node pos="l" depth="2" NCoef="0" IVar="18" Cut="7.8375089168548584e-01" cType="0" res="-9.9000000000000000e+01" rms="0.0000000000000000e+00" purity="5.2208793163299561e-01" nType="0">\n            <Node pos="l" depth="3" NCoef="0" IVar="-1" Cut="0.0000000000000000e+00" cType="1" res="-9.9000000000000000e+01" rms="0.0000000000000000e+00" purity="6.2120831012725830e-01" nType="1"/>\n            <Node pos="r" depth="3" NCoef="0" IVar="-1" Cut="0.0000000000000000e+00" cType="1" res="-9.9000000000000000e+01" rms="0.0000000000000000e+00" purity="4.9620148539543152e-01" nType="-1"/>\n          </Node>\n          <Node pos="r" depth="2" NCoef="0" IVar="-1" Cut="-6.8498504161834717e-01" cType="0" res="-9.9000000000000000e+01" rms="0.0000000000000000e+00" purity="4.4727379083633423e-01" nType="-1"/>\n        </Node>\n        <Node pos="r" depth="1" NCoef="0" IVar="-1" Cut="0.0000000000000000e+00" cType="1" res="-9.9000000000000000e+01" rms="0.0000000000000000e+00" purity="3.6735722422599792e-01" nType="-1"/>\n      </Node>\n    </BinaryTree>\n    <BinaryTree type="DecisionTree" boostWeight="9.9741726479640844e-02" itree="15">\n      <Node pos="s" depth="0" NCoef="0" IVar="17" Cut="6.9447720050811768e-01" cType="0" res="-9.9000000000000000e+01" rms="0.0000000000000000e+00" purity="5.0485163927078247e-01" nType="0">\n        <Node pos="l" depth="1" NCoef="0" IVar="17" Cut="7.6172071695327759e-01" cType="1" res="-9.9000000000000000e+01" rms="0.0000000000000000e+00" purity="5.1729732751846313e-01" nType="0">\n          <Node pos="l" depth="2" NCoef="0" IVar="-1" Cut="7.0728427171707153e-01" cType="0" res="-9.9000000000000000e+01" rms="0.0000000000000000e+00" purity="5.3014475107192993e-01" nType="1"/>\n          <Node pos="r" depth="2" NCoef="0" IVar="-1" Cut="0.0000000000000000e+00" cType="1" res="-9.9000000000000000e+01" rms="0.0000000000000000e+00" purity="4.4791725277900696e-01" nType="-1"/>\n        </Node>\n        <Node pos="r" depth="1" NCoef="0" IVar="-1" Cut="0.0000000000000000e+00" cType="1" res="-9.9000000000000000e+01" rms="0.0000000000000000e+00" purity="3.8824331760406494e-01" nType="-1"/>\n      </Node>\n    </BinaryTree>\n    <BinaryTree type="DecisionTree" boostWeight="1.0892674441549305e-01" itree="16">\n      <Node pos="s" depth="0" NCoef="0" IVar="7" Cut="-5.4887217283248901e-01" cType="1" res="-9.9000000000000000e+01" rms="0.0000000000000000e+00" purity="4.9427095055580139e-01" nType="0">\n        <Node pos="l" depth="1" NCoef="0" IVar="12" Cut="-9.0476191043853760e-01" cType="1" res="-9.9000000000000000e+01" rms="0.0000000000000000e+00" purity="5.2747398614883423e-01" nType="0">\n          <Node pos="l" depth="2" NCoef="0" IVar="-1" Cut="0.0000000000000000e+00" cType="1" res="-9.9000000000000000e+01" rms="0.0000000000000000e+00" purity="5.9490758180618286e-01" nType="1"/>\n          <Node pos="r" depth="2" NCoef="0" IVar="15" Cut="7.3836797475814819e-01" cType="0" res="-9.9000000000000000e+01" rms="0.0000000000000000e+00" purity="5.1295679807662964e-01" nType="0">\n            <Node pos="l" depth="3" NCoef="0" IVar="-1" Cut="0.0000000000000000e+00" cType="1" res="-9.9000000000000000e+01" rms="0.0000000000000000e+00" purity="5.2988010644912720e-01" nType="1"/>\n            <Node pos="r" depth="3" NCoef="0" IVar="-1" Cut="0.0000000000000000e+00" cType="1" res="-9.9000000000000000e+01" rms="0.0000000000000000e+00" purity="4.0415921807289124e-01" nType="-1"/>\n          </Node>\n        </Node>\n        <Node pos="r" depth="1" NCoef="0" IVar="18" Cut="7.6082575321197510e-01" cType="0" res="-9.9000000000000000e+01" rms="0.0000000000000000e+00" purity="4.5734336972236633e-01" nType="0">\n          <Node pos="l" depth="2" NCoef="0" IVar="18" Cut="7.9613465070724487e-01" cType="0" res="-9.9000000000000000e+01" rms="0.0000000000000000e+00" purity="4.8374474048614502e-01" nType="0">\n            <Node pos="l" depth="3" NCoef="0" IVar="-1" Cut="0.0000000000000000e+00" cType="1" res="-9.9000000000000000e+01" rms="0.0000000000000000e+00" purity="5.2833414077758789e-01" nType="1"/>\n            <Node pos="r" depth="3" NCoef="0" IVar="-1" Cut="0.0000000000000000e+00" cType="1" res="-9.9000000000000000e+01" rms="0.0000000000000000e+00" purity="4.5753923058509827e-01" nType="-1"/>\n          </Node>\n          <Node pos="r" depth="2" NCoef="0" IVar="-1" Cut="0.0000000000000000e+00" cType="1" res="-9.9000000000000000e+01" rms="0.0000000000000000e+00" purity="3.1169021129608154e-01" nType="-1"/>\n        </Node>\n      </Node>\n    </BinaryTree>\n    <BinaryTree type="DecisionTree" boostWeight="9.7118718715255556e-02" itree="17">\n      <Node pos="s" depth="0" NCoef="0" IVar="4" Cut="-4.7619048506021500e-02" cType="1" res="-9.9000000000000000e+01" rms="0.0000000000000000e+00" purity="4.8785567283630371e-01" nType="0">\n        <Node pos="l" depth="1" NCoef="0" IVar="12" Cut="-9.0476191043853760e-01" cType="1" res="-9.9000000000000000e+01" rms="0.0000000000000000e+00" purity="4.9535542726516724e-01" nType="0">\n          <Node pos="l" depth="2" NCoef="0" IVar="2" Cut="-5.2397406101226807e-01" cType="0" res="-9.9000000000000000e+01" rms="0.0000000000000000e+00" purity="5.8257853984832764e-01" nType="0">\n            <Node pos="l" depth="3" NCoef="0" IVar="-1" Cut="0.0000000000000000e+00" cType="1" res="-9.9000000000000000e+01" rms="0.0000000000000000e+00" purity="6.8243950605392456e-01" nType="1"/>\n            <Node pos="r" depth="3" NCoef="0" IVar="-1" Cut="0.0000000000000000e+00" cType="1" res="-9.9000000000000000e+01" rms="0.0000000000000000e+00" purity="4.6165746450424194e-01" nType="-1"/>\n          </Node>\n          <Node pos="r" depth="2" NCoef="0" IVar="18" Cut="7.4168831110000610e-01" cType="0" res="-9.9000000000000000e+01" rms="0.0000000000000000e+00" purity="4.8115676641464233e-01" nType="0">\n            <Node pos="l" depth="3" NCoef="0" IVar="-1" Cut="0.0000000000000000e+00" cType="1" res="-9.9000000000000000e+01" rms="0.0000000000000000e+00" purity="5.0647383928298950e-01" nType="1"/>\n            <Node pos="r" depth="3" NCoef="0" IVar="-1" Cut="0.0000000000000000e+00" cType="1" res="-9.9000000000000000e+01" rms="0.0000000000000000e+00" purity="1.8120718002319336e-01" nType="-1"/>\n          </Node>\n        </Node>\n        <Node pos="r" depth="1" NCoef="0" IVar="-1" Cut="0.0000000000000000e+00" cType="1" res="-9.9000000000000000e+01" rms="0.0000000000000000e+00" purity="3.5067817568778992e-01" nType="-1"/>\n      </Node>\n    </BinaryTree>\n    <BinaryTree type="DecisionTree" boostWeight="1.0140565033633714e-01" itree="18">\n      <Node pos="s" depth="0" NCoef="0" IVar="12" Cut="-9.0476191043853760e-01" cType="1" res="-9.9000000000000000e+01" rms="0.0000000000000000e+00" purity="4.7197133302688599e-01" nType="0">\n        <Node pos="l" depth="1" NCoef="0" IVar="16" Cut="7.6425504684448242e-01" cType="1" res="-9.9000000000000000e+01" rms="0.0000000000000000e+00" purity="5.6090354919433594e-01" nType="0">\n          <Node pos="l" depth="2" NCoef="0" IVar="-1" Cut="0.0000000000000000e+00" cType="1" res="-9.9000000000000000e+01" rms="0.0000000000000000e+00" purity="6.7701476812362671e-01" nType="1"/>\n          <Node pos="r" depth="2" NCoef="0" IVar="-1" Cut="0.0000000000000000e+00" cType="1" res="-9.9000000000000000e+01" rms="0.0000000000000000e+00" purity="4.9089843034744263e-01" nType="-1"/>\n        </Node>\n        <Node pos="r" depth="1" NCoef="0" IVar="18" Cut="7.4168831110000610e-01" cType="0" res="-9.9000000000000000e+01" rms="0.0000000000000000e+00" purity="4.5707362890243530e-01" nType="0">\n          <Node pos="l" depth="2" NCoef="0" IVar="17" Cut="7.4054104089736938e-01" cType="1" res="-9.9000000000000000e+01" rms="0.0000000000000000e+00" purity="4.7807776927947998e-01" nType="0">\n            <Node pos="l" depth="3" NCoef="0" IVar="-1" Cut="0.0000000000000000e+00" cType="1" res="-9.9000000000000000e+01" rms="0.0000000000000000e+00" purity="5.0365215539932251e-01" nType="1"/>\n            <Node pos="r" depth="3" NCoef="0" IVar="-1" Cut="0.0000000000000000e+00" cType="1" res="-9.9000000000000000e+01" rms="0.0000000000000000e+00" purity="4.4193136692047119e-01" nType="-1"/>\n          </Node>\n          <Node pos="r" depth="2" NCoef="0" IVar="-1" Cut="0.0000000000000000e+00" cType="1" res="-9.9000000000000000e+01" rms="0.0000000000000000e+00" purity="1.9239550828933716e-01" nType="-1"/>\n        </Node>\n      </Node>\n    </BinaryTree>\n    <BinaryTree type="DecisionTree" boostWeight="1.2850168455100983e-01" itree="19">\n      <Node pos="s" depth="0" NCoef="0" IVar="12" Cut="-9.0476191043853760e-01" cType="1" res="-9.9000000000000000e+01" rms="0.0000000000000000e+00" purity="4.7087469696998596e-01" nType="0">\n        <Node pos="l" depth="1" NCoef="0" IVar="1" Cut="-9.9356311559677124e-01" cType="0" res="-9.9000000000000000e+01" rms="0.0000000000000000e+00" purity="5.6767386198043823e-01" nType="0">\n          <Node pos="l" depth="2" NCoef="0" IVar="-1" Cut="0.0000000000000000e+00" cType="1" res="-9.9000000000000000e+01" rms="0.0000000000000000e+00" purity="6.3478964567184448e-01" nType="1"/>\n          <Node pos="r" depth="2" NCoef="0" IVar="-1" Cut="0.0000000000000000e+00" cType="1" res="-9.9000000000000000e+01" rms="0.0000000000000000e+00" purity="4.7186192870140076e-01" nType="-1"/>\n        </Node>\n        <Node pos="r" depth="1" NCoef="0" IVar="18" Cut="7.4168831110000610e-01" cType="0" res="-9.9000000000000000e+01" rms="0.0000000000000000e+00" purity="4.5470100641250610e-01" nType="0">\n          <Node pos="l" depth="2" NCoef="0" IVar="18" Cut="8.0985093116760254e-01" cType="0" res="-9.9000000000000000e+01" rms="0.0000000000000000e+00" purity="4.7366917133331299e-01" nType="0">\n            <Node pos="l" depth="3" NCoef="0" IVar="-1" Cut="0.0000000000000000e+00" cType="1" res="-9.9000000000000000e+01" rms="0.0000000000000000e+00" purity="5.4325973987579346e-01" nType="1"/>\n            <Node pos="r" depth="3" NCoef="0" IVar="-1" Cut="0.0000000000000000e+00" cType="1" res="-9.9000000000000000e+01" rms="0.0000000000000000e+00" purity="4.5885759592056274e-01" nType="-1"/>\n          </Node>\n          <Node pos="r" depth="2" NCoef="0" IVar="-1" Cut="0.0000000000000000e+00" cType="1" res="-9.9000000000000000e+01" rms="0.0000000000000000e+00" purity="2.0864479243755341e-01" nType="-1"/>\n        </Node>\n      </Node>\n    </BinaryTree>\n    <BinaryTree type="DecisionTree" boostWeight="8.6366829755845767e-02" itree="20">\n      <Node pos="s" depth="0" NCoef="0" IVar="12" Cut="-9.0476191043853760e-01" cType="1" res="-9.9000000000000000e+01" rms="0.0000000000000000e+00" purity="4.8850259184837341e-01" nType="0">\n        <Node pos="l" depth="1" NCoef="0" IVar="-1" Cut="7.6425504684448242e-01" cType="1" res="-9.9000000000000000e+01" rms="0.0000000000000000e+00" purity="5.6275510787963867e-01" nType="1"/>\n        <Node pos="r" depth="1" NCoef="0" IVar="18" Cut="7.4168831110000610e-01" cType="0" res="-9.9000000000000000e+01" rms="0.0000000000000000e+00" purity="4.7614657878875732e-01" nType="0">\n          <Node pos="l" depth="2" NCoef="0" IVar="17" Cut="7.5629764795303345e-01" cType="1" res="-9.9000000000000000e+01" rms="0.0000000000000000e+00" purity="4.9446117877960205e-01" nType="0">\n            <Node pos="l" depth="3" NCoef="0" IVar="-1" Cut="0.0000000000000000e+00" cType="1" res="-9.9000000000000000e+01" rms="0.0000000000000000e+00" purity="5.1109242439270020e-01" nType="1"/>\n            <Node pos="r" depth="3" NCoef="0" IVar="-1" Cut="0.0000000000000000e+00" cType="1" res="-9.9000000000000000e+01" rms="0.0000000000000000e+00" purity="4.3798372149467468e-01" nType="-1"/>\n          </Node>\n          <Node pos="r" depth="2" NCoef="0" IVar="-1" Cut="0.0000000000000000e+00" cType="1" res="-9.9000000000000000e+01" rms="0.0000000000000000e+00" purity="2.3065578937530518e-01" nType="-1"/>\n        </Node>\n      </Node>\n    </BinaryTree>\n    <BinaryTree type="DecisionTree" boostWeight="9.7584831857139231e-02" itree="21">\n      <Node pos="s" depth="0" NCoef="0" IVar="12" Cut="-9.0476191043853760e-01" cType="1" res="-9.9000000000000000e+01" rms="0.0000000000000000e+00" purity="4.7724097967147827e-01" nType="0">\n        <Node pos="l" depth="1" NCoef="0" IVar="16" Cut="7.6425504684448242e-01" cType="1" res="-9.9000000000000000e+01" rms="0.0000000000000000e+00" purity="5.4140108823776245e-01" nType="0">\n          <Node pos="l" depth="2" NCoef="0" IVar="-1" Cut="0.0000000000000000e+00" cType="1" res="-9.9000000000000000e+01" rms="0.0000000000000000e+00" purity="6.3839161396026611e-01" nType="1"/>\n          <Node pos="r" depth="2" NCoef="0" IVar="-1" Cut="0.0000000000000000e+00" cType="1" res="-9.9000000000000000e+01" rms="0.0000000000000000e+00" purity="4.8464676737785339e-01" nType="-1"/>\n        </Node>\n        <Node pos="r" depth="1" NCoef="0" IVar="18" Cut="7.4168831110000610e-01" cType="0" res="-9.9000000000000000e+01" rms="0.0000000000000000e+00" purity="4.6658557653427124e-01" nType="0">\n          <Node pos="l" depth="2" NCoef="0" IVar="18" Cut="8.0011343955993652e-01" cType="0" res="-9.9000000000000000e+01" rms="0.0000000000000000e+00" purity="4.8266652226448059e-01" nType="0">\n            <Node pos="l" depth="3" NCoef="0" IVar="-1" Cut="0.0000000000000000e+00" cType="1" res="-9.9000000000000000e+01" rms="0.0000000000000000e+00" purity="5.2704989910125732e-01" nType="1"/>\n            <Node pos="r" depth="3" NCoef="0" IVar="-1" Cut="0.0000000000000000e+00" cType="1" res="-9.9000000000000000e+01" rms="0.0000000000000000e+00" purity="4.6691164374351501e-01" nType="-1"/>\n          </Node>\n          <Node pos="r" depth="2" NCoef="0" IVar="-1" Cut="0.0000000000000000e+00" cType="1" res="-9.9000000000000000e+01" rms="0.0000000000000000e+00" purity="2.4633695185184479e-01" nType="-1"/>\n        </Node>\n      </Node>\n    </BinaryTree>\n    <BinaryTree type="DecisionTree" boostWeight="6.3114169639785209e-02" itree="22">\n      <Node pos="s" depth="0" NCoef="0" IVar="8" Cut="-4.6606138348579407e-01" cType="0" res="-9.9000000000000000e+01" rms="0.0000000000000000e+00" purity="4.8879346251487732e-01" nType="0">\n        <Node pos="l" depth="1" NCoef="0" IVar="-1" Cut="0.0000000000000000e+00" cType="1" res="-9.9000000000000000e+01" rms="0.0000000000000000e+00" purity="5.6627911329269409e-01" nType="1"/>\n        <Node pos="r" depth="1" NCoef="0" IVar="7" Cut="-3.6842104792594910e-01" cType="1" res="-9.9000000000000000e+01" rms="0.0000000000000000e+00" purity="4.8016354441642761e-01" nType="0">\n          <Node pos="l" depth="2" NCoef="0" IVar="9" Cut="-4.7252744436264038e-01" cType="1" res="-9.9000000000000000e+01" rms="0.0000000000000000e+00" purity="4.9448907375335693e-01" nType="0">\n            <Node pos="l" depth="3" NCoef="0" IVar="-1" Cut="0.0000000000000000e+00" cType="1" res="-9.9000000000000000e+01" rms="0.0000000000000000e+00" purity="5.2943271398544312e-01" nType="1"/>\n            <Node pos="r" depth="3" NCoef="0" IVar="-1" Cut="0.0000000000000000e+00" cType="1" res="-9.9000000000000000e+01" rms="0.0000000000000000e+00" purity="4.8672786355018616e-01" nType="-1"/>\n          </Node>\n          <Node pos="r" depth="2" NCoef="0" IVar="-1" Cut="-9.0476191043853760e-01" cType="1" res="-9.9000000000000000e+01" rms="0.0000000000000000e+00" purity="4.4148015975952148e-01" nType="-1"/>\n        </Node>\n      </Node>\n    </BinaryTree>\n    <BinaryTree type="DecisionTree" boostWeight="9.6614360736540505e-02" itree="23">\n      <Node pos="s" depth="0" NCoef="0" IVar="11" Cut="-9.0476191043853760e-01" cType="1" res="-9.9000000000000000e+01" rms="0.0000000000000000e+00" purity="4.9763613939285278e-01" nType="0">\n        <Node pos="l" depth="1" NCoef="0" IVar="2" Cut="-5.2388906478881836e-01" cType="0" res="-9.9000000000000000e+01" rms="0.0000000000000000e+00" purity="5.2220076322555542e-01" nType="0">\n          <Node pos="l" depth="2" NCoef="0" IVar="4" Cut="-7.1281498670578003e-01" cType="1" res="-9.9000000000000000e+01" rms="0.0000000000000000e+00" purity="5.5778092145919800e-01" nType="0">\n            <Node pos="l" depth="3" NCoef="0" IVar="-1" Cut="0.0000000000000000e+00" cType="1" res="-9.9000000000000000e+01" rms="0.0000000000000000e+00" purity="5.8669948577880859e-01" nType="1"/>\n            <Node pos="r" depth="3" NCoef="0" IVar="-1" Cut="0.0000000000000000e+00" cType="1" res="-9.9000000000000000e+01" rms="0.0000000000000000e+00" purity="4.9958100914955139e-01" nType="-1"/>\n          </Node>\n          <Node pos="r" depth="2" NCoef="0" IVar="-1" Cut="2.3076932132244110e-01" cType="1" res="-9.9000000000000000e+01" rms="0.0000000000000000e+00" purity="4.8324179649353027e-01" nType="-1"/>\n        </Node>\n        <Node pos="r" depth="1" NCoef="0" IVar="15" Cut="7.4699008464813232e-01" cType="0" res="-9.9000000000000000e+01" rms="0.0000000000000000e+00" purity="4.7153630852699280e-01" nType="0">\n          <Node pos="l" depth="2" NCoef="0" IVar="19" Cut="8.6411511898040771e-01" cType="1" res="-9.9000000000000000e+01" rms="0.0000000000000000e+00" purity="4.9137926101684570e-01" nType="0">\n            <Node pos="l" depth="3" NCoef="0" IVar="-1" Cut="0.0000000000000000e+00" cType="1" res="-9.9000000000000000e+01" rms="0.0000000000000000e+00" purity="5.3640419244766235e-01" nType="1"/>\n            <Node pos="r" depth="3" NCoef="0" IVar="-1" Cut="0.0000000000000000e+00" cType="1" res="-9.9000000000000000e+01" rms="0.0000000000000000e+00" purity="4.6858289837837219e-01" nType="-1"/>\n          </Node>\n          <Node pos="r" depth="2" NCoef="0" IVar="-1" Cut="0.0000000000000000e+00" cType="1" res="-9.9000000000000000e+01" rms="0.0000000000000000e+00" purity="3.0270981788635254e-01" nType="-1"/>\n        </Node>\n      </Node>\n    </BinaryTree>\n    <BinaryTree type="DecisionTree" boostWeight="6.3316614776950705e-02" itree="24">\n      <Node pos="s" depth="0" NCoef="0" IVar="20" Cut="-9.0476191043853760e-01" cType="1" res="-9.9000000000000000e+01" rms="0.0000000000000000e+00" purity="4.9817466735839844e-01" nType="0">\n        <Node pos="l" depth="1" NCoef="0" IVar="8" Cut="-5.5505114793777466e-01" cType="0" res="-9.9000000000000000e+01" rms="0.0000000000000000e+00" purity="5.0431573390960693e-01" nType="0">\n          <Node pos="l" depth="2" NCoef="0" IVar="13" Cut="-9.0476191043853760e-01" cType="1" res="-9.9000000000000000e+01" rms="0.0000000000000000e+00" purity="5.4814445972442627e-01" nType="0">\n            <Node pos="l" depth="3" NCoef="0" IVar="-1" Cut="0.0000000000000000e+00" cType="1" res="-9.9000000000000000e+01" rms="0.0000000000000000e+00" purity="5.8712840080261230e-01" nType="1"/>\n            <Node pos="r" depth="3" NCoef="0" IVar="-1" Cut="0.0000000000000000e+00" cType="1" res="-9.9000000000000000e+01" rms="0.0000000000000000e+00" purity="4.5514208078384399e-01" nType="-1"/>\n          </Node>\n          <Node pos="r" depth="2" NCoef="0" IVar="7" Cut="-4.5864659547805786e-01" cType="1" res="-9.9000000000000000e+01" rms="0.0000000000000000e+00" purity="4.9284538626670837e-01" nType="0">\n            <Node pos="l" depth="3" NCoef="0" IVar="-1" Cut="0.0000000000000000e+00" cType="1" res="-9.9000000000000000e+01" rms="0.0000000000000000e+00" purity="5.0647592544555664e-01" nType="1"/>\n            <Node pos="r" depth="3" NCoef="0" IVar="-1" Cut="0.0000000000000000e+00" cType="1" res="-9.9000000000000000e+01" rms="0.0000000000000000e+00" purity="4.6864235401153564e-01" nType="-1"/>\n          </Node>\n        </Node>\n        <Node pos="r" depth="1" NCoef="0" IVar="-1" Cut="0.0000000000000000e+00" cType="1" res="-9.9000000000000000e+01" rms="0.0000000000000000e+00" purity="4.1669514775276184e-01" nType="-1"/>\n      </Node>\n    </BinaryTree>\n    <BinaryTree type="DecisionTree" boostWeight="6.7724777886826890e-02" itree="25">\n      <Node pos="s" depth="0" NCoef="0" IVar="4" Cut="-4.7619048506021500e-02" cType="1" res="-9.9000000000000000e+01" rms="0.0000000000000000e+00" purity="4.9476498365402222e-01" nType="0">\n        <Node pos="l" depth="1" NCoef="0" IVar="12" Cut="-9.0476191043853760e-01" cType="1" res="-9.9000000000000000e+01" rms="0.0000000000000000e+00" purity="4.9965903162956238e-01" nType="0">\n          <Node pos="l" depth="2" NCoef="0" IVar="2" Cut="-5.2397406101226807e-01" cType="0" res="-9.9000000000000000e+01" rms="0.0000000000000000e+00" purity="5.6086498498916626e-01" nType="0">\n            <Node pos="l" depth="3" NCoef="0" IVar="-1" Cut="0.0000000000000000e+00" cType="1" res="-9.9000000000000000e+01" rms="0.0000000000000000e+00" purity="6.3505971431732178e-01" nType="1"/>\n            <Node pos="r" depth="3" NCoef="0" IVar="-1" Cut="0.0000000000000000e+00" cType="1" res="-9.9000000000000000e+01" rms="0.0000000000000000e+00" purity="4.7224664688110352e-01" nType="-1"/>\n          </Node>\n          <Node pos="r" depth="2" NCoef="0" IVar="18" Cut="7.4168831110000610e-01" cType="0" res="-9.9000000000000000e+01" rms="0.0000000000000000e+00" purity="4.9000835418701172e-01" nType="0">\n            <Node pos="l" depth="3" NCoef="0" IVar="-1" Cut="0.0000000000000000e+00" cType="1" res="-9.9000000000000000e+01" rms="0.0000000000000000e+00" purity="5.0627505779266357e-01" nType="1"/>\n            <Node pos="r" depth="3" NCoef="0" IVar="-1" Cut="0.0000000000000000e+00" cType="1" res="-9.9000000000000000e+01" rms="0.0000000000000000e+00" purity="2.6842033863067627e-01" nType="-1"/>\n          </Node>\n        </Node>\n        <Node pos="r" depth="1" NCoef="0" IVar="-1" Cut="0.0000000000000000e+00" cType="1" res="-9.9000000000000000e+01" rms="0.0000000000000000e+00" purity="4.0445390343666077e-01" nType="-1"/>\n      </Node>\n    </BinaryTree>\n    <BinaryTree type="DecisionTree" boostWeight="5.9567315972023527e-02" itree="26">\n      <Node pos="s" depth="0" NCoef="0" IVar="12" Cut="-9.0476191043853760e-01" cType="1" res="-9.9000000000000000e+01" rms="0.0000000000000000e+00" purity="4.8343217372894287e-01" nType="0">\n        <Node pos="l" depth="1" NCoef="0" IVar="3" Cut="-2.9478453099727631e-02" cType="1" res="-9.9000000000000000e+01" rms="0.0000000000000000e+00" purity="5.4342079162597656e-01" nType="0">\n          <Node pos="l" depth="2" NCoef="0" IVar="-1" Cut="0.0000000000000000e+00" cType="1" res="-9.9000000000000000e+01" rms="0.0000000000000000e+00" purity="6.2155330181121826e-01" nType="1"/>\n          <Node pos="r" depth="2" NCoef="0" IVar="-1" Cut="0.0000000000000000e+00" cType="1" res="-9.9000000000000000e+01" rms="0.0000000000000000e+00" purity="4.9431750178337097e-01" nType="-1"/>\n        </Node>\n        <Node pos="r" depth="1" NCoef="0" IVar="-1" Cut="7.4168831110000610e-01" cType="0" res="-9.9000000000000000e+01" rms="0.0000000000000000e+00" purity="4.7362703084945679e-01" nType="-1"/>\n      </Node>\n    </BinaryTree>\n    <BinaryTree type="DecisionTree" boostWeight="7.2569629046555020e-02" itree="27">\n      <Node pos="s" depth="0" NCoef="0" IVar="12" Cut="-9.0476191043853760e-01" cType="1" res="-9.9000000000000000e+01" rms="0.0000000000000000e+00" purity="4.9669942259788513e-01" nType="0">\n        <Node pos="l" depth="1" NCoef="0" IVar="-1" Cut="-6.3064551353454590e-01" cType="0" res="-9.9000000000000000e+01" rms="0.0000000000000000e+00" purity="5.4695838689804077e-01" nType="1"/>\n        <Node pos="r" depth="1" NCoef="0" IVar="18" Cut="7.4168831110000610e-01" cType="0" res="-9.9000000000000000e+01" rms="0.0000000000000000e+00" purity="4.8849636316299438e-01" nType="0">\n          <Node pos="l" depth="2" NCoef="0" IVar="10" Cut="-9.0476191043853760e-01" cType="0" res="-9.9000000000000000e+01" rms="0.0000000000000000e+00" purity="5.0225740671157837e-01" nType="0">\n            <Node pos="l" depth="3" NCoef="0" IVar="-1" Cut="0.0000000000000000e+00" cType="1" res="-9.9000000000000000e+01" rms="0.0000000000000000e+00" purity="5.1478284597396851e-01" nType="1"/>\n            <Node pos="r" depth="3" NCoef="0" IVar="-1" Cut="0.0000000000000000e+00" cType="1" res="-9.9000000000000000e+01" rms="0.0000000000000000e+00" purity="4.4091817736625671e-01" nType="-1"/>\n          </Node>\n          <Node pos="r" depth="2" NCoef="0" IVar="-1" Cut="0.0000000000000000e+00" cType="1" res="-9.9000000000000000e+01" rms="0.0000000000000000e+00" purity="2.8936082124710083e-01" nType="-1"/>\n        </Node>\n      </Node>\n    </BinaryTree>\n    <BinaryTree type="DecisionTree" boostWeight="6.0426307311805649e-02" itree="28">\n      <Node pos="s" depth="0" NCoef="0" IVar="12" Cut="-9.0476191043853760e-01" cType="1" res="-9.9000000000000000e+01" rms="0.0000000000000000e+00" purity="4.8548772931098938e-01" nType="0">\n        <Node pos="l" depth="1" NCoef="0" IVar="8" Cut="-6.3064551353454590e-01" cType="0" res="-9.9000000000000000e+01" rms="0.0000000000000000e+00" purity="5.2892237901687622e-01" nType="0">\n          <Node pos="l" depth="2" NCoef="0" IVar="-1" Cut="0.0000000000000000e+00" cType="1" res="-9.9000000000000000e+01" rms="0.0000000000000000e+00" purity="5.8989715576171875e-01" nType="1"/>\n          <Node pos="r" depth="2" NCoef="0" IVar="-1" Cut="0.0000000000000000e+00" cType="1" res="-9.9000000000000000e+01" rms="0.0000000000000000e+00" purity="4.8280867934226990e-01" nType="-1"/>\n        </Node>\n        <Node pos="r" depth="1" NCoef="0" IVar="18" Cut="7.4168831110000610e-01" cType="0" res="-9.9000000000000000e+01" rms="0.0000000000000000e+00" purity="4.7840490937232971e-01" nType="0">\n          <Node pos="l" depth="2" NCoef="0" IVar="17" Cut="7.5629764795303345e-01" cType="1" res="-9.9000000000000000e+01" rms="0.0000000000000000e+00" purity="4.9025741219520569e-01" nType="0">\n            <Node pos="l" depth="3" NCoef="0" IVar="-1" Cut="0.0000000000000000e+00" cType="1" res="-9.9000000000000000e+01" rms="0.0000000000000000e+00" purity="5.0386488437652588e-01" nType="1"/>\n            <Node pos="r" depth="3" NCoef="0" IVar="-1" Cut="0.0000000000000000e+00" cType="1" res="-9.9000000000000000e+01" rms="0.0000000000000000e+00" purity="4.4393751025199890e-01" nType="-1"/>\n          </Node>\n          <Node pos="r" depth="2" NCoef="0" IVar="-1" Cut="0.0000000000000000e+00" cType="1" res="-9.9000000000000000e+01" rms="0.0000000000000000e+00" purity="3.0450829863548279e-01" nType="-1"/>\n        </Node>\n      </Node>\n    </BinaryTree>\n    <BinaryTree type="DecisionTree" boostWeight="6.2430693679356566e-02" itree="29">\n      <Node pos="s" depth="0" NCoef="0" IVar="12" Cut="-9.0476191043853760e-01" cType="1" res="-9.9000000000000000e+01" rms="0.0000000000000000e+00" purity="4.7993794083595276e-01" nType="0">\n        <Node pos="l" depth="1" NCoef="0" IVar="9" Cut="9.8901137709617615e-02" cType="1" res="-9.9000000000000000e+01" rms="0.0000000000000000e+00" purity="5.3110933303833008e-01" nType="0">\n          <Node pos="l" depth="2" NCoef="0" IVar="-1" Cut="0.0000000000000000e+00" cType="1" res="-9.9000000000000000e+01" rms="0.0000000000000000e+00" purity="5.9825366735458374e-01" nType="1"/>\n          <Node pos="r" depth="2" NCoef="0" IVar="-1" Cut="0.0000000000000000e+00" cType="1" res="-9.9000000000000000e+01" rms="0.0000000000000000e+00" purity="4.8563390970230103e-01" nType="-1"/>\n        </Node>\n        <Node pos="r" depth="1" NCoef="0" IVar="-1" Cut="7.2546333074569702e-01" cType="0" res="-9.9000000000000000e+01" rms="0.0000000000000000e+00" purity="4.7160428762435913e-01" nType="-1"/>\n      </Node>\n    </BinaryTree>\n    <BinaryTree type="DecisionTree" boostWeight="5.9440832007277788e-02" itree="30">\n      <Node pos="s" depth="0" NCoef="0" IVar="12" Cut="-9.0476191043853760e-01" cType="1" res="-9.9000000000000000e+01" rms="0.0000000000000000e+00" purity="4.9376371502876282e-01" nType="0">\n        <Node pos="l" depth="1" NCoef="0" IVar="1" Cut="-9.9356311559677124e-01" cType="0" res="-9.9000000000000000e+01" rms="0.0000000000000000e+00" purity="5.3421437740325928e-01" nType="0">\n          <Node pos="l" depth="2" NCoef="0" IVar="-1" Cut="0.0000000000000000e+00" cType="1" res="-9.9000000000000000e+01" rms="0.0000000000000000e+00" purity="5.7180428504943848e-01" nType="1"/>\n          <Node pos="r" depth="2" NCoef="0" IVar="-1" Cut="0.0000000000000000e+00" cType="1" res="-9.9000000000000000e+01" rms="0.0000000000000000e+00" purity="4.8240271210670471e-01" nType="-1"/>\n        </Node>\n        <Node pos="r" depth="1" NCoef="0" IVar="15" Cut="7.2546333074569702e-01" cType="0" res="-9.9000000000000000e+01" rms="0.0000000000000000e+00" purity="4.8718416690826416e-01" nType="0">\n          <Node pos="l" depth="2" NCoef="0" IVar="10" Cut="-9.0476191043853760e-01" cType="0" res="-9.9000000000000000e+01" rms="0.0000000000000000e+00" purity="4.9886450171470642e-01" nType="0">\n            <Node pos="l" depth="3" NCoef="0" IVar="-1" Cut="0.0000000000000000e+00" cType="1" res="-9.9000000000000000e+01" rms="0.0000000000000000e+00" purity="5.0902014970779419e-01" nType="1"/>\n            <Node pos="r" depth="3" NCoef="0" IVar="-1" Cut="0.0000000000000000e+00" cType="1" res="-9.9000000000000000e+01" rms="0.0000000000000000e+00" purity="4.5107728242874146e-01" nType="-1"/>\n          </Node>\n          <Node pos="r" depth="2" NCoef="0" IVar="-1" Cut="0.0000000000000000e+00" cType="1" res="-9.9000000000000000e+01" rms="0.0000000000000000e+00" purity="3.4806132316589355e-01" nType="-1"/>\n        </Node>\n      </Node>\n    </BinaryTree>\n    <BinaryTree type="DecisionTree" boostWeight="6.0242400581263122e-02" itree="31">\n      <Node pos="s" depth="0" NCoef="0" IVar="32" Cut="-9.0476191043853760e-01" cType="1" res="-9.9000000000000000e+01" rms="0.0000000000000000e+00" purity="4.8674365878105164e-01" nType="0">\n        <Node pos="l" depth="1" NCoef="0" IVar="6" Cut="-9.4099646806716919e-01" cType="0" res="-9.9000000000000000e+01" rms="0.0000000000000000e+00" purity="5.2136558294296265e-01" nType="0">\n          <Node pos="l" depth="2" NCoef="0" IVar="-1" Cut="-3.8461533188819885e-01" cType="0" res="-9.9000000000000000e+01" rms="0.0000000000000000e+00" purity="5.6105631589889526e-01" nType="1"/>\n          <Node pos="r" depth="2" NCoef="0" IVar="-1" Cut="0.0000000000000000e+00" cType="1" res="-9.9000000000000000e+01" rms="0.0000000000000000e+00" purity="4.7167330980300903e-01" nType="-1"/>\n        </Node>\n        <Node pos="r" depth="1" NCoef="0" IVar="15" Cut="7.1428573131561279e-01" cType="0" res="-9.9000000000000000e+01" rms="0.0000000000000000e+00" purity="4.7710818052291870e-01" nType="0">\n          <Node pos="l" depth="2" NCoef="0" IVar="13" Cut="-9.0476191043853760e-01" cType="1" res="-9.9000000000000000e+01" rms="0.0000000000000000e+00" purity="4.8448288440704346e-01" nType="0">\n            <Node pos="l" depth="3" NCoef="0" IVar="-1" Cut="0.0000000000000000e+00" cType="1" res="-9.9000000000000000e+01" rms="0.0000000000000000e+00" purity="5.0217372179031372e-01" nType="1"/>\n            <Node pos="r" depth="3" NCoef="0" IVar="-1" Cut="0.0000000000000000e+00" cType="1" res="-9.9000000000000000e+01" rms="0.0000000000000000e+00" purity="4.5177155733108521e-01" nType="-1"/>\n          </Node>\n          <Node pos="r" depth="2" NCoef="0" IVar="-1" Cut="0.0000000000000000e+00" cType="1" res="-9.9000000000000000e+01" rms="0.0000000000000000e+00" purity="3.8213378190994263e-01" nType="-1"/>\n        </Node>\n      </Node>\n    </BinaryTree>\n    <BinaryTree type="DecisionTree" boostWeight="6.4568846434316665e-02" itree="32">\n      <Node pos="s" depth="0" NCoef="0" IVar="32" Cut="-9.0476191043853760e-01" cType="1" res="-9.9000000000000000e+01" rms="0.0000000000000000e+00" purity="4.8393931984901428e-01" nType="0">\n        <Node pos="l" depth="1" NCoef="0" IVar="11" Cut="-9.0476191043853760e-01" cType="1" res="-9.9000000000000000e+01" rms="0.0000000000000000e+00" purity="5.1973617076873779e-01" nType="0">\n          <Node pos="l" depth="2" NCoef="0" IVar="-1" Cut="0.0000000000000000e+00" cType="1" res="-9.9000000000000000e+01" rms="0.0000000000000000e+00" purity="5.9445041418075562e-01" nType="1"/>\n          <Node pos="r" depth="2" NCoef="0" IVar="19" Cut="8.5972875356674194e-01" cType="0" res="-9.9000000000000000e+01" rms="0.0000000000000000e+00" purity="4.9522021412849426e-01" nType="0">\n            <Node pos="l" depth="3" NCoef="0" IVar="-1" Cut="0.0000000000000000e+00" cType="1" res="-9.9000000000000000e+01" rms="0.0000000000000000e+00" purity="5.2910614013671875e-01" nType="1"/>\n            <Node pos="r" depth="3" NCoef="0" IVar="-1" Cut="0.0000000000000000e+00" cType="1" res="-9.9000000000000000e+01" rms="0.0000000000000000e+00" purity="4.3693563342094421e-01" nType="-1"/>\n          </Node>\n        </Node>\n        <Node pos="r" depth="1" NCoef="0" IVar="-1" Cut="7.1428573131561279e-01" cType="0" res="-9.9000000000000000e+01" rms="0.0000000000000000e+00" purity="4.7398951649665833e-01" nType="-1"/>\n      </Node>\n    </BinaryTree>\n    <BinaryTree type="DecisionTree" boostWeight="3.9316610306477408e-02" itree="33">\n      <Node pos="s" depth="0" NCoef="0" IVar="4" Cut="-4.7619048506021500e-02" cType="1" res="-9.9000000000000000e+01" rms="0.0000000000000000e+00" purity="4.9498915672302246e-01" nType="0">\n        <Node pos="l" depth="1" NCoef="0" IVar="12" Cut="-9.0476191043853760e-01" cType="1" res="-9.9000000000000000e+01" rms="0.0000000000000000e+00" purity="4.9892678856849670e-01" nType="0">\n          <Node pos="l" depth="2" NCoef="0" IVar="2" Cut="-5.2397406101226807e-01" cType="0" res="-9.9000000000000000e+01" rms="0.0000000000000000e+00" purity="5.5083018541336060e-01" nType="0">\n            <Node pos="l" depth="3" NCoef="0" IVar="-1" Cut="0.0000000000000000e+00" cType="1" res="-9.9000000000000000e+01" rms="0.0000000000000000e+00" purity="6.0289108753204346e-01" nType="1"/>\n            <Node pos="r" depth="3" NCoef="0" IVar="-1" Cut="0.0000000000000000e+00" cType="1" res="-9.9000000000000000e+01" rms="0.0000000000000000e+00" purity="4.8932453989982605e-01" nType="-1"/>\n          </Node>\n          <Node pos="r" depth="2" NCoef="0" IVar="18" Cut="7.4168831110000610e-01" cType="0" res="-9.9000000000000000e+01" rms="0.0000000000000000e+00" purity="4.9081692099571228e-01" nType="0">\n            <Node pos="l" depth="3" NCoef="0" IVar="-1" Cut="0.0000000000000000e+00" cType="1" res="-9.9000000000000000e+01" rms="0.0000000000000000e+00" purity="5.0023078918457031e-01" nType="1"/>\n            <Node pos="r" depth="3" NCoef="0" IVar="-1" Cut="0.0000000000000000e+00" cType="1" res="-9.9000000000000000e+01" rms="0.0000000000000000e+00" purity="3.5060021281242371e-01" nType="-1"/>\n          </Node>\n        </Node>\n        <Node pos="r" depth="1" NCoef="0" IVar="-1" Cut="0.0000000000000000e+00" cType="1" res="-9.9000000000000000e+01" rms="0.0000000000000000e+00" purity="4.2269319295883179e-01" nType="-1"/>\n      </Node>\n    </BinaryTree>\n    <BinaryTree type="DecisionTree" boostWeight="8.0471818862898004e-02" itree="34">\n      <Node pos="s" depth="0" NCoef="0" IVar="12" Cut="-9.0476191043853760e-01" cType="1" res="-9.9000000000000000e+01" rms="0.0000000000000000e+00" purity="4.8833656311035156e-01" nType="0">\n        <Node pos="l" depth="1" NCoef="0" IVar="-1" Cut="-6.3064551353454590e-01" cType="0" res="-9.9000000000000000e+01" rms="0.0000000000000000e+00" purity="5.3347951173782349e-01" nType="1"/>\n        <Node pos="r" depth="1" NCoef="0" IVar="15" Cut="7.5042122602462769e-01" cType="0" res="-9.9000000000000000e+01" rms="0.0000000000000000e+00" purity="4.8100322484970093e-01" nType="0">\n          <Node pos="l" depth="2" NCoef="0" IVar="19" Cut="8.6411511898040771e-01" cType="1" res="-9.9000000000000000e+01" rms="0.0000000000000000e+00" purity="5.0114291906356812e-01" nType="0">\n            <Node pos="l" depth="3" NCoef="0" IVar="-1" Cut="0.0000000000000000e+00" cType="1" res="-9.9000000000000000e+01" rms="0.0000000000000000e+00" purity="5.4782623052597046e-01" nType="1"/>\n            <Node pos="r" depth="3" NCoef="0" IVar="-1" Cut="0.0000000000000000e+00" cType="1" res="-9.9000000000000000e+01" rms="0.0000000000000000e+00" purity="4.8093211650848389e-01" nType="-1"/>\n          </Node>\n          <Node pos="r" depth="2" NCoef="0" IVar="17" Cut="7.1924936771392822e-01" cType="0" res="-9.9000000000000000e+01" rms="0.0000000000000000e+00" purity="4.2870703339576721e-01" nType="0">\n            <Node pos="l" depth="3" NCoef="0" IVar="-1" Cut="0.0000000000000000e+00" cType="1" res="-9.9000000000000000e+01" rms="0.0000000000000000e+00" purity="5.0227403640747070e-01" nType="1"/>\n            <Node pos="r" depth="3" NCoef="0" IVar="-1" Cut="0.0000000000000000e+00" cType="1" res="-9.9000000000000000e+01" rms="0.0000000000000000e+00" purity="2.6165157556533813e-01" nType="-1"/>\n          </Node>\n        </Node>\n      </Node>\n    </BinaryTree>\n    <BinaryTree type="DecisionTree" boostWeight="6.6093699162926470e-02" itree="35">\n      <Node pos="s" depth="0" NCoef="0" IVar="19" Cut="8.9935195446014404e-01" cType="0" res="-9.9000000000000000e+01" rms="0.0000000000000000e+00" purity="4.9176463484764099e-01" nType="0">\n        <Node pos="l" depth="1" NCoef="0" IVar="-1" Cut="0.0000000000000000e+00" cType="1" res="-9.9000000000000000e+01" rms="0.0000000000000000e+00" purity="5.3523939847946167e-01" nType="1"/>\n        <Node pos="r" depth="1" NCoef="0" IVar="12" Cut="-9.0476191043853760e-01" cType="1" res="-9.9000000000000000e+01" rms="0.0000000000000000e+00" purity="4.8275423049926758e-01" nType="0">\n          <Node pos="l" depth="2" NCoef="0" IVar="9" Cut="2.8205132484436035e-01" cType="1" res="-9.9000000000000000e+01" rms="0.0000000000000000e+00" purity="5.3631430864334106e-01" nType="0">\n            <Node pos="l" depth="3" NCoef="0" IVar="-1" Cut="0.0000000000000000e+00" cType="1" res="-9.9000000000000000e+01" rms="0.0000000000000000e+00" purity="5.7070416212081909e-01" nType="1"/>\n            <Node pos="r" depth="3" NCoef="0" IVar="-1" Cut="0.0000000000000000e+00" cType="1" res="-9.9000000000000000e+01" rms="0.0000000000000000e+00" purity="4.7500079870223999e-01" nType="-1"/>\n          </Node>\n          <Node pos="r" depth="2" NCoef="0" IVar="-1" Cut="7.4598264694213867e-01" cType="0" res="-9.9000000000000000e+01" rms="0.0000000000000000e+00" purity="4.7188046574592590e-01" nType="-1"/>\n        </Node>\n      </Node>\n    </BinaryTree>\n    <BinaryTree type="DecisionTree" boostWeight="4.3955661282180161e-02" itree="36">\n      <Node pos="s" depth="0" NCoef="0" IVar="20" Cut="-9.0476191043853760e-01" cType="1" res="-9.9000000000000000e+01" rms="0.0000000000000000e+00" purity="4.9965155124664307e-01" nType="0">\n        <Node pos="l" depth="1" NCoef="0" IVar="8" Cut="-5.5505114793777466e-01" cType="0" res="-9.9000000000000000e+01" rms="0.0000000000000000e+00" purity="5.0405353307723999e-01" nType="0">\n          <Node pos="l" depth="2" NCoef="0" IVar="7" Cut="-3.1829574704170227e-01" cType="1" res="-9.9000000000000000e+01" rms="0.0000000000000000e+00" purity="5.3653830289840698e-01" nType="0">\n            <Node pos="l" depth="3" NCoef="0" IVar="-1" Cut="0.0000000000000000e+00" cType="1" res="-9.9000000000000000e+01" rms="0.0000000000000000e+00" purity="5.5492770671844482e-01" nType="1"/>\n            <Node pos="r" depth="3" NCoef="0" IVar="-1" Cut="0.0000000000000000e+00" cType="1" res="-9.9000000000000000e+01" rms="0.0000000000000000e+00" purity="4.9066668748855591e-01" nType="-1"/>\n          </Node>\n          <Node pos="r" depth="2" NCoef="0" IVar="0" Cut="-9.3957132101058960e-01" cType="0" res="-9.9000000000000000e+01" rms="0.0000000000000000e+00" purity="4.9559390544891357e-01" nType="0">\n            <Node pos="l" depth="3" NCoef="0" IVar="-1" Cut="0.0000000000000000e+00" cType="1" res="-9.9000000000000000e+01" rms="0.0000000000000000e+00" purity="5.4891598224639893e-01" nType="1"/>\n            <Node pos="r" depth="3" NCoef="0" IVar="-1" Cut="0.0000000000000000e+00" cType="1" res="-9.9000000000000000e+01" rms="0.0000000000000000e+00" purity="4.9026489257812500e-01" nType="-1"/>\n          </Node>\n        </Node>\n        <Node pos="r" depth="1" NCoef="0" IVar="-1" Cut="0.0000000000000000e+00" cType="1" res="-9.9000000000000000e+01" rms="0.0000000000000000e+00" purity="4.4161453843116760e-01" nType="-1"/>\n      </Node>\n    </BinaryTree>\n    <BinaryTree type="DecisionTree" boostWeight="6.0784887388617571e-02" itree="37">\n      <Node pos="s" depth="0" NCoef="0" IVar="20" Cut="-9.0476191043853760e-01" cType="1" res="-9.9000000000000000e+01" rms="0.0000000000000000e+00" purity="5.0615984201431274e-01" nType="0">\n        <Node pos="l" depth="1" NCoef="0" IVar="12" Cut="-9.0476191043853760e-01" cType="1" res="-9.9000000000000000e+01" rms="0.0000000000000000e+00" purity="5.1022434234619141e-01" nType="0">\n          <Node pos="l" depth="2" NCoef="0" IVar="-1" Cut="1.9047622382640839e-01" cType="1" res="-9.9000000000000000e+01" rms="0.0000000000000000e+00" purity="5.3976613283157349e-01" nType="1"/>\n          <Node pos="r" depth="2" NCoef="0" IVar="18" Cut="7.4983817338943481e-01" cType="0" res="-9.9000000000000000e+01" rms="0.0000000000000000e+00" purity="5.0510478019714355e-01" nType="0">\n            <Node pos="l" depth="3" NCoef="0" IVar="-1" Cut="0.0000000000000000e+00" cType="1" res="-9.9000000000000000e+01" rms="0.0000000000000000e+00" purity="5.1774060726165771e-01" nType="1"/>\n            <Node pos="r" depth="3" NCoef="0" IVar="-1" Cut="0.0000000000000000e+00" cType="1" res="-9.9000000000000000e+01" rms="0.0000000000000000e+00" purity="3.7663233280181885e-01" nType="-1"/>\n          </Node>\n        </Node>\n        <Node pos="r" depth="1" NCoef="0" IVar="-1" Cut="0.0000000000000000e+00" cType="1" res="-9.9000000000000000e+01" rms="0.0000000000000000e+00" purity="4.5247972011566162e-01" nType="-1"/>\n      </Node>\n    </BinaryTree>\n    <BinaryTree type="DecisionTree" boostWeight="6.6975390587999020e-02" itree="38">\n      <Node pos="s" depth="0" NCoef="0" IVar="4" Cut="-4.7619048506021500e-02" cType="1" res="-9.9000000000000000e+01" rms="0.0000000000000000e+00" purity="4.9525377154350281e-01" nType="0">\n        <Node pos="l" depth="1" NCoef="0" IVar="12" Cut="-9.0476191043853760e-01" cType="1" res="-9.9000000000000000e+01" rms="0.0000000000000000e+00" purity="4.9848273396492004e-01" nType="0">\n          <Node pos="l" depth="2" NCoef="0" IVar="-1" Cut="-5.2397406101226807e-01" cType="0" res="-9.9000000000000000e+01" rms="0.0000000000000000e+00" purity="5.3916311264038086e-01" nType="1"/>\n          <Node pos="r" depth="2" NCoef="0" IVar="15" Cut="7.5042122602462769e-01" cType="0" res="-9.9000000000000000e+01" rms="0.0000000000000000e+00" purity="4.9217006564140320e-01" nType="0">\n            <Node pos="l" depth="3" NCoef="0" IVar="-1" Cut="0.0000000000000000e+00" cType="1" res="-9.9000000000000000e+01" rms="0.0000000000000000e+00" purity="5.1577723026275635e-01" nType="1"/>\n            <Node pos="r" depth="3" NCoef="0" IVar="-1" Cut="0.0000000000000000e+00" cType="1" res="-9.9000000000000000e+01" rms="0.0000000000000000e+00" purity="4.3081757426261902e-01" nType="-1"/>\n          </Node>\n        </Node>\n        <Node pos="r" depth="1" NCoef="0" IVar="-1" Cut="0.0000000000000000e+00" cType="1" res="-9.9000000000000000e+01" rms="0.0000000000000000e+00" purity="4.3571063876152039e-01" nType="-1"/>\n      </Node>\n    </BinaryTree>\n    <BinaryTree type="DecisionTree" boostWeight="5.1455022829673958e-02" itree="39">\n      <Node pos="s" depth="0" NCoef="0" IVar="8" Cut="-7.3303067684173584e-01" cType="0" res="-9.9000000000000000e+01" rms="0.0000000000000000e+00" purity="4.8784878849983215e-01" nType="0">\n        <Node pos="l" depth="1" NCoef="0" IVar="13" Cut="-9.0476191043853760e-01" cType="1" res="-9.9000000000000000e+01" rms="0.0000000000000000e+00" purity="4.9920451641082764e-01" nType="0">\n          <Node pos="l" depth="2" NCoef="0" IVar="18" Cut="7.7644062042236328e-01" cType="0" res="-9.9000000000000000e+01" rms="0.0000000000000000e+00" purity="5.0909250974655151e-01" nType="0">\n            <Node pos="l" depth="3" NCoef="0" IVar="-1" Cut="0.0000000000000000e+00" cType="1" res="-9.9000000000000000e+01" rms="0.0000000000000000e+00" purity="5.3232109546661377e-01" nType="1"/>\n            <Node pos="r" depth="3" NCoef="0" IVar="-1" Cut="0.0000000000000000e+00" cType="1" res="-9.9000000000000000e+01" rms="0.0000000000000000e+00" purity="4.9363842606544495e-01" nType="-1"/>\n          </Node>\n          <Node pos="r" depth="2" NCoef="0" IVar="15" Cut="7.6185864210128784e-01" cType="0" res="-9.9000000000000000e+01" rms="0.0000000000000000e+00" purity="4.7849386930465698e-01" nType="0">\n            <Node pos="l" depth="3" NCoef="0" IVar="-1" Cut="0.0000000000000000e+00" cType="1" res="-9.9000000000000000e+01" rms="0.0000000000000000e+00" purity="5.1019060611724854e-01" nType="1"/>\n            <Node pos="r" depth="3" NCoef="0" IVar="-1" Cut="0.0000000000000000e+00" cType="1" res="-9.9000000000000000e+01" rms="0.0000000000000000e+00" purity="4.0912181138992310e-01" nType="-1"/>\n          </Node>\n        </Node>\n        <Node pos="r" depth="1" NCoef="0" IVar="-1" Cut="1.7460322380065918e-01" cType="1" res="-9.9000000000000000e+01" rms="0.0000000000000000e+00" purity="4.6962746977806091e-01" nType="-1"/>\n      </Node>\n    </BinaryTree>\n    <BinaryTree type="DecisionTree" boostWeight="4.2391294770963650e-02" itree="40">\n      <Node pos="s" depth="0" NCoef="0" IVar="7" Cut="-3.6842104792594910e-01" cType="1" res="-9.9000000000000000e+01" rms="0.0000000000000000e+00" purity="4.9290058016777039e-01" nType="0">\n        <Node pos="l" depth="1" NCoef="0" IVar="17" Cut="6.9447720050811768e-01" cType="1" res="-9.9000000000000000e+01" rms="0.0000000000000000e+00" purity="5.0005596876144409e-01" nType="0">\n          <Node pos="l" depth="2" NCoef="0" IVar="-1" Cut="0.0000000000000000e+00" cType="1" res="-9.9000000000000000e+01" rms="0.0000000000000000e+00" purity="5.4464429616928101e-01" nType="1"/>\n          <Node pos="r" depth="2" NCoef="0" IVar="17" Cut="7.4827319383621216e-01" cType="1" res="-9.9000000000000000e+01" rms="0.0000000000000000e+00" purity="4.9541395902633667e-01" nType="0">\n            <Node pos="l" depth="3" NCoef="0" IVar="-1" Cut="0.0000000000000000e+00" cType="1" res="-9.9000000000000000e+01" rms="0.0000000000000000e+00" purity="5.0797772407531738e-01" nType="1"/>\n            <Node pos="r" depth="3" NCoef="0" IVar="-1" Cut="0.0000000000000000e+00" cType="1" res="-9.9000000000000000e+01" rms="0.0000000000000000e+00" purity="4.5714062452316284e-01" nType="-1"/>\n          </Node>\n        </Node>\n        <Node pos="r" depth="1" NCoef="0" IVar="-1" Cut="7.7010387182235718e-01" cType="0" res="-9.9000000000000000e+01" rms="0.0000000000000000e+00" purity="4.7357770800590515e-01" nType="-1"/>\n      </Node>\n    </BinaryTree>\n    <BinaryTree type="DecisionTree" boostWeight="4.9450251398755425e-02" itree="41">\n      <Node pos="s" depth="0" NCoef="0" IVar="4" Cut="-9.0476191043853760e-01" cType="1" res="-9.9000000000000000e+01" rms="0.0000000000000000e+00" purity="4.9148538708686829e-01" nType="0">\n        <Node pos="l" depth="1" NCoef="0" IVar="1" Cut="-9.5181936025619507e-01" cType="1" res="-9.9000000000000000e+01" rms="0.0000000000000000e+00" purity="4.9777457118034363e-01" nType="0">\n          <Node pos="l" depth="2" NCoef="0" IVar="2" Cut="-4.8618906736373901e-01" cType="0" res="-9.9000000000000000e+01" rms="0.0000000000000000e+00" purity="5.0348818302154541e-01" nType="0">\n            <Node pos="l" depth="3" NCoef="0" IVar="-1" Cut="0.0000000000000000e+00" cType="1" res="-9.9000000000000000e+01" rms="0.0000000000000000e+00" purity="5.3063195943832397e-01" nType="1"/>\n            <Node pos="r" depth="3" NCoef="0" IVar="-1" Cut="0.0000000000000000e+00" cType="1" res="-9.9000000000000000e+01" rms="0.0000000000000000e+00" purity="4.9144876003265381e-01" nType="-1"/>\n          </Node>\n          <Node pos="r" depth="2" NCoef="0" IVar="-1" Cut="0.0000000000000000e+00" cType="1" res="-9.9000000000000000e+01" rms="0.0000000000000000e+00" purity="4.3106430768966675e-01" nType="-1"/>\n        </Node>\n        <Node pos="r" depth="1" NCoef="0" IVar="13" Cut="-9.0476191043853760e-01" cType="1" res="-9.9000000000000000e+01" rms="0.0000000000000000e+00" purity="4.7817942500114441e-01" nType="0">\n          <Node pos="l" depth="2" NCoef="0" IVar="1" Cut="-9.9412202835083008e-01" cType="0" res="-9.9000000000000000e+01" rms="0.0000000000000000e+00" purity="4.9251541495323181e-01" nType="0">\n            <Node pos="l" depth="3" NCoef="0" IVar="-1" Cut="0.0000000000000000e+00" cType="1" res="-9.9000000000000000e+01" rms="0.0000000000000000e+00" purity="5.1386195421218872e-01" nType="1"/>\n            <Node pos="r" depth="3" NCoef="0" IVar="-1" Cut="0.0000000000000000e+00" cType="1" res="-9.9000000000000000e+01" rms="0.0000000000000000e+00" purity="4.4402319192886353e-01" nType="-1"/>\n          </Node>\n          <Node pos="r" depth="2" NCoef="0" IVar="-1" Cut="0.0000000000000000e+00" cType="1" res="-9.9000000000000000e+01" rms="0.0000000000000000e+00" purity="4.4224393367767334e-01" nType="-1"/>\n        </Node>\n      </Node>\n    </BinaryTree>\n    <BinaryTree type="DecisionTree" boostWeight="5.1215196678760490e-02" itree="42">\n      <Node pos="s" depth="0" NCoef="0" IVar="4" Cut="-9.0476191043853760e-01" cType="1" res="-9.9000000000000000e+01" rms="0.0000000000000000e+00" purity="4.9515074491500854e-01" nType="0">\n        <Node pos="l" depth="1" NCoef="0" IVar="1" Cut="-9.5181936025619507e-01" cType="1" res="-9.9000000000000000e+01" rms="0.0000000000000000e+00" purity="5.0314134359359741e-01" nType="0">\n          <Node pos="l" depth="2" NCoef="0" IVar="5" Cut="-9.7523695230484009e-01" cType="0" res="-9.9000000000000000e+01" rms="0.0000000000000000e+00" purity="5.0825899839401245e-01" nType="0">\n            <Node pos="l" depth="3" NCoef="0" IVar="-1" Cut="0.0000000000000000e+00" cType="1" res="-9.9000000000000000e+01" rms="0.0000000000000000e+00" purity="5.1348412036895752e-01" nType="1"/>\n            <Node pos="r" depth="3" NCoef="0" IVar="-1" Cut="0.0000000000000000e+00" cType="1" res="-9.9000000000000000e+01" rms="0.0000000000000000e+00" purity="4.6496218442916870e-01" nType="-1"/>\n          </Node>\n          <Node pos="r" depth="2" NCoef="0" IVar="-1" Cut="0.0000000000000000e+00" cType="1" res="-9.9000000000000000e+01" rms="0.0000000000000000e+00" purity="4.4323086738586426e-01" nType="-1"/>\n        </Node>\n        <Node pos="r" depth="1" NCoef="0" IVar="3" Cut="6.8027633242309093e-03" cType="1" res="-9.9000000000000000e+01" rms="0.0000000000000000e+00" purity="4.7823163866996765e-01" nType="0">\n          <Node pos="l" depth="2" NCoef="0" IVar="3" Cut="-9.5238097012042999e-02" cType="0" res="-9.9000000000000000e+01" rms="0.0000000000000000e+00" purity="4.9967944622039795e-01" nType="0">\n            <Node pos="l" depth="3" NCoef="0" IVar="-1" Cut="0.0000000000000000e+00" cType="1" res="-9.9000000000000000e+01" rms="0.0000000000000000e+00" purity="5.4247897863388062e-01" nType="1"/>\n            <Node pos="r" depth="3" NCoef="0" IVar="-1" Cut="0.0000000000000000e+00" cType="1" res="-9.9000000000000000e+01" rms="0.0000000000000000e+00" purity="4.6915319561958313e-01" nType="-1"/>\n          </Node>\n          <Node pos="r" depth="2" NCoef="0" IVar="-1" Cut="-3.5092115402221680e-01" cType="0" res="-9.9000000000000000e+01" rms="0.0000000000000000e+00" purity="4.5674842596054077e-01" nType="-1"/>\n        </Node>\n      </Node>\n    </BinaryTree>\n    <BinaryTree type="DecisionTree" boostWeight="4.2103106979721049e-02" itree="43">\n      <Node pos="s" depth="0" NCoef="0" IVar="12" Cut="-9.0476191043853760e-01" cType="1" res="-9.9000000000000000e+01" rms="0.0000000000000000e+00" purity="4.9193465709686279e-01" nType="0">\n        <Node pos="l" depth="1" NCoef="0" IVar="16" Cut="7.6425504684448242e-01" cType="1" res="-9.9000000000000000e+01" rms="0.0000000000000000e+00" purity="5.1518565416336060e-01" nType="0">\n          <Node pos="l" depth="2" NCoef="0" IVar="-1" Cut="0.0000000000000000e+00" cType="1" res="-9.9000000000000000e+01" rms="0.0000000000000000e+00" purity="5.7297539710998535e-01" nType="1"/>\n          <Node pos="r" depth="2" NCoef="0" IVar="-1" Cut="0.0000000000000000e+00" cType="1" res="-9.9000000000000000e+01" rms="0.0000000000000000e+00" purity="4.8253437876701355e-01" nType="-1"/>\n        </Node>\n        <Node pos="r" depth="1" NCoef="0" IVar="17" Cut="7.0317405462265015e-01" cType="0" res="-9.9000000000000000e+01" rms="0.0000000000000000e+00" purity="4.8817005753517151e-01" nType="0">\n          <Node pos="l" depth="2" NCoef="0" IVar="17" Cut="7.5531119108200073e-01" cType="1" res="-9.9000000000000000e+01" rms="0.0000000000000000e+00" purity="4.9489787220954895e-01" nType="0">\n            <Node pos="l" depth="3" NCoef="0" IVar="-1" Cut="0.0000000000000000e+00" cType="1" res="-9.9000000000000000e+01" rms="0.0000000000000000e+00" purity="5.0469875335693359e-01" nType="1"/>\n            <Node pos="r" depth="3" NCoef="0" IVar="-1" Cut="0.0000000000000000e+00" cType="1" res="-9.9000000000000000e+01" rms="0.0000000000000000e+00" purity="4.6420779824256897e-01" nType="-1"/>\n          </Node>\n          <Node pos="r" depth="2" NCoef="0" IVar="-1" Cut="0.0000000000000000e+00" cType="1" res="-9.9000000000000000e+01" rms="0.0000000000000000e+00" purity="4.1225340962409973e-01" nType="-1"/>\n        </Node>\n      </Node>\n    </BinaryTree>\n    <BinaryTree type="DecisionTree" boostWeight="4.9583563913127994e-02" itree="44">\n      <Node pos="s" depth="0" NCoef="0" IVar="19" Cut="8.9935195446014404e-01" cType="0" res="-9.9000000000000000e+01" rms="0.0000000000000000e+00" purity="4.8877730965614319e-01" nType="0">\n        <Node pos="l" depth="1" NCoef="0" IVar="-1" Cut="0.0000000000000000e+00" cType="1" res="-9.9000000000000000e+01" rms="0.0000000000000000e+00" purity="5.2031999826431274e-01" nType="1"/>\n        <Node pos="r" depth="1" NCoef="0" IVar="12" Cut="-9.0476191043853760e-01" cType="1" res="-9.9000000000000000e+01" rms="0.0000000000000000e+00" purity="4.8221564292907715e-01" nType="0">\n          <Node pos="l" depth="2" NCoef="0" IVar="3" Cut="-2.9478453099727631e-02" cType="1" res="-9.9000000000000000e+01" rms="0.0000000000000000e+00" purity="5.1813954114913940e-01" nType="0">\n            <Node pos="l" depth="3" NCoef="0" IVar="-1" Cut="0.0000000000000000e+00" cType="1" res="-9.9000000000000000e+01" rms="0.0000000000000000e+00" purity="5.6213557720184326e-01" nType="1"/>\n            <Node pos="r" depth="3" NCoef="0" IVar="-1" Cut="0.0000000000000000e+00" cType="1" res="-9.9000000000000000e+01" rms="0.0000000000000000e+00" purity="4.9134212732315063e-01" nType="-1"/>\n          </Node>\n          <Node pos="r" depth="2" NCoef="0" IVar="-1" Cut="7.4598264694213867e-01" cType="0" res="-9.9000000000000000e+01" rms="0.0000000000000000e+00" purity="4.7495034337043762e-01" nType="-1"/>\n        </Node>\n      </Node>\n    </BinaryTree>\n    <BinaryTree type="DecisionTree" boostWeight="6.9311839977015663e-02" itree="45">\n      <Node pos="s" depth="0" NCoef="0" IVar="12" Cut="-9.0476191043853760e-01" cType="1" res="-9.9000000000000000e+01" rms="0.0000000000000000e+00" purity="4.9559038877487183e-01" nType="0">\n        <Node pos="l" depth="1" NCoef="0" IVar="-1" Cut="7.6425504684448242e-01" cType="1" res="-9.9000000000000000e+01" rms="0.0000000000000000e+00" purity="5.2118074893951416e-01" nType="1"/>\n        <Node pos="r" depth="1" NCoef="0" IVar="15" Cut="7.5042122602462769e-01" cType="0" res="-9.9000000000000000e+01" rms="0.0000000000000000e+00" purity="4.9145132303237915e-01" nType="0">\n          <Node pos="l" depth="2" NCoef="0" IVar="17" Cut="7.5791722536087036e-01" cType="1" res="-9.9000000000000000e+01" rms="0.0000000000000000e+00" purity="5.0469571352005005e-01" nType="0">\n            <Node pos="l" depth="3" NCoef="0" IVar="-1" Cut="0.0000000000000000e+00" cType="1" res="-9.9000000000000000e+01" rms="0.0000000000000000e+00" purity="5.2199888229370117e-01" nType="1"/>\n            <Node pos="r" depth="3" NCoef="0" IVar="-1" Cut="0.0000000000000000e+00" cType="1" res="-9.9000000000000000e+01" rms="0.0000000000000000e+00" purity="4.4993722438812256e-01" nType="-1"/>\n          </Node>\n          <Node pos="r" depth="2" NCoef="0" IVar="17" Cut="7.1924936771392822e-01" cType="0" res="-9.9000000000000000e+01" rms="0.0000000000000000e+00" purity="4.5634466409683228e-01" nType="0">\n            <Node pos="l" depth="3" NCoef="0" IVar="-1" Cut="0.0000000000000000e+00" cType="1" res="-9.9000000000000000e+01" rms="0.0000000000000000e+00" purity="5.0952810049057007e-01" nType="1"/>\n            <Node pos="r" depth="3" NCoef="0" IVar="-1" Cut="0.0000000000000000e+00" cType="1" res="-9.9000000000000000e+01" rms="0.0000000000000000e+00" purity="3.2696375250816345e-01" nType="-1"/>\n          </Node>\n        </Node>\n      </Node>\n    </BinaryTree>\n    <BinaryTree type="DecisionTree" boostWeight="5.3572852358932332e-02" itree="46">\n      <Node pos="s" depth="0" NCoef="0" IVar="12" Cut="-9.0476191043853760e-01" cType="1" res="-9.9000000000000000e+01" rms="0.0000000000000000e+00" purity="4.8890826106071472e-01" nType="0">\n        <Node pos="l" depth="1" NCoef="0" IVar="8" Cut="-7.0421731472015381e-01" cType="0" res="-9.9000000000000000e+01" rms="0.0000000000000000e+00" purity="5.2607566118240356e-01" nType="0">\n          <Node pos="l" depth="2" NCoef="0" IVar="-1" Cut="0.0000000000000000e+00" cType="1" res="-9.9000000000000000e+01" rms="0.0000000000000000e+00" purity="5.4835671186447144e-01" nType="1"/>\n          <Node pos="r" depth="2" NCoef="0" IVar="-1" Cut="0.0000000000000000e+00" cType="1" res="-9.9000000000000000e+01" rms="0.0000000000000000e+00" purity="4.9122184514999390e-01" nType="-1"/>\n        </Node>\n        <Node pos="r" depth="1" NCoef="0" IVar="18" Cut="7.9281014204025269e-01" cType="0" res="-9.9000000000000000e+01" rms="0.0000000000000000e+00" purity="4.8289093375205994e-01" nType="0">\n          <Node pos="l" depth="2" NCoef="0" IVar="-1" Cut="-6.8736922740936279e-01" cType="1" res="-9.9000000000000000e+01" rms="0.0000000000000000e+00" purity="5.1334750652313232e-01" nType="1"/>\n          <Node pos="r" depth="2" NCoef="0" IVar="-1" Cut="7.4598264694213867e-01" cType="0" res="-9.9000000000000000e+01" rms="0.0000000000000000e+00" purity="4.6828076243400574e-01" nType="-1"/>\n        </Node>\n      </Node>\n    </BinaryTree>\n    <BinaryTree type="DecisionTree" boostWeight="5.1915944929925038e-02" itree="47">\n      <Node pos="s" depth="0" NCoef="0" IVar="12" Cut="-9.0476191043853760e-01" cType="1" res="-9.9000000000000000e+01" rms="0.0000000000000000e+00" purity="4.9253916740417480e-01" nType="0">\n        <Node pos="l" depth="1" NCoef="0" IVar="-1" Cut="9.8901137709617615e-02" cType="1" res="-9.9000000000000000e+01" rms="0.0000000000000000e+00" purity="5.2316999435424805e-01" nType="1"/>\n        <Node pos="r" depth="1" NCoef="0" IVar="15" Cut="7.5042122602462769e-01" cType="0" res="-9.9000000000000000e+01" rms="0.0000000000000000e+00" purity="4.8758202791213989e-01" nType="0">\n          <Node pos="l" depth="2" NCoef="0" IVar="17" Cut="7.5791722536087036e-01" cType="1" res="-9.9000000000000000e+01" rms="0.0000000000000000e+00" purity="4.9881717562675476e-01" nType="0">\n            <Node pos="l" depth="3" NCoef="0" IVar="-1" Cut="0.0000000000000000e+00" cType="1" res="-9.9000000000000000e+01" rms="0.0000000000000000e+00" purity="5.1263940334320068e-01" nType="1"/>\n            <Node pos="r" depth="3" NCoef="0" IVar="-1" Cut="0.0000000000000000e+00" cType="1" res="-9.9000000000000000e+01" rms="0.0000000000000000e+00" purity="4.5506021380424500e-01" nType="-1"/>\n          </Node>\n          <Node pos="r" depth="2" NCoef="0" IVar="-1" Cut="7.1924936771392822e-01" cType="0" res="-9.9000000000000000e+01" rms="0.0000000000000000e+00" purity="4.5767799019813538e-01" nType="-1"/>\n        </Node>\n      </Node>\n    </BinaryTree>\n    <BinaryTree type="DecisionTree" boostWeight="6.8287438940220199e-02" itree="48">\n      <Node pos="s" depth="0" NCoef="0" IVar="10" Cut="-9.0476191043853760e-01" cType="0" res="-9.9000000000000000e+01" rms="0.0000000000000000e+00" purity="4.8954713344573975e-01" nType="0">\n        <Node pos="l" depth="1" NCoef="0" IVar="19" Cut="8.6411511898040771e-01" cType="1" res="-9.9000000000000000e+01" rms="0.0000000000000000e+00" purity="4.9523895978927612e-01" nType="0">\n          <Node pos="l" depth="2" NCoef="0" IVar="15" Cut="7.3478460311889648e-01" cType="0" res="-9.9000000000000000e+01" rms="0.0000000000000000e+00" purity="5.1503711938858032e-01" nType="0">\n            <Node pos="l" depth="3" NCoef="0" IVar="-1" Cut="0.0000000000000000e+00" cType="1" res="-9.9000000000000000e+01" rms="0.0000000000000000e+00" purity="5.5215972661972046e-01" nType="1"/>\n            <Node pos="r" depth="3" NCoef="0" IVar="-1" Cut="0.0000000000000000e+00" cType="1" res="-9.9000000000000000e+01" rms="0.0000000000000000e+00" purity="4.4113361835479736e-01" nType="-1"/>\n          </Node>\n          <Node pos="r" depth="2" NCoef="0" IVar="-1" Cut="8.7031704187393188e-01" cType="0" res="-9.9000000000000000e+01" rms="0.0000000000000000e+00" purity="4.8130077123641968e-01" nType="-1"/>\n        </Node>\n        <Node pos="r" depth="1" NCoef="0" IVar="-1" Cut="7.6403701305389404e-01" cType="0" res="-9.9000000000000000e+01" rms="0.0000000000000000e+00" purity="4.6291056275367737e-01" nType="-1"/>\n      </Node>\n    </BinaryTree>\n    <BinaryTree type="DecisionTree" boostWeight="3.9224544823107436e-02" itree="49">\n      <Node pos="s" depth="0" NCoef="0" IVar="19" Cut="8.9935195446014404e-01" cType="0" res="-9.9000000000000000e+01" rms="0.0000000000000000e+00" purity="4.9887606501579285e-01" nType="0">\n        <Node pos="l" depth="1" NCoef="0" IVar="-1" Cut="0.0000000000000000e+00" cType="1" res="-9.9000000000000000e+01" rms="0.0000000000000000e+00" purity="5.2991718053817749e-01" nType="1"/>\n        <Node pos="r" depth="1" NCoef="0" IVar="1" Cut="-9.6967238187789917e-01" cType="1" res="-9.9000000000000000e+01" rms="0.0000000000000000e+00" purity="4.9240621924400330e-01" nType="0">\n          <Node pos="l" depth="2" NCoef="0" IVar="30" Cut="5.8330321311950684e-01" cType="1" res="-9.9000000000000000e+01" rms="0.0000000000000000e+00" purity="4.9788358807563782e-01" nType="0">\n            <Node pos="l" depth="3" NCoef="0" IVar="-1" Cut="0.0000000000000000e+00" cType="1" res="-9.9000000000000000e+01" rms="0.0000000000000000e+00" purity="5.0626122951507568e-01" nType="1"/>\n            <Node pos="r" depth="3" NCoef="0" IVar="-1" Cut="0.0000000000000000e+00" cType="1" res="-9.9000000000000000e+01" rms="0.0000000000000000e+00" purity="4.2642927169799805e-01" nType="-1"/>\n          </Node>\n          <Node pos="r" depth="2" NCoef="0" IVar="-1" Cut="0.0000000000000000e+00" cType="1" res="-9.9000000000000000e+01" rms="0.0000000000000000e+00" purity="4.5240175724029541e-01" nType="-1"/>\n        </Node>\n      </Node>\n    </BinaryTree>\n  </Weights>\n</MethodSetup>\n'
p86
sS'n_classes_'
p87
I2
sS'sigmoid_function'
p88
S'bdt'
p89
sS'method'
p90
S'kBDT'
p91
sS'_method_name'
p92
S'REP_Estimator'
p93
sS'method_parameters'
p94
(dp95
S'VarTransform'
p96
S'Norm'
p97
sS'PruningValFraction'
p98
F0.29999999999999999
sS'NTrees'
p99
I50
sS'PruneStrength'
p100
I-1
sS'H'
S'false'
p101
sS'PruneMethod'
p102
S'CostComplexity'
p103
sS'MaxDepth'
p104
I3
sS'V'
S'true'
p105
sS'BoostType'
p106
S'AdaBoost'
p107
ssb.