ccopy_reg
_reconstructor
p0
(crep.estimators.tmva
TMVAClassifier
p1
c__builtin__
object
p2
Ntp3
Rp4
(dp5
S'classes_'
p6
cnumpy.core.multiarray
_reconstruct
p7
(cnumpy
ndarray
p8
(I0
tp9
S'b'
p10
tp11
Rp12
(I1
(I2
tp13
cnumpy
dtype
p14
(S'i4'
p15
I0
I1
tp16
Rp17
(I3
S'<'
p18
NNNI-1
I-1
I0
tp19
bI00
S'\x00\x00\x00\x00\x01\x00\x00\x00'
p20
tp21
bsS'features'
p22
(lp23
S'Feature_0'
p24
aS'Feature_1'
p25
aS'Feature_2'
p26
aS'Feature_3'
p27
aS'Feature_4'
p28
aS'Feature_5'
p29
aS'Feature_6'
p30
aS'Feature_7'
p31
aS'Feature_8'
p32
aS'Feature_9'
p33
aS'Feature_10'
p34
aS'Feature_11'
p35
aS'Feature_12'
p36
aS'Feature_13'
p37
aS'Feature_14'
p38
aS'Feature_15'
p39
aS'Feature_16'
p40
aS'Feature_17'
p41
aS'Feature_18'
p42
aS'Feature_19'
p43
aS'Feature_20'
p44
aS'Feature_21'
p45
aS'Feature_22'
p46
aS'Feature_23'
p47
aS'Feature_24'
p48
aS'Feature_25'
p49
aS'Feature_26'
p50
aS'Feature_27'
p51
aS'Feature_28'
p52
aS'Feature_29'
p53
aS'Feature_30'
p54
aS'Feature_31'
p55
asS'n_classes_'
p56
I2
sS'sigmoid_function'
p57
S'bdt'
p58
sS'_method_name'
p59
S'REP_Estimator'
p60
sS'method_parameters'
p61
(dp62
S'VarTransform'
p63
S'Norm'
p64
sS'PruningValFraction'
p65
F0.3
sS'NTrees'
p66
I50
sS'PruneStrength'
p67
I-1
sS'H'
p68
S'false'
p69
sS'PruneMethod'
p70
S'CostComplexity'
p71
sS'MaxDepth'
p72
I3
sS'V'
p73
S'true'
p74
sS'BoostType'
p75
S'AdaBoost'
p76
ssS'factory_options'
p77
S'V:!Silent:!Color:!DrawProgressBar:AnalysisType=Classification:AnalysisType=Classification'
p78
sS'method'
p79
S'kBDT'
p80
sS'formula_xml'
p81
S'<?xml version="1.0"?>\n<MethodSetup Method="BDT::REP_Estimator">\n  <GeneralInfo>\n    <Info name="TMVA Release" value="4.2.0 [262656]"/>\n    <Info name="ROOT Release" value="5.34/32 [336416]"/>\n    <Info name="Creator" value="root"/>\n    <Info name="Date" value="Thu Feb 25 16:04:22 2016"/>\n    <Info name="Host" value="Linux localhost.localdomain 2.6.32-431.1.2.el6.x86_64 #1 SMP Thu Dec 12 13:59:19 CST 2013 x86_64 x86_64 x86_64 GNU/Linux"/>\n    <Info name="Dir" value="/notebooks/PID/sergey_korolev/tmpCsXEHz"/>\n    <Info name="Training events" value="120000"/>\n    <Info name="TrainingTime" value="1.05307310e+01"/>\n    <Info name="AnalysisType" value="Classification"/>\n  </GeneralInfo>\n  <Options>\n    <Option name="V" modified="Yes">True</Option>\n    <Option name="VerbosityLevel" modified="No">Verbose</Option>\n    <Option name="VarTransform" modified="Yes">Norm</Option>\n    <Option name="H" modified="Yes">False</Option>\n    <Option name="CreateMVAPdfs" modified="No">False</Option>\n    <Option name="IgnoreNegWeightsInTraining" modified="No">False</Option>\n    <Option name="NTrees" modified="Yes">50</Option>\n    <Option name="MaxDepth" modified="Yes">3</Option>\n    <Option name="MinNodeSize" modified="No">5%</Option>\n    <Option name="nCuts" modified="No">20</Option>\n    <Option name="BoostType" modified="Yes">AdaBoost</Option>\n    <Option name="AdaBoostR2Loss" modified="No">quadratic</Option>\n    <Option name="UseBaggedBoost" modified="No">False</Option>\n    <Option name="Shrinkage" modified="No">1.000000e+00</Option>\n    <Option name="AdaBoostBeta" modified="No">5.000000e-01</Option>\n    <Option name="UseRandomisedTrees" modified="No">False</Option>\n    <Option name="UseNvars" modified="No">6</Option>\n    <Option name="UsePoissonNvars" modified="No">True</Option>\n    <Option name="BaggedSampleFraction" modified="No">6.000000e-01</Option>\n    <Option name="UseYesNoLeaf" modified="No">True</Option>\n    <Option name="NegWeightTreatment" modified="No">inverseboostnegweights</Option>\n    <Option name="Css" modified="No">1.000000e+00</Option>\n    <Option name="Cts_sb" modified="No">1.000000e+00</Option>\n    <Option name="Ctb_ss" modified="No">1.000000e+00</Option>\n    <Option name="Cbb" modified="No">1.000000e+00</Option>\n    <Option name="NodePurityLimit" modified="No">5.000000e-01</Option>\n    <Option name="SeparationType" modified="No">giniindex</Option>\n    <Option name="DoBoostMonitor" modified="No">False</Option>\n    <Option name="UseFisherCuts" modified="No">False</Option>\n    <Option name="MinLinCorrForFisher" modified="No">8.000000e-01</Option>\n    <Option name="UseExclusiveVars" modified="No">False</Option>\n    <Option name="DoPreselection" modified="No">False</Option>\n    <Option name="SigToBkgFraction" modified="No">1.000000e+00</Option>\n    <Option name="PruneMethod" modified="Yes">costcomplexity</Option>\n    <Option name="PruneStrength" modified="Yes">-1.000000e+00</Option>\n    <Option name="PruningValFraction" modified="Yes">3.000000e-01</Option>\n    <Option name="nEventsMin" modified="No">0</Option>\n    <Option name="UseBaggedGrad" modified="No">False</Option>\n    <Option name="GradBaggingFraction" modified="No">6.000000e-01</Option>\n    <Option name="UseNTrainEvents" modified="No">0</Option>\n    <Option name="NNodesMax" modified="No">0</Option>\n  </Options>\n  <Variables NVar="32">\n    <Variable VarIndex="0" Expression="Feature_0" Label="Feature_0" Title="Feature_0" Unit="" Internal="Feature_0" Type="F" Min="1.15967004e+03" Max="1.13558638e+06"/>\n    <Variable VarIndex="1" Expression="Feature_1" Label="Feature_1" Title="Feature_1" Unit="" Internal="Feature_1" Type="F" Min="6.90499830e+00" Max="6.83289922e+04"/>\n    <Variable VarIndex="2" Expression="Feature_2" Label="Feature_2" Title="Feature_2" Unit="" Internal="Feature_2" Type="F" Min="1.24249414e-01" Max="3.99916315e+00"/>\n    <Variable VarIndex="3" Expression="Feature_3" Label="Feature_3" Title="Feature_3" Unit="" Internal="Feature_3" Type="F" Min="7.00000000e+00" Max="4.90000000e+01"/>\n    <Variable VarIndex="4" Expression="Feature_4" Label="Feature_4" Title="Feature_4" Unit="" Internal="Feature_4" Type="F" Min="1.54159404e-03" Max="3.99982750e-01"/>\n    <Variable VarIndex="5" Expression="Feature_5" Label="Feature_5" Title="Feature_5" Unit="" Internal="Feature_5" Type="F" Min="9.10696853e-03" Max="1.20970528e+02"/>\n    <Variable VarIndex="6" Expression="Feature_6" Label="Feature_6" Title="Feature_6" Unit="" Internal="Feature_6" Type="F" Min="1.97511457e-04" Max="9.81467972e+01"/>\n    <Variable VarIndex="7" Expression="Feature_7" Label="Feature_7" Title="Feature_7" Unit="" Internal="Feature_7" Type="F" Min="1.00000000e+00" Max="2.00000000e+01"/>\n    <Variable VarIndex="8" Expression="Feature_8" Label="Feature_8" Title="Feature_8" Unit="" Internal="Feature_8" Type="F" Min="1.41289094e-02" Max="9.80159302e+01"/>\n    <Variable VarIndex="9" Expression="Feature_9" Label="Feature_9" Title="Feature_9" Unit="" Internal="Feature_9" Type="F" Min="1.00000000e+00" Max="2.70000000e+01"/>\n    <Variable VarIndex="10" Expression="Feature_10" Label="Feature_10" Title="Feature_10" Unit="" Internal="Feature_10" Type="F" Min="0.00000000e+00" Max="1.00000000e+00"/>\n    <Variable VarIndex="11" Expression="Feature_11" Label="Feature_11" Title="Feature_11" Unit="" Internal="Feature_11" Type="F" Min="0.00000000e+00" Max="1.00000000e+00"/>\n    <Variable VarIndex="12" Expression="Feature_12" Label="Feature_12" Title="Feature_12" Unit="" Internal="Feature_12" Type="F" Min="0.00000000e+00" Max="1.00000000e+00"/>\n    <Variable VarIndex="13" Expression="Feature_13" Label="Feature_13" Title="Feature_13" Unit="" Internal="Feature_13" Type="F" Min="0.00000000e+00" Max="1.00000000e+00"/>\n    <Variable VarIndex="14" Expression="Feature_14" Label="Feature_14" Title="Feature_14" Unit="" Internal="Feature_14" Type="F" Min="-9.99000000e+02" Max="1.31175797e+02"/>\n    <Variable VarIndex="15" Expression="Feature_15" Label="Feature_15" Title="Feature_15" Unit="" Internal="Feature_15" Type="F" Min="-9.99000000e+02" Max="1.24875801e+02"/>\n    <Variable VarIndex="16" Expression="Feature_16" Label="Feature_16" Title="Feature_16" Unit="" Internal="Feature_16" Type="F" Min="-9.99000000e+02" Max="1.58692993e+02"/>\n    <Variable VarIndex="17" Expression="Feature_17" Label="Feature_17" Title="Feature_17" Unit="" Internal="Feature_17" Type="F" Min="-9.99000000e+02" Max="1.29497803e+02"/>\n    <Variable VarIndex="18" Expression="Feature_18" Label="Feature_18" Title="Feature_18" Unit="" Internal="Feature_18" Type="F" Min="-9.99000000e+02" Max="7.35431976e+01"/>\n    <Variable VarIndex="19" Expression="Feature_19" Label="Feature_19" Title="Feature_19" Unit="" Internal="Feature_19" Type="F" Min="-9.99000000e+02" Max="9.60000046e-03"/>\n    <Variable VarIndex="20" Expression="Feature_20" Label="Feature_20" Title="Feature_20" Unit="" Internal="Feature_20" Type="F" Min="-9.99000000e+02" Max="0.00000000e+00"/>\n    <Variable VarIndex="21" Expression="Feature_21" Label="Feature_21" Title="Feature_21" Unit="" Internal="Feature_21" Type="F" Min="0.00000000e+00" Max="3.30000000e+01"/>\n    <Variable VarIndex="22" Expression="Feature_22" Label="Feature_22" Title="Feature_22" Unit="" Internal="Feature_22" Type="F" Min="0.00000000e+00" Max="1.00000000e+00"/>\n    <Variable VarIndex="23" Expression="Feature_23" Label="Feature_23" Title="Feature_23" Unit="" Internal="Feature_23" Type="F" Min="-9.99000000e+02" Max="4.05479050e+00"/>\n    <Variable VarIndex="24" Expression="Feature_24" Label="Feature_24" Title="Feature_24" Unit="" Internal="Feature_24" Type="F" Min="-9.99000000e+02" Max="2.15297604e+00"/>\n    <Variable VarIndex="25" Expression="Feature_25" Label="Feature_25" Title="Feature_25" Unit="" Internal="Feature_25" Type="F" Min="0.00000000e+00" Max="1.00000000e+00"/>\n    <Variable VarIndex="26" Expression="Feature_26" Label="Feature_26" Title="Feature_26" Unit="" Internal="Feature_26" Type="F" Min="-9.99000000e+02" Max="2.72250462e+00"/>\n    <Variable VarIndex="27" Expression="Feature_27" Label="Feature_27" Title="Feature_27" Unit="" Internal="Feature_27" Type="F" Min="-9.99000000e+02" Max="2.87338901e+00"/>\n    <Variable VarIndex="28" Expression="Feature_28" Label="Feature_28" Title="Feature_28" Unit="" Internal="Feature_28" Type="F" Min="0.00000000e+00" Max="1.00000000e+00"/>\n    <Variable VarIndex="29" Expression="Feature_29" Label="Feature_29" Title="Feature_29" Unit="" Internal="Feature_29" Type="F" Min="-9.99000000e+02" Max="3.39547467e+00"/>\n    <Variable VarIndex="30" Expression="Feature_30" Label="Feature_30" Title="Feature_30" Unit="" Internal="Feature_30" Type="F" Min="0.00000000e+00" Max="1.00000000e+00"/>\n    <Variable VarIndex="31" Expression="Feature_31" Label="Feature_31" Title="Feature_31" Unit="" Internal="Feature_31" Type="F" Min="-9.99000000e+02" Max="4.79148388e+00"/>\n  </Variables>\n  <Spectators NSpec="0"/>\n  <Classes NClass="2">\n    <Class Name="Background" Index="0"/>\n    <Class Name="Signal" Index="1"/>\n  </Classes>\n  <Transformations NTransformations="1">\n    <Transform Name="Normalize">\n      <Selection>\n        <Input NInputs="32">\n          <Input Type="Variable" Label="Feature_0" Expression="Feature_0"/>\n          <Input Type="Variable" Label="Feature_1" Expression="Feature_1"/>\n          <Input Type="Variable" Label="Feature_2" Expression="Feature_2"/>\n          <Input Type="Variable" Label="Feature_3" Expression="Feature_3"/>\n          <Input Type="Variable" Label="Feature_4" Expression="Feature_4"/>\n          <Input Type="Variable" Label="Feature_5" Expression="Feature_5"/>\n          <Input Type="Variable" Label="Feature_6" Expression="Feature_6"/>\n          <Input Type="Variable" Label="Feature_7" Expression="Feature_7"/>\n          <Input Type="Variable" Label="Feature_8" Expression="Feature_8"/>\n          <Input Type="Variable" Label="Feature_9" Expression="Feature_9"/>\n          <Input Type="Variable" Label="Feature_10" Expression="Feature_10"/>\n          <Input Type="Variable" Label="Feature_11" Expression="Feature_11"/>\n          <Input Type="Variable" Label="Feature_12" Expression="Feature_12"/>\n          <Input Type="Variable" Label="Feature_13" Expression="Feature_13"/>\n          <Input Type="Variable" Label="Feature_14" Expression="Feature_14"/>\n          <Input Type="Variable" Label="Feature_15" Expression="Feature_15"/>\n          <Input Type="Variable" Label="Feature_16" Expression="Feature_16"/>\n          <Input Type="Variable" Label="Feature_17" Expression="Feature_17"/>\n          <Input Type="Variable" Label="Feature_18" Expression="Feature_18"/>\n          <Input Type="Variable" Label="Feature_19" Expression="Feature_19"/>\n          <Input Type="Variable" Label="Feature_20" Expression="Feature_20"/>\n          <Input Type="Variable" Label="Feature_21" Expression="Feature_21"/>\n          <Input Type="Variable" Label="Feature_22" Expression="Feature_22"/>\n          <Input Type="Variable" Label="Feature_23" Expression="Feature_23"/>\n          <Input Type="Variable" Label="Feature_24" Expression="Feature_24"/>\n          <Input Type="Variable" Label="Feature_25" Expression="Feature_25"/>\n          <Input Type="Variable" Label="Feature_26" Expression="Feature_26"/>\n          <Input Type="Variable" Label="Feature_27" Expression="Feature_27"/>\n          <Input Type="Variable" Label="Feature_28" Expression="Feature_28"/>\n          <Input Type="Variable" Label="Feature_29" Expression="Feature_29"/>\n          <Input Type="Variable" Label="Feature_30" Expression="Feature_30"/>\n          <Input Type="Variable" Label="Feature_31" Expression="Feature_31"/>\n        </Input>\n        <Output NOutputs="32">\n          <Output Type="Variable" Label="Feature_0" Expression="Feature_0"/>\n          <Output Type="Variable" Label="Feature_1" Expression="Feature_1"/>\n          <Output Type="Variable" Label="Feature_2" Expression="Feature_2"/>\n          <Output Type="Variable" Label="Feature_3" Expression="Feature_3"/>\n          <Output Type="Variable" Label="Feature_4" Expression="Feature_4"/>\n          <Output Type="Variable" Label="Feature_5" Expression="Feature_5"/>\n          <Output Type="Variable" Label="Feature_6" Expression="Feature_6"/>\n          <Output Type="Variable" Label="Feature_7" Expression="Feature_7"/>\n          <Output Type="Variable" Label="Feature_8" Expression="Feature_8"/>\n          <Output Type="Variable" Label="Feature_9" Expression="Feature_9"/>\n          <Output Type="Variable" Label="Feature_10" Expression="Feature_10"/>\n          <Output Type="Variable" Label="Feature_11" Expression="Feature_11"/>\n          <Output Type="Variable" Label="Feature_12" Expression="Feature_12"/>\n          <Output Type="Variable" Label="Feature_13" Expression="Feature_13"/>\n          <Output Type="Variable" Label="Feature_14" Expression="Feature_14"/>\n          <Output Type="Variable" Label="Feature_15" Expression="Feature_15"/>\n          <Output Type="Variable" Label="Feature_16" Expression="Feature_16"/>\n          <Output Type="Variable" Label="Feature_17" Expression="Feature_17"/>\n          <Output Type="Variable" Label="Feature_18" Expression="Feature_18"/>\n          <Output Type="Variable" Label="Feature_19" Expression="Feature_19"/>\n          <Output Type="Variable" Label="Feature_20" Expression="Feature_20"/>\n          <Output Type="Variable" Label="Feature_21" Expression="Feature_21"/>\n          <Output Type="Variable" Label="Feature_22" Expression="Feature_22"/>\n          <Output Type="Variable" Label="Feature_23" Expression="Feature_23"/>\n          <Output Type="Variable" Label="Feature_24" Expression="Feature_24"/>\n          <Output Type="Variable" Label="Feature_25" Expression="Feature_25"/>\n          <Output Type="Variable" Label="Feature_26" Expression="Feature_26"/>\n          <Output Type="Variable" Label="Feature_27" Expression="Feature_27"/>\n          <Output Type="Variable" Label="Feature_28" Expression="Feature_28"/>\n          <Output Type="Variable" Label="Feature_29" Expression="Feature_29"/>\n          <Output Type="Variable" Label="Feature_30" Expression="Feature_30"/>\n          <Output Type="Variable" Label="Feature_31" Expression="Feature_31"/>\n        </Output>\n      </Selection>\n      <Class ClassIndex="0">\n        <Ranges>\n          <Range Index="0" Min="1.1596700439453125e+03" Max="1.1355863750000000e+06"/>\n          <Range Index="1" Min="6.9049983024597168e+00" Max="6.8328992187500000e+04"/>\n          <Range Index="2" Min="1.2424941360950470e-01" Max="3.9991631507873535e+00"/>\n          <Range Index="3" Min="7.0000000000000000e+00" Max="4.9000000000000000e+01"/>\n          <Range Index="4" Min="1.5415940433740616e-03" Max="3.9998275041580200e-01"/>\n          <Range Index="5" Min="9.1069685295224190e-03" Max="1.2097052764892578e+02"/>\n          <Range Index="6" Min="1.9751145737245679e-04" Max="9.8146797180175781e+01"/>\n          <Range Index="7" Min="1.0000000000000000e+00" Max="2.0000000000000000e+01"/>\n          <Range Index="8" Min="1.4128909446299076e-02" Max="9.8015930175781250e+01"/>\n          <Range Index="9" Min="1.0000000000000000e+00" Max="2.7000000000000000e+01"/>\n          <Range Index="10" Min="0.0000000000000000e+00" Max="1.0000000000000000e+00"/>\n          <Range Index="11" Min="0.0000000000000000e+00" Max="1.0000000000000000e+00"/>\n          <Range Index="12" Min="0.0000000000000000e+00" Max="1.0000000000000000e+00"/>\n          <Range Index="13" Min="0.0000000000000000e+00" Max="1.0000000000000000e+00"/>\n          <Range Index="14" Min="-9.9900000000000000e+02" Max="1.3117579650878906e+02"/>\n          <Range Index="15" Min="-9.9900000000000000e+02" Max="1.1143769836425781e+02"/>\n          <Range Index="16" Min="-9.9900000000000000e+02" Max="1.5869299316406250e+02"/>\n          <Range Index="17" Min="-9.9900000000000000e+02" Max="1.2949780273437500e+02"/>\n          <Range Index="18" Min="-9.9900000000000000e+02" Max="7.3543197631835938e+01"/>\n          <Range Index="19" Min="-9.9900000000000000e+02" Max="9.6000004559755325e-03"/>\n          <Range Index="20" Min="-9.9900000000000000e+02" Max="0.0000000000000000e+00"/>\n          <Range Index="21" Min="0.0000000000000000e+00" Max="3.3000000000000000e+01"/>\n          <Range Index="22" Min="0.0000000000000000e+00" Max="1.0000000000000000e+00"/>\n          <Range Index="23" Min="-9.9900000000000000e+02" Max="4.0547904968261719e+00"/>\n          <Range Index="24" Min="-9.9900000000000000e+02" Max="2.1529760360717773e+00"/>\n          <Range Index="25" Min="0.0000000000000000e+00" Max="1.0000000000000000e+00"/>\n          <Range Index="26" Min="-9.9900000000000000e+02" Max="2.4863731861114502e+00"/>\n          <Range Index="27" Min="-9.9900000000000000e+02" Max="2.8733890056610107e+00"/>\n          <Range Index="28" Min="0.0000000000000000e+00" Max="1.0000000000000000e+00"/>\n          <Range Index="29" Min="-9.9900000000000000e+02" Max="3.3954746723175049e+00"/>\n          <Range Index="30" Min="0.0000000000000000e+00" Max="1.0000000000000000e+00"/>\n          <Range Index="31" Min="-9.9900000000000000e+02" Max="4.7914838790893555e+00"/>\n        </Ranges>\n      </Class>\n      <Class ClassIndex="1">\n        <Ranges>\n          <Range Index="0" Min="1.2910300292968750e+03" Max="7.0345656250000000e+05"/>\n          <Range Index="1" Min="3.4919788360595703e+01" Max="1.7113701171875000e+04"/>\n          <Range Index="2" Min="3.3545407652854919e-01" Max="3.9683296680450439e+00"/>\n          <Range Index="3" Min="9.0000000000000000e+00" Max="4.4000000000000000e+01"/>\n          <Range Index="4" Min="1.6001267358660698e-03" Max="3.9521303772926331e-01"/>\n          <Range Index="5" Min="1.2282031774520874e-01" Max="1.1162919616699219e+02"/>\n          <Range Index="6" Min="1.0634947568178177e-02" Max="3.1624235153198242e+01"/>\n          <Range Index="7" Min="1.0000000000000000e+00" Max="1.6000000000000000e+01"/>\n          <Range Index="8" Min="7.2375142574310303e-01" Max="6.5755477905273438e+01"/>\n          <Range Index="9" Min="2.0000000000000000e+00" Max="2.4000000000000000e+01"/>\n          <Range Index="10" Min="0.0000000000000000e+00" Max="1.0000000000000000e+00"/>\n          <Range Index="11" Min="0.0000000000000000e+00" Max="1.0000000000000000e+00"/>\n          <Range Index="12" Min="0.0000000000000000e+00" Max="1.0000000000000000e+00"/>\n          <Range Index="13" Min="0.0000000000000000e+00" Max="1.0000000000000000e+00"/>\n          <Range Index="14" Min="-9.9900000000000000e+02" Max="4.9010898590087891e+01"/>\n          <Range Index="15" Min="-9.9900000000000000e+02" Max="1.2487580108642578e+02"/>\n          <Range Index="16" Min="-9.9900000000000000e+02" Max="6.4107002258300781e+01"/>\n          <Range Index="17" Min="-9.9900000000000000e+02" Max="5.0605201721191406e+01"/>\n          <Range Index="18" Min="-9.9900000000000000e+02" Max="5.0605098724365234e+01"/>\n          <Range Index="19" Min="-9.9900000000000000e+02" Max="-2.7899999171495438e-02"/>\n          <Range Index="20" Min="-9.9900000000000000e+02" Max="0.0000000000000000e+00"/>\n          <Range Index="21" Min="0.0000000000000000e+00" Max="1.2000000000000000e+01"/>\n          <Range Index="22" Min="0.0000000000000000e+00" Max="1.0000000000000000e+00"/>\n          <Range Index="23" Min="-9.9900000000000000e+02" Max="3.7983922958374023e+00"/>\n          <Range Index="24" Min="-9.9900000000000000e+02" Max="2.1529760360717773e+00"/>\n          <Range Index="25" Min="0.0000000000000000e+00" Max="1.0000000000000000e+00"/>\n          <Range Index="26" Min="-9.9900000000000000e+02" Max="2.7225046157836914e+00"/>\n          <Range Index="27" Min="-9.9900000000000000e+02" Max="2.8733890056610107e+00"/>\n          <Range Index="28" Min="0.0000000000000000e+00" Max="1.0000000000000000e+00"/>\n          <Range Index="29" Min="-9.9900000000000000e+02" Max="1.7738091945648193e+00"/>\n          <Range Index="30" Min="0.0000000000000000e+00" Max="1.0000000000000000e+00"/>\n          <Range Index="31" Min="-9.9900000000000000e+02" Max="4.7914838790893555e+00"/>\n        </Ranges>\n      </Class>\n      <Class ClassIndex="2">\n        <Ranges>\n          <Range Index="0" Min="1.1596700439453125e+03" Max="1.1355863750000000e+06"/>\n          <Range Index="1" Min="6.9049983024597168e+00" Max="6.8328992187500000e+04"/>\n          <Range Index="2" Min="1.2424941360950470e-01" Max="3.9991631507873535e+00"/>\n          <Range Index="3" Min="7.0000000000000000e+00" Max="4.9000000000000000e+01"/>\n          <Range Index="4" Min="1.5415940433740616e-03" Max="3.9998275041580200e-01"/>\n          <Range Index="5" Min="9.1069685295224190e-03" Max="1.2097052764892578e+02"/>\n          <Range Index="6" Min="1.9751145737245679e-04" Max="9.8146797180175781e+01"/>\n          <Range Index="7" Min="1.0000000000000000e+00" Max="2.0000000000000000e+01"/>\n          <Range Index="8" Min="1.4128909446299076e-02" Max="9.8015930175781250e+01"/>\n          <Range Index="9" Min="1.0000000000000000e+00" Max="2.7000000000000000e+01"/>\n          <Range Index="10" Min="0.0000000000000000e+00" Max="1.0000000000000000e+00"/>\n          <Range Index="11" Min="0.0000000000000000e+00" Max="1.0000000000000000e+00"/>\n          <Range Index="12" Min="0.0000000000000000e+00" Max="1.0000000000000000e+00"/>\n          <Range Index="13" Min="0.0000000000000000e+00" Max="1.0000000000000000e+00"/>\n          <Range Index="14" Min="-9.9900000000000000e+02" Max="1.3117579650878906e+02"/>\n          <Range Index="15" Min="-9.9900000000000000e+02" Max="1.2487580108642578e+02"/>\n          <Range Index="16" Min="-9.9900000000000000e+02" Max="1.5869299316406250e+02"/>\n          <Range Index="17" Min="-9.9900000000000000e+02" Max="1.2949780273437500e+02"/>\n          <Range Index="18" Min="-9.9900000000000000e+02" Max="7.3543197631835938e+01"/>\n          <Range Index="19" Min="-9.9900000000000000e+02" Max="9.6000004559755325e-03"/>\n          <Range Index="20" Min="-9.9900000000000000e+02" Max="0.0000000000000000e+00"/>\n          <Range Index="21" Min="0.0000000000000000e+00" Max="3.3000000000000000e+01"/>\n          <Range Index="22" Min="0.0000000000000000e+00" Max="1.0000000000000000e+00"/>\n          <Range Index="23" Min="-9.9900000000000000e+02" Max="4.0547904968261719e+00"/>\n          <Range Index="24" Min="-9.9900000000000000e+02" Max="2.1529760360717773e+00"/>\n          <Range Index="25" Min="0.0000000000000000e+00" Max="1.0000000000000000e+00"/>\n          <Range Index="26" Min="-9.9900000000000000e+02" Max="2.7225046157836914e+00"/>\n          <Range Index="27" Min="-9.9900000000000000e+02" Max="2.8733890056610107e+00"/>\n          <Range Index="28" Min="0.0000000000000000e+00" Max="1.0000000000000000e+00"/>\n          <Range Index="29" Min="-9.9900000000000000e+02" Max="3.3954746723175049e+00"/>\n          <Range Index="30" Min="0.0000000000000000e+00" Max="1.0000000000000000e+00"/>\n          <Range Index="31" Min="-9.9900000000000000e+02" Max="4.7914838790893555e+00"/>\n        </Ranges>\n      </Class>\n    </Transform>\n  </Transformations>\n  <MVAPdfs/>\n  <Weights NTrees="50" AnalysisType="0">\n    <BinaryTree type="DecisionTree" boostWeight="1.0018459203777395e+00" itree="0">\n      <Node pos="s" depth="0" NCoef="0" IVar="19" Cut="-9.0476191043853760e-01" cType="0" res="-9.9000000000000000e+01" rms="0.0000000000000000e+00" purity="5.0000000000000000e-01" nType="0">\n        <Node pos="l" depth="1" NCoef="0" IVar="-1" Cut="0.0000000000000000e+00" cType="1" res="-9.9000000000000000e+01" rms="0.0000000000000000e+00" purity="9.2097812891006470e-01" nType="1"/>\n        <Node pos="r" depth="1" NCoef="0" IVar="-1" Cut="-9.0476191043853760e-01" cType="1" res="-9.9000000000000000e+01" rms="0.0000000000000000e+00" purity="1.5173628926277161e-01" nType="-1"/>\n      </Node>\n    </BinaryTree>\n    <BinaryTree type="DecisionTree" boostWeight="6.7455524616970730e-01" itree="1">\n      <Node pos="s" depth="0" NCoef="0" IVar="19" Cut="-9.0476191043853760e-01" cType="0" res="-9.9000000000000000e+01" rms="0.0000000000000000e+00" purity="5.3380340337753296e-01" nType="0">\n        <Node pos="l" depth="1" NCoef="0" IVar="-1" Cut="0.0000000000000000e+00" cType="1" res="-9.9000000000000000e+01" rms="0.0000000000000000e+00" purity="8.1059259176254272e-01" nType="1"/>\n        <Node pos="r" depth="1" NCoef="0" IVar="25" Cut="-9.0476191043853760e-01" cType="1" res="-9.9000000000000000e+01" rms="0.0000000000000000e+00" purity="3.2756885886192322e-01" nType="0">\n          <Node pos="l" depth="2" NCoef="0" IVar="-1" Cut="-9.0476191043853760e-01" cType="1" res="-9.9000000000000000e+01" rms="0.0000000000000000e+00" purity="6.1994743347167969e-01" nType="1"/>\n          <Node pos="r" depth="2" NCoef="0" IVar="-1" Cut="9.9525231122970581e-01" cType="0" res="-9.9000000000000000e+01" rms="0.0000000000000000e+00" purity="1.1207547038793564e-01" nType="-1"/>\n        </Node>\n      </Node>\n    </BinaryTree>\n    <BinaryTree type="DecisionTree" boostWeight="4.0176665251129112e-01" itree="2">\n      <Node pos="s" depth="0" NCoef="0" IVar="19" Cut="-9.0476191043853760e-01" cType="0" res="-9.9000000000000000e+01" rms="0.0000000000000000e+00" purity="4.9799227714538574e-01" nType="0">\n        <Node pos="l" depth="1" NCoef="0" IVar="-1" Cut="0.0000000000000000e+00" cType="1" res="-9.9000000000000000e+01" rms="0.0000000000000000e+00" purity="6.8553131818771362e-01" nType="1"/>\n        <Node pos="r" depth="1" NCoef="0" IVar="25" Cut="-9.0476191043853760e-01" cType="1" res="-9.9000000000000000e+01" rms="0.0000000000000000e+00" purity="3.6148053407669067e-01" nType="0">\n          <Node pos="l" depth="2" NCoef="0" IVar="-1" Cut="-5.2399420738220215e-01" cType="0" res="-9.9000000000000000e+01" rms="0.0000000000000000e+00" purity="5.4296404123306274e-01" nType="1"/>\n          <Node pos="r" depth="2" NCoef="0" IVar="-1" Cut="9.9525231122970581e-01" cType="0" res="-9.9000000000000000e+01" rms="0.0000000000000000e+00" purity="1.9858542084693909e-01" nType="-1"/>\n        </Node>\n      </Node>\n    </BinaryTree>\n    <BinaryTree type="DecisionTree" boostWeight="2.9975077376258880e-01" itree="3">\n      <Node pos="s" depth="0" NCoef="0" IVar="19" Cut="-9.0476191043853760e-01" cType="0" res="-9.9000000000000000e+01" rms="0.0000000000000000e+00" purity="4.6103417873382568e-01" nType="0">\n        <Node pos="l" depth="1" NCoef="0" IVar="-1" Cut="0.0000000000000000e+00" cType="1" res="-9.9000000000000000e+01" rms="0.0000000000000000e+00" purity="5.9328043460845947e-01" nType="1"/>\n        <Node pos="r" depth="1" NCoef="0" IVar="25" Cut="-9.0476191043853760e-01" cType="1" res="-9.9000000000000000e+01" rms="0.0000000000000000e+00" purity="3.6439916491508484e-01" nType="0">\n          <Node pos="l" depth="2" NCoef="0" IVar="6" Cut="-9.1200363636016846e-01" cType="1" res="-9.9000000000000000e+01" rms="0.0000000000000000e+00" purity="5.3014934062957764e-01" nType="0">\n            <Node pos="l" depth="3" NCoef="0" IVar="-1" Cut="0.0000000000000000e+00" cType="1" res="-9.9000000000000000e+01" rms="0.0000000000000000e+00" purity="5.9507250785827637e-01" nType="1"/>\n            <Node pos="r" depth="3" NCoef="0" IVar="-1" Cut="0.0000000000000000e+00" cType="1" res="-9.9000000000000000e+01" rms="0.0000000000000000e+00" purity="4.6363729238510132e-01" nType="-1"/>\n          </Node>\n          <Node pos="r" depth="2" NCoef="0" IVar="-1" Cut="9.9525231122970581e-01" cType="0" res="-9.9000000000000000e+01" rms="0.0000000000000000e+00" purity="1.9851617515087128e-01" nType="-1"/>\n        </Node>\n      </Node>\n    </BinaryTree>\n    <BinaryTree type="DecisionTree" boostWeight="4.4361871853037327e-01" itree="4">\n      <Node pos="s" depth="0" NCoef="0" IVar="13" Cut="-9.0476191043853760e-01" cType="0" res="-9.9000000000000000e+01" rms="0.0000000000000000e+00" purity="4.4862529635429382e-01" nType="0">\n        <Node pos="l" depth="1" NCoef="0" IVar="15" Cut="7.7662849426269531e-01" cType="0" res="-9.9000000000000000e+01" rms="0.0000000000000000e+00" purity="5.7776463031768799e-01" nType="0">\n          <Node pos="l" depth="2" NCoef="0" IVar="16" Cut="7.2606259584426880e-01" cType="1" res="-9.9000000000000000e+01" rms="0.0000000000000000e+00" purity="6.9695377349853516e-01" nType="0">\n            <Node pos="l" depth="3" NCoef="0" IVar="-1" Cut="0.0000000000000000e+00" cType="1" res="-9.9000000000000000e+01" rms="0.0000000000000000e+00" purity="7.7052241563796997e-01" nType="1"/>\n            <Node pos="r" depth="3" NCoef="0" IVar="-1" Cut="0.0000000000000000e+00" cType="1" res="-9.9000000000000000e+01" rms="0.0000000000000000e+00" purity="3.8443911075592041e-01" nType="-1"/>\n          </Node>\n          <Node pos="r" depth="2" NCoef="0" IVar="-1" Cut="-9.7109007835388184e-01" cType="0" res="-9.9000000000000000e+01" rms="0.0000000000000000e+00" purity="2.6973819732666016e-01" nType="-1"/>\n        </Node>\n        <Node pos="r" depth="1" NCoef="0" IVar="25" Cut="-9.0476191043853760e-01" cType="1" res="-9.9000000000000000e+01" rms="0.0000000000000000e+00" purity="3.7290513515472412e-01" nType="0">\n          <Node pos="l" depth="2" NCoef="0" IVar="28" Cut="-9.0476191043853760e-01" cType="0" res="-9.9000000000000000e+01" rms="0.0000000000000000e+00" purity="5.0950121879577637e-01" nType="0">\n            <Node pos="l" depth="3" NCoef="0" IVar="-1" Cut="0.0000000000000000e+00" cType="1" res="-9.9000000000000000e+01" rms="0.0000000000000000e+00" purity="6.5358084440231323e-01" nType="1"/>\n            <Node pos="r" depth="3" NCoef="0" IVar="-1" Cut="0.0000000000000000e+00" cType="1" res="-9.9000000000000000e+01" rms="0.0000000000000000e+00" purity="4.3464684486389160e-01" nType="-1"/>\n          </Node>\n          <Node pos="r" depth="2" NCoef="0" IVar="27" Cut="9.9561238288879395e-01" cType="0" res="-9.9000000000000000e+01" rms="0.0000000000000000e+00" purity="3.0134508013725281e-01" nType="0">\n            <Node pos="l" depth="3" NCoef="0" IVar="-1" Cut="0.0000000000000000e+00" cType="1" res="-9.9000000000000000e+01" rms="0.0000000000000000e+00" purity="5.5630552768707275e-01" nType="1"/>\n            <Node pos="r" depth="3" NCoef="0" IVar="-1" Cut="0.0000000000000000e+00" cType="1" res="-9.9000000000000000e+01" rms="0.0000000000000000e+00" purity="1.4830975234508514e-01" nType="-1"/>\n          </Node>\n        </Node>\n      </Node>\n    </BinaryTree>\n    <BinaryTree type="DecisionTree" boostWeight="3.7796062459640101e-01" itree="5">\n      <Node pos="s" depth="0" NCoef="0" IVar="13" Cut="-9.0476191043853760e-01" cType="0" res="-9.9000000000000000e+01" rms="0.0000000000000000e+00" purity="4.5669648051261902e-01" nType="0">\n        <Node pos="l" depth="1" NCoef="0" IVar="17" Cut="7.0431345701217651e-01" cType="1" res="-9.9000000000000000e+01" rms="0.0000000000000000e+00" purity="5.6641453504562378e-01" nType="0">\n          <Node pos="l" depth="2" NCoef="0" IVar="-1" Cut="0.0000000000000000e+00" cType="1" res="-9.9000000000000000e+01" rms="0.0000000000000000e+00" purity="8.2578313350677490e-01" nType="1"/>\n          <Node pos="r" depth="2" NCoef="0" IVar="15" Cut="7.7710020542144775e-01" cType="0" res="-9.9000000000000000e+01" rms="0.0000000000000000e+00" purity="4.6718499064445496e-01" nType="0">\n            <Node pos="l" depth="3" NCoef="0" IVar="-1" Cut="0.0000000000000000e+00" cType="1" res="-9.9000000000000000e+01" rms="0.0000000000000000e+00" purity="5.7187885046005249e-01" nType="1"/>\n            <Node pos="r" depth="3" NCoef="0" IVar="-1" Cut="0.0000000000000000e+00" cType="1" res="-9.9000000000000000e+01" rms="0.0000000000000000e+00" purity="2.6397353410720825e-01" nType="-1"/>\n          </Node>\n        </Node>\n        <Node pos="r" depth="1" NCoef="0" IVar="25" Cut="-9.0476191043853760e-01" cType="1" res="-9.9000000000000000e+01" rms="0.0000000000000000e+00" purity="3.9380618929862976e-01" nType="0">\n          <Node pos="l" depth="2" NCoef="0" IVar="1" Cut="-9.9352502822875977e-01" cType="0" res="-9.9000000000000000e+01" rms="0.0000000000000000e+00" purity="5.4591888189315796e-01" nType="0">\n            <Node pos="l" depth="3" NCoef="0" IVar="-1" Cut="0.0000000000000000e+00" cType="1" res="-9.9000000000000000e+01" rms="0.0000000000000000e+00" purity="5.8339327573776245e-01" nType="1"/>\n            <Node pos="r" depth="3" NCoef="0" IVar="-1" Cut="0.0000000000000000e+00" cType="1" res="-9.9000000000000000e+01" rms="0.0000000000000000e+00" purity="4.7705230116844177e-01" nType="-1"/>\n          </Node>\n          <Node pos="r" depth="2" NCoef="0" IVar="0" Cut="-9.9578070640563965e-01" cType="1" res="-9.9000000000000000e+01" rms="0.0000000000000000e+00" purity="3.0846649408340454e-01" nType="0">\n            <Node pos="l" depth="3" NCoef="0" IVar="-1" Cut="0.0000000000000000e+00" cType="1" res="-9.9000000000000000e+01" rms="0.0000000000000000e+00" purity="6.1852204799652100e-01" nType="1"/>\n            <Node pos="r" depth="3" NCoef="0" IVar="-1" Cut="0.0000000000000000e+00" cType="1" res="-9.9000000000000000e+01" rms="0.0000000000000000e+00" purity="2.1804443001747131e-01" nType="-1"/>\n          </Node>\n        </Node>\n      </Node>\n    </BinaryTree>\n    <BinaryTree type="DecisionTree" boostWeight="2.9021369069666669e-01" itree="6">\n      <Node pos="s" depth="0" NCoef="0" IVar="17" Cut="6.9064587354660034e-01" cType="1" res="-9.9000000000000000e+01" rms="0.0000000000000000e+00" purity="4.5063647627830505e-01" nType="0">\n        <Node pos="l" depth="1" NCoef="0" IVar="-1" Cut="-9.1403532028198242e-01" cType="1" res="-9.9000000000000000e+01" rms="0.0000000000000000e+00" purity="6.1926037073135376e-01" nType="1"/>\n        <Node pos="r" depth="1" NCoef="0" IVar="15" Cut="7.7940881252288818e-01" cType="0" res="-9.9000000000000000e+01" rms="0.0000000000000000e+00" purity="4.2129248380661011e-01" nType="0">\n          <Node pos="l" depth="2" NCoef="0" IVar="0" Cut="-9.8900192975997925e-01" cType="1" res="-9.9000000000000000e+01" rms="0.0000000000000000e+00" purity="6.1093640327453613e-01" nType="0">\n            <Node pos="l" depth="3" NCoef="0" IVar="-1" Cut="0.0000000000000000e+00" cType="1" res="-9.9000000000000000e+01" rms="0.0000000000000000e+00" purity="7.0882916450500488e-01" nType="1"/>\n            <Node pos="r" depth="3" NCoef="0" IVar="-1" Cut="0.0000000000000000e+00" cType="1" res="-9.9000000000000000e+01" rms="0.0000000000000000e+00" purity="4.5131322741508484e-01" nType="-1"/>\n          </Node>\n          <Node pos="r" depth="2" NCoef="0" IVar="-1" Cut="7.7294450998306274e-01" cType="0" res="-9.9000000000000000e+01" rms="0.0000000000000000e+00" purity="3.5604566335678101e-01" nType="-1"/>\n        </Node>\n      </Node>\n    </BinaryTree>\n    <BinaryTree type="DecisionTree" boostWeight="3.5925634677748969e-01" itree="7">\n      <Node pos="s" depth="0" NCoef="0" IVar="17" Cut="7.8457069396972656e-01" cType="1" res="-9.9000000000000000e+01" rms="0.0000000000000000e+00" purity="4.8108139634132385e-01" nType="0">\n        <Node pos="l" depth="1" NCoef="0" IVar="14" Cut="7.0702260732650757e-01" cType="0" res="-9.9000000000000000e+01" rms="0.0000000000000000e+00" purity="5.0155073404312134e-01" nType="0">\n          <Node pos="l" depth="2" NCoef="0" IVar="15" Cut="7.7370578050613403e-01" cType="0" res="-9.9000000000000000e+01" rms="0.0000000000000000e+00" purity="5.4116553068161011e-01" nType="0">\n            <Node pos="l" depth="3" NCoef="0" IVar="-1" Cut="0.0000000000000000e+00" cType="1" res="-9.9000000000000000e+01" rms="0.0000000000000000e+00" purity="6.3489204645156860e-01" nType="1"/>\n            <Node pos="r" depth="3" NCoef="0" IVar="-1" Cut="0.0000000000000000e+00" cType="1" res="-9.9000000000000000e+01" rms="0.0000000000000000e+00" purity="2.7712428569793701e-01" nType="-1"/>\n          </Node>\n          <Node pos="r" depth="2" NCoef="0" IVar="-1" Cut="-9.2073398828506470e-01" cType="1" res="-9.9000000000000000e+01" rms="0.0000000000000000e+00" purity="2.9303300380706787e-01" nType="-1"/>\n        </Node>\n        <Node pos="r" depth="1" NCoef="0" IVar="-1" Cut="0.0000000000000000e+00" cType="1" res="-9.9000000000000000e+01" rms="0.0000000000000000e+00" purity="2.5618696212768555e-01" nType="-1"/>\n      </Node>\n    </BinaryTree>\n    <BinaryTree type="DecisionTree" boostWeight="2.0900167443344622e-01" itree="8">\n      <Node pos="s" depth="0" NCoef="0" IVar="19" Cut="-9.0476191043853760e-01" cType="0" res="-9.9000000000000000e+01" rms="0.0000000000000000e+00" purity="4.6688741445541382e-01" nType="0">\n        <Node pos="l" depth="1" NCoef="0" IVar="-1" Cut="0.0000000000000000e+00" cType="1" res="-9.9000000000000000e+01" rms="0.0000000000000000e+00" purity="5.4042625427246094e-01" nType="1"/>\n        <Node pos="r" depth="1" NCoef="0" IVar="11" Cut="-9.0476191043853760e-01" cType="1" res="-9.9000000000000000e+01" rms="0.0000000000000000e+00" purity="4.1752475500106812e-01" nType="0">\n          <Node pos="l" depth="2" NCoef="0" IVar="5" Cut="-7.1393853425979614e-01" cType="0" res="-9.9000000000000000e+01" rms="0.0000000000000000e+00" purity="5.1849025487899780e-01" nType="0">\n            <Node pos="l" depth="3" NCoef="0" IVar="-1" Cut="0.0000000000000000e+00" cType="1" res="-9.9000000000000000e+01" rms="0.0000000000000000e+00" purity="6.7420136928558350e-01" nType="1"/>\n            <Node pos="r" depth="3" NCoef="0" IVar="-1" Cut="0.0000000000000000e+00" cType="1" res="-9.9000000000000000e+01" rms="0.0000000000000000e+00" purity="4.6146434545516968e-01" nType="-1"/>\n          </Node>\n          <Node pos="r" depth="2" NCoef="0" IVar="-1" Cut="-9.0476191043853760e-01" cType="1" res="-9.9000000000000000e+01" rms="0.0000000000000000e+00" purity="2.1289861202239990e-01" nType="-1"/>\n        </Node>\n      </Node>\n    </BinaryTree>\n    <BinaryTree type="DecisionTree" boostWeight="2.7973548757851413e-01" itree="9">\n      <Node pos="s" depth="0" NCoef="0" IVar="25" Cut="-9.0476191043853760e-01" cType="1" res="-9.9000000000000000e+01" rms="0.0000000000000000e+00" purity="4.6519911289215088e-01" nType="0">\n        <Node pos="l" depth="1" NCoef="0" IVar="-1" Cut="-5.2399420738220215e-01" cType="1" res="-9.9000000000000000e+01" rms="0.0000000000000000e+00" purity="5.5320602655410767e-01" nType="1"/>\n        <Node pos="r" depth="1" NCoef="0" IVar="27" Cut="9.9406540393829346e-01" cType="0" res="-9.9000000000000000e+01" rms="0.0000000000000000e+00" purity="4.1272947192192078e-01" nType="0">\n          <Node pos="l" depth="2" NCoef="0" IVar="13" Cut="-9.0476191043853760e-01" cType="0" res="-9.9000000000000000e+01" rms="0.0000000000000000e+00" purity="5.5522942543029785e-01" nType="0">\n            <Node pos="l" depth="3" NCoef="0" IVar="-1" Cut="0.0000000000000000e+00" cType="1" res="-9.9000000000000000e+01" rms="0.0000000000000000e+00" purity="7.2266358137130737e-01" nType="1"/>\n            <Node pos="r" depth="3" NCoef="0" IVar="-1" Cut="0.0000000000000000e+00" cType="1" res="-9.9000000000000000e+01" rms="0.0000000000000000e+00" purity="4.6045804023742676e-01" nType="-1"/>\n          </Node>\n          <Node pos="r" depth="2" NCoef="0" IVar="-1" Cut="-9.6955102682113647e-01" cType="0" res="-9.9000000000000000e+01" rms="0.0000000000000000e+00" purity="2.2892719507217407e-01" nType="-1"/>\n        </Node>\n      </Node>\n    </BinaryTree>\n    <BinaryTree type="DecisionTree" boostWeight="2.9474556164208376e-01" itree="10">\n      <Node pos="s" depth="0" NCoef="0" IVar="4" Cut="2.3809523880481720e-01" cType="1" res="-9.9000000000000000e+01" rms="0.0000000000000000e+00" purity="4.7800958156585693e-01" nType="0">\n        <Node pos="l" depth="1" NCoef="0" IVar="1" Cut="-9.6655428409576416e-01" cType="0" res="-9.9000000000000000e+01" rms="0.0000000000000000e+00" purity="4.9239483475685120e-01" nType="0">\n          <Node pos="l" depth="2" NCoef="0" IVar="-1" Cut="-7.1420639753341675e-01" cType="1" res="-9.9000000000000000e+01" rms="0.0000000000000000e+00" purity="7.2296202182769775e-01" nType="1"/>\n          <Node pos="r" depth="2" NCoef="0" IVar="0" Cut="-9.9310016632080078e-01" cType="1" res="-9.9000000000000000e+01" rms="0.0000000000000000e+00" purity="4.1742858290672302e-01" nType="0">\n            <Node pos="l" depth="3" NCoef="0" IVar="-1" Cut="0.0000000000000000e+00" cType="1" res="-9.9000000000000000e+01" rms="0.0000000000000000e+00" purity="5.2317929267883301e-01" nType="1"/>\n            <Node pos="r" depth="3" NCoef="0" IVar="-1" Cut="0.0000000000000000e+00" cType="1" res="-9.9000000000000000e+01" rms="0.0000000000000000e+00" purity="2.9236796498298645e-01" nType="-1"/>\n          </Node>\n        </Node>\n        <Node pos="r" depth="1" NCoef="0" IVar="-1" Cut="0.0000000000000000e+00" cType="1" res="-9.9000000000000000e+01" rms="0.0000000000000000e+00" purity="2.3267982900142670e-01" nType="-1"/>\n      </Node>\n    </BinaryTree>\n    <BinaryTree type="DecisionTree" boostWeight="2.0976740163721777e-01" itree="11">\n      <Node pos="s" depth="0" NCoef="0" IVar="15" Cut="7.1428561210632324e-01" cType="0" res="-9.9000000000000000e+01" rms="0.0000000000000000e+00" purity="4.5902535319328308e-01" nType="0">\n        <Node pos="l" depth="1" NCoef="0" IVar="15" Cut="7.8231483697891235e-01" cType="0" res="-9.9000000000000000e+01" rms="0.0000000000000000e+00" purity="4.7173124551773071e-01" nType="0">\n          <Node pos="l" depth="2" NCoef="0" IVar="-1" Cut="0.0000000000000000e+00" cType="1" res="-9.9000000000000000e+01" rms="0.0000000000000000e+00" purity="6.6235309839248657e-01" nType="1"/>\n          <Node pos="r" depth="2" NCoef="0" IVar="-1" Cut="7.6935714483261108e-01" cType="0" res="-9.9000000000000000e+01" rms="0.0000000000000000e+00" purity="4.2194464802742004e-01" nType="-1"/>\n        </Node>\n        <Node pos="r" depth="1" NCoef="0" IVar="-1" Cut="0.0000000000000000e+00" cType="1" res="-9.9000000000000000e+01" rms="0.0000000000000000e+00" purity="2.9544711112976074e-01" nType="-1"/>\n      </Node>\n    </BinaryTree>\n    <BinaryTree type="DecisionTree" boostWeight="2.7158697412119370e-01" itree="12">\n      <Node pos="s" depth="0" NCoef="0" IVar="4" Cut="1.4285714924335480e-01" cType="1" res="-9.9000000000000000e+01" rms="0.0000000000000000e+00" purity="4.9099984765052795e-01" nType="0">\n        <Node pos="l" depth="1" NCoef="0" IVar="1" Cut="-9.6655428409576416e-01" cType="0" res="-9.9000000000000000e+01" rms="0.0000000000000000e+00" purity="5.0235420465469360e-01" nType="0">\n          <Node pos="l" depth="2" NCoef="0" IVar="-1" Cut="-6.6752374172210693e-01" cType="1" res="-9.9000000000000000e+01" rms="0.0000000000000000e+00" purity="6.9626927375793457e-01" nType="1"/>\n          <Node pos="r" depth="2" NCoef="0" IVar="2" Cut="-1.4315335452556610e-01" cType="0" res="-9.9000000000000000e+01" rms="0.0000000000000000e+00" purity="4.3808060884475708e-01" nType="0">\n            <Node pos="l" depth="3" NCoef="0" IVar="-1" Cut="0.0000000000000000e+00" cType="1" res="-9.9000000000000000e+01" rms="0.0000000000000000e+00" purity="6.2760424613952637e-01" nType="1"/>\n            <Node pos="r" depth="3" NCoef="0" IVar="-1" Cut="0.0000000000000000e+00" cType="1" res="-9.9000000000000000e+01" rms="0.0000000000000000e+00" purity="3.9692327380180359e-01" nType="-1"/>\n          </Node>\n        </Node>\n        <Node pos="r" depth="1" NCoef="0" IVar="-1" Cut="0.0000000000000000e+00" cType="1" res="-9.9000000000000000e+01" rms="0.0000000000000000e+00" purity="3.2333198189735413e-01" nType="-1"/>\n      </Node>\n    </BinaryTree>\n    <BinaryTree type="DecisionTree" boostWeight="1.9773934351287789e-01" itree="13">\n      <Node pos="s" depth="0" NCoef="0" IVar="15" Cut="7.1428561210632324e-01" cType="0" res="-9.9000000000000000e+01" rms="0.0000000000000000e+00" purity="5.1045048236846924e-01" nType="0">\n        <Node pos="l" depth="1" NCoef="0" IVar="15" Cut="7.6870948076248169e-01" cType="0" res="-9.9000000000000000e+01" rms="0.0000000000000000e+00" purity="5.2136027812957764e-01" nType="0">\n          <Node pos="l" depth="2" NCoef="0" IVar="19" Cut="-9.0476244688034058e-01" cType="0" res="-9.9000000000000000e+01" rms="0.0000000000000000e+00" purity="5.6178379058837891e-01" nType="0">\n            <Node pos="l" depth="3" NCoef="0" IVar="-1" Cut="0.0000000000000000e+00" cType="1" res="-9.9000000000000000e+01" rms="0.0000000000000000e+00" purity="6.5445512533187866e-01" nType="1"/>\n            <Node pos="r" depth="3" NCoef="0" IVar="-1" Cut="0.0000000000000000e+00" cType="1" res="-9.9000000000000000e+01" rms="0.0000000000000000e+00" purity="4.9968373775482178e-01" nType="-1"/>\n          </Node>\n          <Node pos="r" depth="2" NCoef="0" IVar="5" Cut="-8.2873606681823730e-01" cType="0" res="-9.9000000000000000e+01" rms="0.0000000000000000e+00" purity="3.6376631259918213e-01" nType="0">\n            <Node pos="l" depth="3" NCoef="0" IVar="-1" Cut="0.0000000000000000e+00" cType="1" res="-9.9000000000000000e+01" rms="0.0000000000000000e+00" purity="6.1348706483840942e-01" nType="1"/>\n            <Node pos="r" depth="3" NCoef="0" IVar="-1" Cut="0.0000000000000000e+00" cType="1" res="-9.9000000000000000e+01" rms="0.0000000000000000e+00" purity="2.1366769075393677e-01" nType="-1"/>\n          </Node>\n        </Node>\n        <Node pos="r" depth="1" NCoef="0" IVar="-1" Cut="0.0000000000000000e+00" cType="1" res="-9.9000000000000000e+01" rms="0.0000000000000000e+00" purity="3.6286243796348572e-01" nType="-1"/>\n      </Node>\n    </BinaryTree>\n    <BinaryTree type="DecisionTree" boostWeight="2.4832557325238083e-01" itree="14">\n      <Node pos="s" depth="0" NCoef="0" IVar="25" Cut="-9.0476191043853760e-01" cType="1" res="-9.9000000000000000e+01" rms="0.0000000000000000e+00" purity="5.2384757995605469e-01" nType="0">\n        <Node pos="l" depth="1" NCoef="0" IVar="-1" Cut="-7.7232962846755981e-01" cType="1" res="-9.9000000000000000e+01" rms="0.0000000000000000e+00" purity="5.8095562458038330e-01" nType="1"/>\n        <Node pos="r" depth="1" NCoef="0" IVar="27" Cut="9.9406540393829346e-01" cType="0" res="-9.9000000000000000e+01" rms="0.0000000000000000e+00" purity="4.8584771156311035e-01" nType="0">\n          <Node pos="l" depth="2" NCoef="0" IVar="-1" Cut="9.9718832969665527e-01" cType="0" res="-9.9000000000000000e+01" rms="0.0000000000000000e+00" purity="5.9969717264175415e-01" nType="1"/>\n          <Node pos="r" depth="2" NCoef="0" IVar="8" Cut="-5.2371966838836670e-01" cType="0" res="-9.9000000000000000e+01" rms="0.0000000000000000e+00" purity="3.2407194375991821e-01" nType="0">\n            <Node pos="l" depth="3" NCoef="0" IVar="-1" Cut="0.0000000000000000e+00" cType="1" res="-9.9000000000000000e+01" rms="0.0000000000000000e+00" purity="5.2618402242660522e-01" nType="1"/>\n            <Node pos="r" depth="3" NCoef="0" IVar="-1" Cut="0.0000000000000000e+00" cType="1" res="-9.9000000000000000e+01" rms="0.0000000000000000e+00" purity="2.6662978529930115e-01" nType="-1"/>\n          </Node>\n        </Node>\n      </Node>\n    </BinaryTree>\n    <BinaryTree type="DecisionTree" boostWeight="1.7610432818657012e-01" itree="15">\n      <Node pos="s" depth="0" NCoef="0" IVar="25" Cut="-9.0476191043853760e-01" cType="1" res="-9.9000000000000000e+01" rms="0.0000000000000000e+00" purity="4.9573382735252380e-01" nType="0">\n        <Node pos="l" depth="1" NCoef="0" IVar="4" Cut="-7.1428573131561279e-01" cType="1" res="-9.9000000000000000e+01" rms="0.0000000000000000e+00" purity="5.4514014720916748e-01" nType="0">\n          <Node pos="l" depth="2" NCoef="0" IVar="-1" Cut="-4.3956015259027481e-02" cType="1" res="-9.9000000000000000e+01" rms="0.0000000000000000e+00" purity="5.6727439165115356e-01" nType="1"/>\n          <Node pos="r" depth="2" NCoef="0" IVar="-1" Cut="0.0000000000000000e+00" cType="1" res="-9.9000000000000000e+01" rms="0.0000000000000000e+00" purity="4.7288599610328674e-01" nType="-1"/>\n        </Node>\n        <Node pos="r" depth="1" NCoef="0" IVar="27" Cut="9.9584579467773438e-01" cType="0" res="-9.9000000000000000e+01" rms="0.0000000000000000e+00" purity="4.6255791187286377e-01" nType="0">\n          <Node pos="l" depth="2" NCoef="0" IVar="-1" Cut="9.9723434448242188e-01" cType="0" res="-9.9000000000000000e+01" rms="0.0000000000000000e+00" purity="5.8951389789581299e-01" nType="1"/>\n          <Node pos="r" depth="2" NCoef="0" IVar="-1" Cut="9.9029982089996338e-01" cType="0" res="-9.9000000000000000e+01" rms="0.0000000000000000e+00" purity="3.8221988081932068e-01" nType="-1"/>\n        </Node>\n      </Node>\n    </BinaryTree>\n    <BinaryTree type="DecisionTree" boostWeight="9.0710678867127179e-02" itree="16">\n      <Node pos="s" depth="0" NCoef="0" IVar="17" Cut="7.8457069396972656e-01" cType="1" res="-9.9000000000000000e+01" rms="0.0000000000000000e+00" purity="4.9215453863143921e-01" nType="0">\n        <Node pos="l" depth="1" NCoef="0" IVar="14" Cut="7.0702260732650757e-01" cType="0" res="-9.9000000000000000e+01" rms="0.0000000000000000e+00" purity="5.0288945436477661e-01" nType="0">\n          <Node pos="l" depth="2" NCoef="0" IVar="18" Cut="8.0905109643936157e-01" cType="1" res="-9.9000000000000000e+01" rms="0.0000000000000000e+00" purity="5.1573824882507324e-01" nType="0">\n            <Node pos="l" depth="3" NCoef="0" IVar="-1" Cut="0.0000000000000000e+00" cType="1" res="-9.9000000000000000e+01" rms="0.0000000000000000e+00" purity="6.6337245702743530e-01" nType="1"/>\n            <Node pos="r" depth="3" NCoef="0" IVar="-1" Cut="0.0000000000000000e+00" cType="1" res="-9.9000000000000000e+01" rms="0.0000000000000000e+00" purity="4.9041846394538879e-01" nType="-1"/>\n          </Node>\n          <Node pos="r" depth="2" NCoef="0" IVar="6" Cut="-9.2073398828506470e-01" cType="1" res="-9.9000000000000000e+01" rms="0.0000000000000000e+00" purity="4.3375018239021301e-01" nType="0">\n            <Node pos="l" depth="3" NCoef="0" IVar="-1" Cut="0.0000000000000000e+00" cType="1" res="-9.9000000000000000e+01" rms="0.0000000000000000e+00" purity="5.0312912464141846e-01" nType="1"/>\n            <Node pos="r" depth="3" NCoef="0" IVar="-1" Cut="0.0000000000000000e+00" cType="1" res="-9.9000000000000000e+01" rms="0.0000000000000000e+00" purity="3.6236688494682312e-01" nType="-1"/>\n          </Node>\n        </Node>\n        <Node pos="r" depth="1" NCoef="0" IVar="-1" Cut="0.0000000000000000e+00" cType="1" res="-9.9000000000000000e+01" rms="0.0000000000000000e+00" purity="3.7580257654190063e-01" nType="-1"/>\n      </Node>\n    </BinaryTree>\n    <BinaryTree type="DecisionTree" boostWeight="1.6511016331293346e-01" itree="17">\n      <Node pos="s" depth="0" NCoef="0" IVar="15" Cut="7.1428561210632324e-01" cType="0" res="-9.9000000000000000e+01" rms="0.0000000000000000e+00" purity="5.0642240047454834e-01" nType="0">\n        <Node pos="l" depth="1" NCoef="0" IVar="15" Cut="7.6870948076248169e-01" cType="0" res="-9.9000000000000000e+01" rms="0.0000000000000000e+00" purity="5.1542460918426514e-01" nType="0">\n          <Node pos="l" depth="2" NCoef="0" IVar="-1" Cut="7.4418085813522339e-01" cType="1" res="-9.9000000000000000e+01" rms="0.0000000000000000e+00" purity="5.5326801538467407e-01" nType="1"/>\n          <Node pos="r" depth="2" NCoef="0" IVar="2" Cut="-3.8007986545562744e-01" cType="0" res="-9.9000000000000000e+01" rms="0.0000000000000000e+00" purity="3.6509856581687927e-01" nType="0">\n            <Node pos="l" depth="3" NCoef="0" IVar="-1" Cut="0.0000000000000000e+00" cType="1" res="-9.9000000000000000e+01" rms="0.0000000000000000e+00" purity="5.5604398250579834e-01" nType="1"/>\n            <Node pos="r" depth="3" NCoef="0" IVar="-1" Cut="0.0000000000000000e+00" cType="1" res="-9.9000000000000000e+01" rms="0.0000000000000000e+00" purity="2.2456035017967224e-01" nType="-1"/>\n          </Node>\n        </Node>\n        <Node pos="r" depth="1" NCoef="0" IVar="-1" Cut="0.0000000000000000e+00" cType="1" res="-9.9000000000000000e+01" rms="0.0000000000000000e+00" purity="3.8292896747589111e-01" nType="-1"/>\n      </Node>\n    </BinaryTree>\n    <BinaryTree type="DecisionTree" boostWeight="1.3503444793263927e-01" itree="18">\n      <Node pos="s" depth="0" NCoef="0" IVar="17" Cut="7.8457069396972656e-01" cType="1" res="-9.9000000000000000e+01" rms="0.0000000000000000e+00" purity="4.7945165634155273e-01" nType="0">\n        <Node pos="l" depth="1" NCoef="0" IVar="4" Cut="1.4285714924335480e-01" cType="1" res="-9.9000000000000000e+01" rms="0.0000000000000000e+00" purity="4.9039912223815918e-01" nType="0">\n          <Node pos="l" depth="2" NCoef="0" IVar="1" Cut="-9.6655428409576416e-01" cType="0" res="-9.9000000000000000e+01" rms="0.0000000000000000e+00" purity="4.9832382798194885e-01" nType="0">\n            <Node pos="l" depth="3" NCoef="0" IVar="-1" Cut="0.0000000000000000e+00" cType="1" res="-9.9000000000000000e+01" rms="0.0000000000000000e+00" purity="6.2030005455017090e-01" nType="1"/>\n            <Node pos="r" depth="3" NCoef="0" IVar="-1" Cut="0.0000000000000000e+00" cType="1" res="-9.9000000000000000e+01" rms="0.0000000000000000e+00" purity="4.6259388327598572e-01" nType="-1"/>\n          </Node>\n          <Node pos="r" depth="2" NCoef="0" IVar="-1" Cut="0.0000000000000000e+00" cType="1" res="-9.9000000000000000e+01" rms="0.0000000000000000e+00" purity="3.7801355123519897e-01" nType="-1"/>\n        </Node>\n        <Node pos="r" depth="1" NCoef="0" IVar="-1" Cut="0.0000000000000000e+00" cType="1" res="-9.9000000000000000e+01" rms="0.0000000000000000e+00" purity="3.6249905824661255e-01" nType="-1"/>\n      </Node>\n    </BinaryTree>\n    <BinaryTree type="DecisionTree" boostWeight="1.6406806115198005e-01" itree="19">\n      <Node pos="s" depth="0" NCoef="0" IVar="11" Cut="-9.0476191043853760e-01" cType="1" res="-9.9000000000000000e+01" rms="0.0000000000000000e+00" purity="5.0011384487152100e-01" nType="0">\n        <Node pos="l" depth="1" NCoef="0" IVar="9" Cut="-8.4249056875705719e-02" cType="1" res="-9.9000000000000000e+01" rms="0.0000000000000000e+00" purity="5.3267669677734375e-01" nType="0">\n          <Node pos="l" depth="2" NCoef="0" IVar="-1" Cut="0.0000000000000000e+00" cType="1" res="-9.9000000000000000e+01" rms="0.0000000000000000e+00" purity="6.3161045312881470e-01" nType="1"/>\n          <Node pos="r" depth="2" NCoef="0" IVar="8" Cut="-6.7757451534271240e-01" cType="0" res="-9.9000000000000000e+01" rms="0.0000000000000000e+00" purity="5.0732249021530151e-01" nType="0">\n            <Node pos="l" depth="3" NCoef="0" IVar="-1" Cut="0.0000000000000000e+00" cType="1" res="-9.9000000000000000e+01" rms="0.0000000000000000e+00" purity="5.4764580726623535e-01" nType="1"/>\n            <Node pos="r" depth="3" NCoef="0" IVar="-1" Cut="0.0000000000000000e+00" cType="1" res="-9.9000000000000000e+01" rms="0.0000000000000000e+00" purity="4.4230040907859802e-01" nType="-1"/>\n          </Node>\n        </Node>\n        <Node pos="r" depth="1" NCoef="0" IVar="15" Cut="7.7490818500518799e-01" cType="0" res="-9.9000000000000000e+01" rms="0.0000000000000000e+00" purity="4.5022368431091309e-01" nType="0">\n          <Node pos="l" depth="2" NCoef="0" IVar="4" Cut="-9.0486311912536621e-01" cType="1" res="-9.9000000000000000e+01" rms="0.0000000000000000e+00" purity="4.9423208832740784e-01" nType="0">\n            <Node pos="l" depth="3" NCoef="0" IVar="-1" Cut="0.0000000000000000e+00" cType="1" res="-9.9000000000000000e+01" rms="0.0000000000000000e+00" purity="5.4363554716110229e-01" nType="1"/>\n            <Node pos="r" depth="3" NCoef="0" IVar="-1" Cut="0.0000000000000000e+00" cType="1" res="-9.9000000000000000e+01" rms="0.0000000000000000e+00" purity="3.4357541799545288e-01" nType="-1"/>\n          </Node>\n          <Node pos="r" depth="2" NCoef="0" IVar="-1" Cut="0.0000000000000000e+00" cType="1" res="-9.9000000000000000e+01" rms="0.0000000000000000e+00" purity="2.8087097406387329e-01" nType="-1"/>\n        </Node>\n      </Node>\n    </BinaryTree>\n    <BinaryTree type="DecisionTree" boostWeight="1.3890812073029782e-01" itree="20">\n      <Node pos="s" depth="0" NCoef="0" IVar="11" Cut="-9.0476191043853760e-01" cType="1" res="-9.9000000000000000e+01" rms="0.0000000000000000e+00" purity="4.8711025714874268e-01" nType="0">\n        <Node pos="l" depth="1" NCoef="0" IVar="18" Cut="8.5358148813247681e-01" cType="0" res="-9.9000000000000000e+01" rms="0.0000000000000000e+00" purity="5.1687777042388916e-01" nType="0">\n          <Node pos="l" depth="2" NCoef="0" IVar="14" Cut="7.5059235095977783e-01" cType="1" res="-9.9000000000000000e+01" rms="0.0000000000000000e+00" purity="5.4600578546524048e-01" nType="0">\n            <Node pos="l" depth="3" NCoef="0" IVar="-1" Cut="0.0000000000000000e+00" cType="1" res="-9.9000000000000000e+01" rms="0.0000000000000000e+00" purity="6.0517805814743042e-01" nType="1"/>\n            <Node pos="r" depth="3" NCoef="0" IVar="-1" Cut="0.0000000000000000e+00" cType="1" res="-9.9000000000000000e+01" rms="0.0000000000000000e+00" purity="4.4731932878494263e-01" nType="-1"/>\n          </Node>\n          <Node pos="r" depth="2" NCoef="0" IVar="4" Cut="-9.0379709005355835e-01" cType="1" res="-9.9000000000000000e+01" rms="0.0000000000000000e+00" purity="4.6172505617141724e-01" nType="0">\n            <Node pos="l" depth="3" NCoef="0" IVar="-1" Cut="0.0000000000000000e+00" cType="1" res="-9.9000000000000000e+01" rms="0.0000000000000000e+00" purity="5.0822603702545166e-01" nType="1"/>\n            <Node pos="r" depth="3" NCoef="0" IVar="-1" Cut="0.0000000000000000e+00" cType="1" res="-9.9000000000000000e+01" rms="0.0000000000000000e+00" purity="3.9212065935134888e-01" nType="-1"/>\n          </Node>\n        </Node>\n        <Node pos="r" depth="1" NCoef="0" IVar="16" Cut="7.3568934202194214e-01" cType="1" res="-9.9000000000000000e+01" rms="0.0000000000000000e+00" purity="4.4124397635459900e-01" nType="0">\n          <Node pos="l" depth="2" NCoef="0" IVar="4" Cut="-9.0486311912536621e-01" cType="1" res="-9.9000000000000000e+01" rms="0.0000000000000000e+00" purity="4.6626782417297363e-01" nType="0">\n            <Node pos="l" depth="3" NCoef="0" IVar="-1" Cut="0.0000000000000000e+00" cType="1" res="-9.9000000000000000e+01" rms="0.0000000000000000e+00" purity="5.0358825922012329e-01" nType="1"/>\n            <Node pos="r" depth="3" NCoef="0" IVar="-1" Cut="0.0000000000000000e+00" cType="1" res="-9.9000000000000000e+01" rms="0.0000000000000000e+00" purity="3.4916725754737854e-01" nType="-1"/>\n          </Node>\n          <Node pos="r" depth="2" NCoef="0" IVar="-1" Cut="0.0000000000000000e+00" cType="1" res="-9.9000000000000000e+01" rms="0.0000000000000000e+00" purity="2.7118504047393799e-01" nType="-1"/>\n        </Node>\n      </Node>\n    </BinaryTree>\n    <BinaryTree type="DecisionTree" boostWeight="1.5716212650551745e-01" itree="21">\n      <Node pos="s" depth="0" NCoef="0" IVar="11" Cut="-9.0476191043853760e-01" cType="1" res="-9.9000000000000000e+01" rms="0.0000000000000000e+00" purity="4.7761070728302002e-01" nType="0">\n        <Node pos="l" depth="1" NCoef="0" IVar="18" Cut="8.5358148813247681e-01" cType="0" res="-9.9000000000000000e+01" rms="0.0000000000000000e+00" purity="5.0890374183654785e-01" nType="0">\n          <Node pos="l" depth="2" NCoef="0" IVar="7" Cut="-4.5864659547805786e-01" cType="1" res="-9.9000000000000000e+01" rms="0.0000000000000000e+00" purity="5.3777503967285156e-01" nType="0">\n            <Node pos="l" depth="3" NCoef="0" IVar="-1" Cut="0.0000000000000000e+00" cType="1" res="-9.9000000000000000e+01" rms="0.0000000000000000e+00" purity="5.8425605297088623e-01" nType="1"/>\n            <Node pos="r" depth="3" NCoef="0" IVar="-1" Cut="0.0000000000000000e+00" cType="1" res="-9.9000000000000000e+01" rms="0.0000000000000000e+00" purity="4.4842997193336487e-01" nType="-1"/>\n          </Node>\n          <Node pos="r" depth="2" NCoef="0" IVar="15" Cut="7.5916391611099243e-01" cType="0" res="-9.9000000000000000e+01" rms="0.0000000000000000e+00" purity="4.5452234148979187e-01" nType="0">\n            <Node pos="l" depth="3" NCoef="0" IVar="-1" Cut="0.0000000000000000e+00" cType="1" res="-9.9000000000000000e+01" rms="0.0000000000000000e+00" purity="5.0705039501190186e-01" nType="1"/>\n            <Node pos="r" depth="3" NCoef="0" IVar="-1" Cut="0.0000000000000000e+00" cType="1" res="-9.9000000000000000e+01" rms="0.0000000000000000e+00" purity="4.2147147655487061e-01" nType="-1"/>\n          </Node>\n        </Node>\n        <Node pos="r" depth="1" NCoef="0" IVar="15" Cut="7.7490818500518799e-01" cType="0" res="-9.9000000000000000e+01" rms="0.0000000000000000e+00" purity="4.2945519089698792e-01" nType="0">\n          <Node pos="l" depth="2" NCoef="0" IVar="18" Cut="8.2423007488250732e-01" cType="1" res="-9.9000000000000000e+01" rms="0.0000000000000000e+00" purity="4.5996624231338501e-01" nType="0">\n            <Node pos="l" depth="3" NCoef="0" IVar="-1" Cut="0.0000000000000000e+00" cType="1" res="-9.9000000000000000e+01" rms="0.0000000000000000e+00" purity="5.5067151784896851e-01" nType="1"/>\n            <Node pos="r" depth="3" NCoef="0" IVar="-1" Cut="0.0000000000000000e+00" cType="1" res="-9.9000000000000000e+01" rms="0.0000000000000000e+00" purity="4.1496232151985168e-01" nType="-1"/>\n          </Node>\n          <Node pos="r" depth="2" NCoef="0" IVar="-1" Cut="0.0000000000000000e+00" cType="1" res="-9.9000000000000000e+01" rms="0.0000000000000000e+00" purity="3.1133106350898743e-01" nType="-1"/>\n        </Node>\n      </Node>\n    </BinaryTree>\n    <BinaryTree type="DecisionTree" boostWeight="1.1303034820816529e-01" itree="22">\n      <Node pos="s" depth="0" NCoef="0" IVar="5" Cut="-5.2380955219268799e-01" cType="0" res="-9.9000000000000000e+01" rms="0.0000000000000000e+00" purity="4.8166680335998535e-01" nType="0">\n        <Node pos="l" depth="1" NCoef="0" IVar="-1" Cut="0.0000000000000000e+00" cType="1" res="-9.9000000000000000e+01" rms="0.0000000000000000e+00" purity="5.7409721612930298e-01" nType="1"/>\n        <Node pos="r" depth="1" NCoef="0" IVar="17" Cut="7.8457069396972656e-01" cType="1" res="-9.9000000000000000e+01" rms="0.0000000000000000e+00" purity="4.6786454319953918e-01" nType="0">\n          <Node pos="l" depth="2" NCoef="0" IVar="19" Cut="-9.0476191043853760e-01" cType="0" res="-9.9000000000000000e+01" rms="0.0000000000000000e+00" purity="4.7958692908287048e-01" nType="0">\n            <Node pos="l" depth="3" NCoef="0" IVar="-1" Cut="0.0000000000000000e+00" cType="1" res="-9.9000000000000000e+01" rms="0.0000000000000000e+00" purity="5.3034090995788574e-01" nType="1"/>\n            <Node pos="r" depth="3" NCoef="0" IVar="-1" Cut="0.0000000000000000e+00" cType="1" res="-9.9000000000000000e+01" rms="0.0000000000000000e+00" purity="4.4799891114234924e-01" nType="-1"/>\n          </Node>\n          <Node pos="r" depth="2" NCoef="0" IVar="-1" Cut="0.0000000000000000e+00" cType="1" res="-9.9000000000000000e+01" rms="0.0000000000000000e+00" purity="3.2796445488929749e-01" nType="-1"/>\n        </Node>\n      </Node>\n    </BinaryTree>\n    <BinaryTree type="DecisionTree" boostWeight="1.1005672602629027e-01" itree="23">\n      <Node pos="s" depth="0" NCoef="0" IVar="11" Cut="-9.0476191043853760e-01" cType="1" res="-9.9000000000000000e+01" rms="0.0000000000000000e+00" purity="4.8507797718048096e-01" nType="0">\n        <Node pos="l" depth="1" NCoef="0" IVar="9" Cut="-8.4249056875705719e-02" cType="1" res="-9.9000000000000000e+01" rms="0.0000000000000000e+00" purity="5.1118236780166626e-01" nType="0">\n          <Node pos="l" depth="2" NCoef="0" IVar="-1" Cut="0.0000000000000000e+00" cType="1" res="-9.9000000000000000e+01" rms="0.0000000000000000e+00" purity="5.8989679813385010e-01" nType="1"/>\n          <Node pos="r" depth="2" NCoef="0" IVar="5" Cut="-9.0437614917755127e-01" cType="0" res="-9.9000000000000000e+01" rms="0.0000000000000000e+00" purity="4.9139982461929321e-01" nType="0">\n            <Node pos="l" depth="3" NCoef="0" IVar="-1" Cut="0.0000000000000000e+00" cType="1" res="-9.9000000000000000e+01" rms="0.0000000000000000e+00" purity="5.3227412700653076e-01" nType="1"/>\n            <Node pos="r" depth="3" NCoef="0" IVar="-1" Cut="0.0000000000000000e+00" cType="1" res="-9.9000000000000000e+01" rms="0.0000000000000000e+00" purity="4.3902188539505005e-01" nType="-1"/>\n          </Node>\n        </Node>\n        <Node pos="r" depth="1" NCoef="0" IVar="-1" Cut="7.4699008464813232e-01" cType="0" res="-9.9000000000000000e+01" rms="0.0000000000000000e+00" purity="4.4375973939895630e-01" nType="-1"/>\n      </Node>\n    </BinaryTree>\n    <BinaryTree type="DecisionTree" boostWeight="7.9351474037359065e-02" itree="24">\n      <Node pos="s" depth="0" NCoef="0" IVar="4" Cut="1.4285714924335480e-01" cType="1" res="-9.9000000000000000e+01" rms="0.0000000000000000e+00" purity="4.9061983823776245e-01" nType="0">\n        <Node pos="l" depth="1" NCoef="0" IVar="1" Cut="-9.6655428409576416e-01" cType="0" res="-9.9000000000000000e+01" rms="0.0000000000000000e+00" purity="4.9909538030624390e-01" nType="0">\n          <Node pos="l" depth="2" NCoef="0" IVar="7" Cut="-5.4887217283248901e-01" cType="1" res="-9.9000000000000000e+01" rms="0.0000000000000000e+00" purity="5.5681717395782471e-01" nType="0">\n            <Node pos="l" depth="3" NCoef="0" IVar="-1" Cut="0.0000000000000000e+00" cType="1" res="-9.9000000000000000e+01" rms="0.0000000000000000e+00" purity="6.0278201103210449e-01" nType="1"/>\n            <Node pos="r" depth="3" NCoef="0" IVar="-1" Cut="0.0000000000000000e+00" cType="1" res="-9.9000000000000000e+01" rms="0.0000000000000000e+00" purity="4.8689827322959900e-01" nType="-1"/>\n          </Node>\n          <Node pos="r" depth="2" NCoef="0" IVar="30" Cut="-9.0476191043853760e-01" cType="0" res="-9.9000000000000000e+01" rms="0.0000000000000000e+00" purity="4.8223230242729187e-01" nType="0">\n            <Node pos="l" depth="3" NCoef="0" IVar="-1" Cut="0.0000000000000000e+00" cType="1" res="-9.9000000000000000e+01" rms="0.0000000000000000e+00" purity="5.0328308343887329e-01" nType="1"/>\n            <Node pos="r" depth="3" NCoef="0" IVar="-1" Cut="0.0000000000000000e+00" cType="1" res="-9.9000000000000000e+01" rms="0.0000000000000000e+00" purity="3.7278386950492859e-01" nType="-1"/>\n          </Node>\n        </Node>\n        <Node pos="r" depth="1" NCoef="0" IVar="-1" Cut="0.0000000000000000e+00" cType="1" res="-9.9000000000000000e+01" rms="0.0000000000000000e+00" purity="3.6816942691802979e-01" nType="-1"/>\n      </Node>\n    </BinaryTree>\n    <BinaryTree type="DecisionTree" boostWeight="8.1986291548747786e-02" itree="25">\n      <Node pos="s" depth="0" NCoef="0" IVar="6" Cut="-8.0951231718063354e-01" cType="1" res="-9.9000000000000000e+01" rms="0.0000000000000000e+00" purity="4.8125660419464111e-01" nType="0">\n        <Node pos="l" depth="1" NCoef="0" IVar="6" Cut="-8.8207513093948364e-01" cType="0" res="-9.9000000000000000e+01" rms="0.0000000000000000e+00" purity="4.9566552042961121e-01" nType="0">\n          <Node pos="l" depth="2" NCoef="0" IVar="-1" Cut="-9.7552376985549927e-01" cType="0" res="-9.9000000000000000e+01" rms="0.0000000000000000e+00" purity="5.4207414388656616e-01" nType="1"/>\n          <Node pos="r" depth="2" NCoef="0" IVar="-1" Cut="7.5172096490859985e-01" cType="0" res="-9.9000000000000000e+01" rms="0.0000000000000000e+00" purity="4.7269573807716370e-01" nType="-1"/>\n        </Node>\n        <Node pos="r" depth="1" NCoef="0" IVar="-1" Cut="1.1564625799655914e-01" cType="0" res="-9.9000000000000000e+01" rms="0.0000000000000000e+00" purity="4.2525982856750488e-01" nType="-1"/>\n      </Node>\n    </BinaryTree>\n    <BinaryTree type="DecisionTree" boostWeight="9.1296974701531725e-02" itree="26">\n      <Node pos="s" depth="0" NCoef="0" IVar="8" Cut="-4.2857143282890320e-01" cType="0" res="-9.9000000000000000e+01" rms="0.0000000000000000e+00" purity="4.9092289805412292e-01" nType="0">\n        <Node pos="l" depth="1" NCoef="0" IVar="-1" Cut="0.0000000000000000e+00" cType="1" res="-9.9000000000000000e+01" rms="0.0000000000000000e+00" purity="5.7106411457061768e-01" nType="1"/>\n        <Node pos="r" depth="1" NCoef="0" IVar="17" Cut="7.8457069396972656e-01" cType="1" res="-9.9000000000000000e+01" rms="0.0000000000000000e+00" purity="4.8192366957664490e-01" nType="0">\n          <Node pos="l" depth="2" NCoef="0" IVar="28" Cut="-9.0476191043853760e-01" cType="1" res="-9.9000000000000000e+01" rms="0.0000000000000000e+00" purity="4.9246069788932800e-01" nType="0">\n            <Node pos="l" depth="3" NCoef="0" IVar="-1" Cut="0.0000000000000000e+00" cType="1" res="-9.9000000000000000e+01" rms="0.0000000000000000e+00" purity="5.4225450754165649e-01" nType="1"/>\n            <Node pos="r" depth="3" NCoef="0" IVar="-1" Cut="0.0000000000000000e+00" cType="1" res="-9.9000000000000000e+01" rms="0.0000000000000000e+00" purity="4.6972844004631042e-01" nType="-1"/>\n          </Node>\n          <Node pos="r" depth="2" NCoef="0" IVar="-1" Cut="0.0000000000000000e+00" cType="1" res="-9.9000000000000000e+01" rms="0.0000000000000000e+00" purity="3.4637689590454102e-01" nType="-1"/>\n        </Node>\n      </Node>\n    </BinaryTree>\n    <BinaryTree type="DecisionTree" boostWeight="9.7623566812253537e-02" itree="27">\n      <Node pos="s" depth="0" NCoef="0" IVar="4" Cut="1.4285714924335480e-01" cType="1" res="-9.9000000000000000e+01" rms="0.0000000000000000e+00" purity="4.9718704819679260e-01" nType="0">\n        <Node pos="l" depth="1" NCoef="0" IVar="1" Cut="-9.6655428409576416e-01" cType="0" res="-9.9000000000000000e+01" rms="0.0000000000000000e+00" purity="5.0356072187423706e-01" nType="0">\n          <Node pos="l" depth="2" NCoef="0" IVar="8" Cut="-6.6752374172210693e-01" cType="1" res="-9.9000000000000000e+01" rms="0.0000000000000000e+00" purity="5.6918978691101074e-01" nType="0">\n            <Node pos="l" depth="3" NCoef="0" IVar="-1" Cut="0.0000000000000000e+00" cType="1" res="-9.9000000000000000e+01" rms="0.0000000000000000e+00" purity="6.0004580020904541e-01" nType="1"/>\n            <Node pos="r" depth="3" NCoef="0" IVar="-1" Cut="0.0000000000000000e+00" cType="1" res="-9.9000000000000000e+01" rms="0.0000000000000000e+00" purity="4.9956229329109192e-01" nType="-1"/>\n          </Node>\n          <Node pos="r" depth="2" NCoef="0" IVar="1" Cut="-9.7450989484786987e-01" cType="0" res="-9.9000000000000000e+01" rms="0.0000000000000000e+00" purity="4.8434546589851379e-01" nType="0">\n            <Node pos="l" depth="3" NCoef="0" IVar="-1" Cut="0.0000000000000000e+00" cType="1" res="-9.9000000000000000e+01" rms="0.0000000000000000e+00" purity="6.0149264335632324e-01" nType="1"/>\n            <Node pos="r" depth="3" NCoef="0" IVar="-1" Cut="0.0000000000000000e+00" cType="1" res="-9.9000000000000000e+01" rms="0.0000000000000000e+00" purity="4.6957457065582275e-01" nType="-1"/>\n          </Node>\n        </Node>\n        <Node pos="r" depth="1" NCoef="0" IVar="-1" Cut="0.0000000000000000e+00" cType="1" res="-9.9000000000000000e+01" rms="0.0000000000000000e+00" purity="4.0404495596885681e-01" nType="-1"/>\n      </Node>\n    </BinaryTree>\n    <BinaryTree type="DecisionTree" boostWeight="8.3529927721781153e-02" itree="28">\n      <Node pos="s" depth="0" NCoef="0" IVar="6" Cut="-8.0951231718063354e-01" cType="1" res="-9.9000000000000000e+01" rms="0.0000000000000000e+00" purity="5.1050591468811035e-01" nType="0">\n        <Node pos="l" depth="1" NCoef="0" IVar="2" Cut="4.7529689967632294e-02" cType="0" res="-9.9000000000000000e+01" rms="0.0000000000000000e+00" purity="5.2154684066772461e-01" nType="0">\n          <Node pos="l" depth="2" NCoef="0" IVar="-1" Cut="0.0000000000000000e+00" cType="1" res="-9.9000000000000000e+01" rms="0.0000000000000000e+00" purity="5.8169281482696533e-01" nType="1"/>\n          <Node pos="r" depth="2" NCoef="0" IVar="4" Cut="-3.3339729905128479e-01" cType="1" res="-9.9000000000000000e+01" rms="0.0000000000000000e+00" purity="5.1254397630691528e-01" nType="0">\n            <Node pos="l" depth="3" NCoef="0" IVar="-1" Cut="0.0000000000000000e+00" cType="1" res="-9.9000000000000000e+01" rms="0.0000000000000000e+00" purity="5.2217024564743042e-01" nType="1"/>\n            <Node pos="r" depth="3" NCoef="0" IVar="-1" Cut="0.0000000000000000e+00" cType="1" res="-9.9000000000000000e+01" rms="0.0000000000000000e+00" purity="4.0251496434211731e-01" nType="-1"/>\n          </Node>\n        </Node>\n        <Node pos="r" depth="1" NCoef="0" IVar="3" Cut="1.1564625799655914e-01" cType="0" res="-9.9000000000000000e+01" rms="0.0000000000000000e+00" purity="4.6726194024085999e-01" nType="0">\n          <Node pos="l" depth="2" NCoef="0" IVar="7" Cut="-8.2706756889820099e-02" cType="1" res="-9.9000000000000000e+01" rms="0.0000000000000000e+00" purity="5.0089466571807861e-01" nType="0">\n            <Node pos="l" depth="3" NCoef="0" IVar="-1" Cut="0.0000000000000000e+00" cType="1" res="-9.9000000000000000e+01" rms="0.0000000000000000e+00" purity="5.3731936216354370e-01" nType="1"/>\n            <Node pos="r" depth="3" NCoef="0" IVar="-1" Cut="0.0000000000000000e+00" cType="1" res="-9.9000000000000000e+01" rms="0.0000000000000000e+00" purity="4.3591755628585815e-01" nType="-1"/>\n          </Node>\n          <Node pos="r" depth="2" NCoef="0" IVar="-1" Cut="0.0000000000000000e+00" cType="1" res="-9.9000000000000000e+01" rms="0.0000000000000000e+00" purity="3.8196092844009399e-01" nType="-1"/>\n        </Node>\n      </Node>\n    </BinaryTree>\n    <BinaryTree type="DecisionTree" boostWeight="7.8157820760058061e-02" itree="29">\n      <Node pos="s" depth="0" NCoef="0" IVar="5" Cut="-4.2857143282890320e-01" cType="0" res="-9.9000000000000000e+01" rms="0.0000000000000000e+00" purity="4.9653819203376770e-01" nType="0">\n        <Node pos="l" depth="1" NCoef="0" IVar="-1" Cut="0.0000000000000000e+00" cType="1" res="-9.9000000000000000e+01" rms="0.0000000000000000e+00" purity="5.5935698747634888e-01" nType="1"/>\n        <Node pos="r" depth="1" NCoef="0" IVar="17" Cut="7.8457069396972656e-01" cType="1" res="-9.9000000000000000e+01" rms="0.0000000000000000e+00" purity="4.8939526081085205e-01" nType="0">\n          <Node pos="l" depth="2" NCoef="0" IVar="18" Cut="8.5169017314910889e-01" cType="0" res="-9.9000000000000000e+01" rms="0.0000000000000000e+00" purity="4.9917778372764587e-01" nType="0">\n            <Node pos="l" depth="3" NCoef="0" IVar="-1" Cut="0.0000000000000000e+00" cType="1" res="-9.9000000000000000e+01" rms="0.0000000000000000e+00" purity="5.2820634841918945e-01" nType="1"/>\n            <Node pos="r" depth="3" NCoef="0" IVar="-1" Cut="0.0000000000000000e+00" cType="1" res="-9.9000000000000000e+01" rms="0.0000000000000000e+00" purity="4.7016647458076477e-01" nType="-1"/>\n          </Node>\n          <Node pos="r" depth="2" NCoef="0" IVar="-1" Cut="0.0000000000000000e+00" cType="1" res="-9.9000000000000000e+01" rms="0.0000000000000000e+00" purity="3.6893522739410400e-01" nType="-1"/>\n        </Node>\n      </Node>\n    </BinaryTree>\n    <BinaryTree type="DecisionTree" boostWeight="9.1547254332412606e-02" itree="30">\n      <Node pos="s" depth="0" NCoef="0" IVar="4" Cut="1.4285714924335480e-01" cType="1" res="-9.9000000000000000e+01" rms="0.0000000000000000e+00" purity="4.9585357308387756e-01" nType="0">\n        <Node pos="l" depth="1" NCoef="0" IVar="1" Cut="-9.6655428409576416e-01" cType="0" res="-9.9000000000000000e+01" rms="0.0000000000000000e+00" purity="5.0151818990707397e-01" nType="0">\n          <Node pos="l" depth="2" NCoef="0" IVar="-1" Cut="-6.6752374172210693e-01" cType="1" res="-9.9000000000000000e+01" rms="0.0000000000000000e+00" purity="5.5669206380844116e-01" nType="1"/>\n          <Node pos="r" depth="2" NCoef="0" IVar="1" Cut="-9.8882555961608887e-01" cType="0" res="-9.9000000000000000e+01" rms="0.0000000000000000e+00" purity="4.8535513877868652e-01" nType="0">\n            <Node pos="l" depth="3" NCoef="0" IVar="-1" Cut="0.0000000000000000e+00" cType="1" res="-9.9000000000000000e+01" rms="0.0000000000000000e+00" purity="5.2333819866180420e-01" nType="1"/>\n            <Node pos="r" depth="3" NCoef="0" IVar="-1" Cut="0.0000000000000000e+00" cType="1" res="-9.9000000000000000e+01" rms="0.0000000000000000e+00" purity="4.4482123851776123e-01" nType="-1"/>\n          </Node>\n        </Node>\n        <Node pos="r" depth="1" NCoef="0" IVar="-1" Cut="0.0000000000000000e+00" cType="1" res="-9.9000000000000000e+01" rms="0.0000000000000000e+00" purity="4.1269493103027344e-01" nType="-1"/>\n      </Node>\n    </BinaryTree>\n    <BinaryTree type="DecisionTree" boostWeight="1.3644960833318098e-01" itree="31">\n      <Node pos="s" depth="0" NCoef="0" IVar="4" Cut="-7.1428573131561279e-01" cType="0" res="-9.9000000000000000e+01" rms="0.0000000000000000e+00" purity="4.9188882112503052e-01" nType="0">\n        <Node pos="l" depth="1" NCoef="0" IVar="4" Cut="-4.6938520669937134e-01" cType="1" res="-9.9000000000000000e+01" rms="0.0000000000000000e+00" purity="5.2544176578521729e-01" nType="0">\n          <Node pos="l" depth="2" NCoef="0" IVar="-1" Cut="0.0000000000000000e+00" cType="1" res="-9.9000000000000000e+01" rms="0.0000000000000000e+00" purity="6.1376100778579712e-01" nType="1"/>\n          <Node pos="r" depth="2" NCoef="0" IVar="6" Cut="-9.4096738100051880e-01" cType="1" res="-9.9000000000000000e+01" rms="0.0000000000000000e+00" purity="4.7682827711105347e-01" nType="0">\n            <Node pos="l" depth="3" NCoef="0" IVar="-1" Cut="0.0000000000000000e+00" cType="1" res="-9.9000000000000000e+01" rms="0.0000000000000000e+00" purity="5.7362341880798340e-01" nType="1"/>\n            <Node pos="r" depth="3" NCoef="0" IVar="-1" Cut="0.0000000000000000e+00" cType="1" res="-9.9000000000000000e+01" rms="0.0000000000000000e+00" purity="4.1157877445220947e-01" nType="-1"/>\n          </Node>\n        </Node>\n        <Node pos="r" depth="1" NCoef="0" IVar="1" Cut="-9.4651019573211670e-01" cType="0" res="-9.9000000000000000e+01" rms="0.0000000000000000e+00" purity="4.7907409071922302e-01" nType="0">\n          <Node pos="l" depth="2" NCoef="0" IVar="-1" Cut="0.0000000000000000e+00" cType="1" res="-9.9000000000000000e+01" rms="0.0000000000000000e+00" purity="6.4250707626342773e-01" nType="1"/>\n          <Node pos="r" depth="2" NCoef="0" IVar="-1" Cut="-9.0476191043853760e-01" cType="1" res="-9.9000000000000000e+01" rms="0.0000000000000000e+00" purity="4.5466464757919312e-01" nType="-1"/>\n        </Node>\n      </Node>\n    </BinaryTree>\n    <BinaryTree type="DecisionTree" boostWeight="1.1610928521986794e-01" itree="32">\n      <Node pos="s" depth="0" NCoef="0" IVar="11" Cut="-9.0476191043853760e-01" cType="1" res="-9.9000000000000000e+01" rms="0.0000000000000000e+00" purity="5.0804424285888672e-01" nType="0">\n        <Node pos="l" depth="1" NCoef="0" IVar="18" Cut="8.5358148813247681e-01" cType="0" res="-9.9000000000000000e+01" rms="0.0000000000000000e+00" purity="5.2412778139114380e-01" nType="0">\n          <Node pos="l" depth="2" NCoef="0" IVar="14" Cut="7.6618033647537231e-01" cType="1" res="-9.9000000000000000e+01" rms="0.0000000000000000e+00" purity="5.4660004377365112e-01" nType="0">\n            <Node pos="l" depth="3" NCoef="0" IVar="-1" Cut="0.0000000000000000e+00" cType="1" res="-9.9000000000000000e+01" rms="0.0000000000000000e+00" purity="5.6902658939361572e-01" nType="1"/>\n            <Node pos="r" depth="3" NCoef="0" IVar="-1" Cut="0.0000000000000000e+00" cType="1" res="-9.9000000000000000e+01" rms="0.0000000000000000e+00" purity="4.3927466869354248e-01" nType="-1"/>\n          </Node>\n          <Node pos="r" depth="2" NCoef="0" IVar="7" Cut="-4.2857143282890320e-01" cType="0" res="-9.9000000000000000e+01" rms="0.0000000000000000e+00" purity="4.8034736514091492e-01" nType="0">\n            <Node pos="l" depth="3" NCoef="0" IVar="-1" Cut="0.0000000000000000e+00" cType="1" res="-9.9000000000000000e+01" rms="0.0000000000000000e+00" purity="5.3979414701461792e-01" nType="1"/>\n            <Node pos="r" depth="3" NCoef="0" IVar="-1" Cut="0.0000000000000000e+00" cType="1" res="-9.9000000000000000e+01" rms="0.0000000000000000e+00" purity="4.4706025719642639e-01" nType="-1"/>\n          </Node>\n        </Node>\n        <Node pos="r" depth="1" NCoef="0" IVar="14" Cut="7.4699008464813232e-01" cType="0" res="-9.9000000000000000e+01" rms="0.0000000000000000e+00" purity="4.8229530453681946e-01" nType="0">\n          <Node pos="l" depth="2" NCoef="0" IVar="3" Cut="-3.3333334326744080e-01" cType="0" res="-9.9000000000000000e+01" rms="0.0000000000000000e+00" purity="5.0083863735198975e-01" nType="0">\n            <Node pos="l" depth="3" NCoef="0" IVar="-1" Cut="0.0000000000000000e+00" cType="1" res="-9.9000000000000000e+01" rms="0.0000000000000000e+00" purity="5.2696901559829712e-01" nType="1"/>\n            <Node pos="r" depth="3" NCoef="0" IVar="-1" Cut="0.0000000000000000e+00" cType="1" res="-9.9000000000000000e+01" rms="0.0000000000000000e+00" purity="4.1766884922981262e-01" nType="-1"/>\n          </Node>\n          <Node pos="r" depth="2" NCoef="0" IVar="-1" Cut="0.0000000000000000e+00" cType="1" res="-9.9000000000000000e+01" rms="0.0000000000000000e+00" purity="3.7643319368362427e-01" nType="-1"/>\n        </Node>\n      </Node>\n    </BinaryTree>\n    <BinaryTree type="DecisionTree" boostWeight="1.4988721430011670e-01" itree="33">\n      <Node pos="s" depth="0" NCoef="0" IVar="17" Cut="7.8457069396972656e-01" cType="1" res="-9.9000000000000000e+01" rms="0.0000000000000000e+00" purity="4.9873799085617065e-01" nType="0">\n        <Node pos="l" depth="1" NCoef="0" IVar="19" Cut="-9.0476191043853760e-01" cType="0" res="-9.9000000000000000e+01" rms="0.0000000000000000e+00" purity="5.0503814220428467e-01" nType="0">\n          <Node pos="l" depth="2" NCoef="0" IVar="-1" Cut="0.0000000000000000e+00" cType="1" res="-9.9000000000000000e+01" rms="0.0000000000000000e+00" purity="5.3213495016098022e-01" nType="1"/>\n          <Node pos="r" depth="2" NCoef="0" IVar="11" Cut="-9.0476191043853760e-01" cType="1" res="-9.9000000000000000e+01" rms="0.0000000000000000e+00" purity="4.8793622851371765e-01" nType="0">\n            <Node pos="l" depth="3" NCoef="0" IVar="-1" Cut="0.0000000000000000e+00" cType="1" res="-9.9000000000000000e+01" rms="0.0000000000000000e+00" purity="5.6032013893127441e-01" nType="1"/>\n            <Node pos="r" depth="3" NCoef="0" IVar="-1" Cut="0.0000000000000000e+00" cType="1" res="-9.9000000000000000e+01" rms="0.0000000000000000e+00" purity="2.8402435779571533e-01" nType="-1"/>\n          </Node>\n        </Node>\n        <Node pos="r" depth="1" NCoef="0" IVar="-1" Cut="0.0000000000000000e+00" cType="1" res="-9.9000000000000000e+01" rms="0.0000000000000000e+00" purity="4.2592552304267883e-01" nType="-1"/>\n      </Node>\n    </BinaryTree>\n    <BinaryTree type="DecisionTree" boostWeight="1.2989954982529806e-01" itree="34">\n      <Node pos="s" depth="0" NCoef="0" IVar="3" Cut="-5.2380955219268799e-01" cType="1" res="-9.9000000000000000e+01" rms="0.0000000000000000e+00" purity="4.7810709476470947e-01" nType="0">\n        <Node pos="l" depth="1" NCoef="0" IVar="-1" Cut="0.0000000000000000e+00" cType="1" res="-9.9000000000000000e+01" rms="0.0000000000000000e+00" purity="5.7569658756256104e-01" nType="1"/>\n        <Node pos="r" depth="1" NCoef="0" IVar="15" Cut="7.1428561210632324e-01" cType="0" res="-9.9000000000000000e+01" rms="0.0000000000000000e+00" purity="4.7247943282127380e-01" nType="0">\n          <Node pos="l" depth="2" NCoef="0" IVar="15" Cut="7.8231483697891235e-01" cType="0" res="-9.9000000000000000e+01" rms="0.0000000000000000e+00" purity="4.7758162021636963e-01" nType="0">\n            <Node pos="l" depth="3" NCoef="0" IVar="-1" Cut="0.0000000000000000e+00" cType="1" res="-9.9000000000000000e+01" rms="0.0000000000000000e+00" purity="5.8608376979827881e-01" nType="1"/>\n            <Node pos="r" depth="3" NCoef="0" IVar="-1" Cut="0.0000000000000000e+00" cType="1" res="-9.9000000000000000e+01" rms="0.0000000000000000e+00" purity="4.4630712270736694e-01" nType="-1"/>\n          </Node>\n          <Node pos="r" depth="2" NCoef="0" IVar="-1" Cut="0.0000000000000000e+00" cType="1" res="-9.9000000000000000e+01" rms="0.0000000000000000e+00" purity="3.8381531834602356e-01" nType="-1"/>\n        </Node>\n      </Node>\n    </BinaryTree>\n    <BinaryTree type="DecisionTree" boostWeight="8.5670861906294055e-02" itree="35">\n      <Node pos="s" depth="0" NCoef="0" IVar="4" Cut="1.4285714924335480e-01" cType="1" res="-9.9000000000000000e+01" rms="0.0000000000000000e+00" purity="4.9397563934326172e-01" nType="0">\n        <Node pos="l" depth="1" NCoef="0" IVar="1" Cut="-9.6655428409576416e-01" cType="0" res="-9.9000000000000000e+01" rms="0.0000000000000000e+00" purity="4.9928137660026550e-01" nType="0">\n          <Node pos="l" depth="2" NCoef="0" IVar="9" Cut="8.4249079227447510e-02" cType="1" res="-9.9000000000000000e+01" rms="0.0000000000000000e+00" purity="5.4372042417526245e-01" nType="0">\n            <Node pos="l" depth="3" NCoef="0" IVar="-1" Cut="0.0000000000000000e+00" cType="1" res="-9.9000000000000000e+01" rms="0.0000000000000000e+00" purity="5.7282173633575439e-01" nType="1"/>\n            <Node pos="r" depth="3" NCoef="0" IVar="-1" Cut="0.0000000000000000e+00" cType="1" res="-9.9000000000000000e+01" rms="0.0000000000000000e+00" purity="4.9827659130096436e-01" nType="-1"/>\n          </Node>\n          <Node pos="r" depth="2" NCoef="0" IVar="1" Cut="-9.7928178310394287e-01" cType="0" res="-9.9000000000000000e+01" rms="0.0000000000000000e+00" purity="4.8650568723678589e-01" nType="0">\n            <Node pos="l" depth="3" NCoef="0" IVar="-1" Cut="0.0000000000000000e+00" cType="1" res="-9.9000000000000000e+01" rms="0.0000000000000000e+00" purity="5.6009018421173096e-01" nType="1"/>\n            <Node pos="r" depth="3" NCoef="0" IVar="-1" Cut="0.0000000000000000e+00" cType="1" res="-9.9000000000000000e+01" rms="0.0000000000000000e+00" purity="4.6718409657478333e-01" nType="-1"/>\n          </Node>\n        </Node>\n        <Node pos="r" depth="1" NCoef="0" IVar="-1" Cut="0.0000000000000000e+00" cType="1" res="-9.9000000000000000e+01" rms="0.0000000000000000e+00" purity="4.1704958677291870e-01" nType="-1"/>\n      </Node>\n    </BinaryTree>\n    <BinaryTree type="DecisionTree" boostWeight="5.6972238549414064e-02" itree="36">\n      <Node pos="s" depth="0" NCoef="0" IVar="8" Cut="-4.2857143282890320e-01" cType="0" res="-9.9000000000000000e+01" rms="0.0000000000000000e+00" purity="5.0347274541854858e-01" nType="0">\n        <Node pos="l" depth="1" NCoef="0" IVar="-1" Cut="0.0000000000000000e+00" cType="1" res="-9.9000000000000000e+01" rms="0.0000000000000000e+00" purity="5.5855214595794678e-01" nType="1"/>\n        <Node pos="r" depth="1" NCoef="0" IVar="17" Cut="7.8457069396972656e-01" cType="1" res="-9.9000000000000000e+01" rms="0.0000000000000000e+00" purity="4.9719601869583130e-01" nType="0">\n          <Node pos="l" depth="2" NCoef="0" IVar="19" Cut="-9.0476191043853760e-01" cType="0" res="-9.9000000000000000e+01" rms="0.0000000000000000e+00" purity="5.0421917438507080e-01" nType="0">\n            <Node pos="l" depth="3" NCoef="0" IVar="-1" Cut="0.0000000000000000e+00" cType="1" res="-9.9000000000000000e+01" rms="0.0000000000000000e+00" purity="5.3003001213073730e-01" nType="1"/>\n            <Node pos="r" depth="3" NCoef="0" IVar="-1" Cut="0.0000000000000000e+00" cType="1" res="-9.9000000000000000e+01" rms="0.0000000000000000e+00" purity="4.8718634247779846e-01" nType="-1"/>\n          </Node>\n          <Node pos="r" depth="2" NCoef="0" IVar="-1" Cut="0.0000000000000000e+00" cType="1" res="-9.9000000000000000e+01" rms="0.0000000000000000e+00" purity="4.0294134616851807e-01" nType="-1"/>\n        </Node>\n      </Node>\n    </BinaryTree>\n    <BinaryTree type="DecisionTree" boostWeight="6.6282945599702187e-02" itree="37">\n      <Node pos="s" depth="0" NCoef="0" IVar="6" Cut="-8.0951231718063354e-01" cType="1" res="-9.9000000000000000e+01" rms="0.0000000000000000e+00" purity="5.0534850358963013e-01" nType="0">\n        <Node pos="l" depth="1" NCoef="0" IVar="3" Cut="3.7868481874465942e-01" cType="0" res="-9.9000000000000000e+01" rms="0.0000000000000000e+00" purity="5.1441669464111328e-01" nType="0">\n          <Node pos="l" depth="2" NCoef="0" IVar="-1" Cut="0.0000000000000000e+00" cType="1" res="-9.9000000000000000e+01" rms="0.0000000000000000e+00" purity="6.0005569458007812e-01" nType="1"/>\n          <Node pos="r" depth="2" NCoef="0" IVar="3" Cut="2.6984131336212158e-01" cType="1" res="-9.9000000000000000e+01" rms="0.0000000000000000e+00" purity="5.0772356986999512e-01" nType="0">\n            <Node pos="l" depth="3" NCoef="0" IVar="-1" Cut="0.0000000000000000e+00" cType="1" res="-9.9000000000000000e+01" rms="0.0000000000000000e+00" purity="5.1709944009780884e-01" nType="1"/>\n            <Node pos="r" depth="3" NCoef="0" IVar="-1" Cut="0.0000000000000000e+00" cType="1" res="-9.9000000000000000e+01" rms="0.0000000000000000e+00" purity="3.9585298299789429e-01" nType="-1"/>\n          </Node>\n        </Node>\n        <Node pos="r" depth="1" NCoef="0" IVar="3" Cut="1.1564625799655914e-01" cType="0" res="-9.9000000000000000e+01" rms="0.0000000000000000e+00" purity="4.6953457593917847e-01" nType="0">\n          <Node pos="l" depth="2" NCoef="0" IVar="5" Cut="-9.1107237339019775e-01" cType="0" res="-9.9000000000000000e+01" rms="0.0000000000000000e+00" purity="4.9415537714958191e-01" nType="0">\n            <Node pos="l" depth="3" NCoef="0" IVar="-1" Cut="0.0000000000000000e+00" cType="1" res="-9.9000000000000000e+01" rms="0.0000000000000000e+00" purity="5.2257508039474487e-01" nType="1"/>\n            <Node pos="r" depth="3" NCoef="0" IVar="-1" Cut="0.0000000000000000e+00" cType="1" res="-9.9000000000000000e+01" rms="0.0000000000000000e+00" purity="4.6110552549362183e-01" nType="-1"/>\n          </Node>\n          <Node pos="r" depth="2" NCoef="0" IVar="-1" Cut="0.0000000000000000e+00" cType="1" res="-9.9000000000000000e+01" rms="0.0000000000000000e+00" purity="4.0741097927093506e-01" nType="-1"/>\n        </Node>\n      </Node>\n    </BinaryTree>\n    <BinaryTree type="DecisionTree" boostWeight="8.8209366330702352e-02" itree="38">\n      <Node pos="s" depth="0" NCoef="0" IVar="4" Cut="1.4285714924335480e-01" cType="1" res="-9.9000000000000000e+01" rms="0.0000000000000000e+00" purity="4.9478462338447571e-01" nType="0">\n        <Node pos="l" depth="1" NCoef="0" IVar="11" Cut="-9.0476191043853760e-01" cType="1" res="-9.9000000000000000e+01" rms="0.0000000000000000e+00" purity="4.9959793686866760e-01" nType="0">\n          <Node pos="l" depth="2" NCoef="0" IVar="18" Cut="8.5358148813247681e-01" cType="0" res="-9.9000000000000000e+01" rms="0.0000000000000000e+00" purity="5.1353621482849121e-01" nType="0">\n            <Node pos="l" depth="3" NCoef="0" IVar="-1" Cut="0.0000000000000000e+00" cType="1" res="-9.9000000000000000e+01" rms="0.0000000000000000e+00" purity="5.3589814901351929e-01" nType="1"/>\n            <Node pos="r" depth="3" NCoef="0" IVar="-1" Cut="0.0000000000000000e+00" cType="1" res="-9.9000000000000000e+01" rms="0.0000000000000000e+00" purity="4.7124573588371277e-01" nType="-1"/>\n          </Node>\n          <Node pos="r" depth="2" NCoef="0" IVar="1" Cut="-9.7269988059997559e-01" cType="0" res="-9.9000000000000000e+01" rms="0.0000000000000000e+00" purity="4.7781580686569214e-01" nType="0">\n            <Node pos="l" depth="3" NCoef="0" IVar="-1" Cut="0.0000000000000000e+00" cType="1" res="-9.9000000000000000e+01" rms="0.0000000000000000e+00" purity="5.3082591295242310e-01" nType="1"/>\n            <Node pos="r" depth="3" NCoef="0" IVar="-1" Cut="0.0000000000000000e+00" cType="1" res="-9.9000000000000000e+01" rms="0.0000000000000000e+00" purity="4.1741102933883667e-01" nType="-1"/>\n          </Node>\n        </Node>\n        <Node pos="r" depth="1" NCoef="0" IVar="-1" Cut="0.0000000000000000e+00" cType="1" res="-9.9000000000000000e+01" rms="0.0000000000000000e+00" purity="4.2502614855766296e-01" nType="-1"/>\n      </Node>\n    </BinaryTree>\n    <BinaryTree type="DecisionTree" boostWeight="9.9373729523949697e-02" itree="39">\n      <Node pos="s" depth="0" NCoef="0" IVar="18" Cut="7.1428573131561279e-01" cType="1" res="-9.9000000000000000e+01" rms="0.0000000000000000e+00" purity="4.9177572131156921e-01" nType="0">\n        <Node pos="l" depth="1" NCoef="0" IVar="-1" Cut="0.0000000000000000e+00" cType="1" res="-9.9000000000000000e+01" rms="0.0000000000000000e+00" purity="5.6688481569290161e-01" nType="1"/>\n        <Node pos="r" depth="1" NCoef="0" IVar="15" Cut="7.6670354604721069e-01" cType="0" res="-9.9000000000000000e+01" rms="0.0000000000000000e+00" purity="4.8747560381889343e-01" nType="0">\n          <Node pos="l" depth="2" NCoef="0" IVar="14" Cut="7.3591804504394531e-01" cType="1" res="-9.9000000000000000e+01" rms="0.0000000000000000e+00" purity="5.0776737928390503e-01" nType="0">\n            <Node pos="l" depth="3" NCoef="0" IVar="-1" Cut="0.0000000000000000e+00" cType="1" res="-9.9000000000000000e+01" rms="0.0000000000000000e+00" purity="5.8496963977813721e-01" nType="1"/>\n            <Node pos="r" depth="3" NCoef="0" IVar="-1" Cut="0.0000000000000000e+00" cType="1" res="-9.9000000000000000e+01" rms="0.0000000000000000e+00" purity="4.8981952667236328e-01" nType="-1"/>\n          </Node>\n          <Node pos="r" depth="2" NCoef="0" IVar="5" Cut="-8.2873606681823730e-01" cType="0" res="-9.9000000000000000e+01" rms="0.0000000000000000e+00" purity="4.0446859598159790e-01" nType="0">\n            <Node pos="l" depth="3" NCoef="0" IVar="-1" Cut="0.0000000000000000e+00" cType="1" res="-9.9000000000000000e+01" rms="0.0000000000000000e+00" purity="5.6459045410156250e-01" nType="1"/>\n            <Node pos="r" depth="3" NCoef="0" IVar="-1" Cut="0.0000000000000000e+00" cType="1" res="-9.9000000000000000e+01" rms="0.0000000000000000e+00" purity="2.9600971937179565e-01" nType="-1"/>\n          </Node>\n        </Node>\n      </Node>\n    </BinaryTree>\n    <BinaryTree type="DecisionTree" boostWeight="7.0158390879310528e-02" itree="40">\n      <Node pos="s" depth="0" NCoef="0" IVar="4" Cut="-3.3333334326744080e-01" cType="1" res="-9.9000000000000000e+01" rms="0.0000000000000000e+00" purity="5.0308305025100708e-01" nType="0">\n        <Node pos="l" depth="1" NCoef="0" IVar="4" Cut="-7.1430295705795288e-01" cType="0" res="-9.9000000000000000e+01" rms="0.0000000000000000e+00" purity="5.0981885194778442e-01" nType="0">\n          <Node pos="l" depth="2" NCoef="0" IVar="-1" Cut="0.0000000000000000e+00" cType="1" res="-9.9000000000000000e+01" rms="0.0000000000000000e+00" purity="5.6218177080154419e-01" nType="1"/>\n          <Node pos="r" depth="2" NCoef="0" IVar="1" Cut="-9.4651019573211670e-01" cType="0" res="-9.9000000000000000e+01" rms="0.0000000000000000e+00" purity="5.0005513429641724e-01" nType="0">\n            <Node pos="l" depth="3" NCoef="0" IVar="-1" Cut="0.0000000000000000e+00" cType="1" res="-9.9000000000000000e+01" rms="0.0000000000000000e+00" purity="6.1685407161712646e-01" nType="1"/>\n            <Node pos="r" depth="3" NCoef="0" IVar="-1" Cut="0.0000000000000000e+00" cType="1" res="-9.9000000000000000e+01" rms="0.0000000000000000e+00" purity="4.8293954133987427e-01" nType="-1"/>\n          </Node>\n        </Node>\n        <Node pos="r" depth="1" NCoef="0" IVar="-1" Cut="-2.3219173774123192e-02" cType="0" res="-9.9000000000000000e+01" rms="0.0000000000000000e+00" purity="4.6428701281547546e-01" nType="-1"/>\n      </Node>\n    </BinaryTree>\n    <BinaryTree type="DecisionTree" boostWeight="5.9285848307380228e-02" itree="41">\n      <Node pos="s" depth="0" NCoef="0" IVar="5" Cut="-4.2857143282890320e-01" cType="0" res="-9.9000000000000000e+01" rms="0.0000000000000000e+00" purity="5.1273274421691895e-01" nType="0">\n        <Node pos="l" depth="1" NCoef="0" IVar="-1" Cut="0.0000000000000000e+00" cType="1" res="-9.9000000000000000e+01" rms="0.0000000000000000e+00" purity="5.5102050304412842e-01" nType="1"/>\n        <Node pos="r" depth="1" NCoef="0" IVar="4" Cut="-1.4293940365314484e-01" cType="1" res="-9.9000000000000000e+01" rms="0.0000000000000000e+00" purity="5.0819158554077148e-01" nType="0">\n          <Node pos="l" depth="2" NCoef="0" IVar="19" Cut="-9.0476191043853760e-01" cType="0" res="-9.9000000000000000e+01" rms="0.0000000000000000e+00" purity="5.1444357633590698e-01" nType="0">\n            <Node pos="l" depth="3" NCoef="0" IVar="-1" Cut="0.0000000000000000e+00" cType="1" res="-9.9000000000000000e+01" rms="0.0000000000000000e+00" purity="5.4714840650558472e-01" nType="1"/>\n            <Node pos="r" depth="3" NCoef="0" IVar="-1" Cut="0.0000000000000000e+00" cType="1" res="-9.9000000000000000e+01" rms="0.0000000000000000e+00" purity="4.9262198805809021e-01" nType="-1"/>\n          </Node>\n          <Node pos="r" depth="2" NCoef="0" IVar="-1" Cut="0.0000000000000000e+00" cType="1" res="-9.9000000000000000e+01" rms="0.0000000000000000e+00" purity="4.1921147704124451e-01" nType="-1"/>\n        </Node>\n      </Node>\n    </BinaryTree>\n    <BinaryTree type="DecisionTree" boostWeight="9.4068406719607561e-02" itree="42">\n      <Node pos="s" depth="0" NCoef="0" IVar="25" Cut="-9.0476191043853760e-01" cType="1" res="-9.9000000000000000e+01" rms="0.0000000000000000e+00" purity="5.1452702283859253e-01" nType="0">\n        <Node pos="l" depth="1" NCoef="0" IVar="8" Cut="-6.9643950462341309e-01" cType="1" res="-9.9000000000000000e+01" rms="0.0000000000000000e+00" purity="5.3285866975784302e-01" nType="0">\n          <Node pos="l" depth="2" NCoef="0" IVar="-1" Cut="-6.5914785861968994e-01" cType="0" res="-9.9000000000000000e+01" rms="0.0000000000000000e+00" purity="5.5839365720748901e-01" nType="1"/>\n          <Node pos="r" depth="2" NCoef="0" IVar="-1" Cut="0.0000000000000000e+00" cType="1" res="-9.9000000000000000e+01" rms="0.0000000000000000e+00" purity="4.9936828017234802e-01" nType="-1"/>\n        </Node>\n        <Node pos="r" depth="1" NCoef="0" IVar="27" Cut="9.9050468206405640e-01" cType="0" res="-9.9000000000000000e+01" rms="0.0000000000000000e+00" purity="5.0100713968276978e-01" nType="0">\n          <Node pos="l" depth="2" NCoef="0" IVar="-1" Cut="9.9729782342910767e-01" cType="0" res="-9.9000000000000000e+01" rms="0.0000000000000000e+00" purity="5.3453916311264038e-01" nType="1"/>\n          <Node pos="r" depth="2" NCoef="0" IVar="-1" Cut="0.0000000000000000e+00" cType="1" res="-9.9000000000000000e+01" rms="0.0000000000000000e+00" purity="3.2819432020187378e-01" nType="-1"/>\n        </Node>\n      </Node>\n    </BinaryTree>\n    <BinaryTree type="DecisionTree" boostWeight="1.0347534021076550e-01" itree="43">\n      <Node pos="s" depth="0" NCoef="0" IVar="25" Cut="-9.0476191043853760e-01" cType="1" res="-9.9000000000000000e+01" rms="0.0000000000000000e+00" purity="5.0407141447067261e-01" nType="0">\n        <Node pos="l" depth="1" NCoef="0" IVar="-1" Cut="-9.0476191043853760e-01" cType="1" res="-9.9000000000000000e+01" rms="0.0000000000000000e+00" purity="5.2978485822677612e-01" nType="1"/>\n        <Node pos="r" depth="1" NCoef="0" IVar="27" Cut="9.9228507280349731e-01" cType="0" res="-9.9000000000000000e+01" rms="0.0000000000000000e+00" purity="4.8506525158882141e-01" nType="0">\n          <Node pos="l" depth="2" NCoef="0" IVar="27" Cut="9.9744123220443726e-01" cType="0" res="-9.9000000000000000e+01" rms="0.0000000000000000e+00" purity="5.2239686250686646e-01" nType="0">\n            <Node pos="l" depth="3" NCoef="0" IVar="-1" Cut="0.0000000000000000e+00" cType="1" res="-9.9000000000000000e+01" rms="0.0000000000000000e+00" purity="5.8623230457305908e-01" nType="1"/>\n            <Node pos="r" depth="3" NCoef="0" IVar="-1" Cut="0.0000000000000000e+00" cType="1" res="-9.9000000000000000e+01" rms="0.0000000000000000e+00" purity="4.9857816100120544e-01" nType="-1"/>\n          </Node>\n          <Node pos="r" depth="2" NCoef="0" IVar="4" Cut="-7.1360486745834351e-01" cType="0" res="-9.9000000000000000e+01" rms="0.0000000000000000e+00" purity="3.8277941942214966e-01" nType="0">\n            <Node pos="l" depth="3" NCoef="0" IVar="-1" Cut="0.0000000000000000e+00" cType="1" res="-9.9000000000000000e+01" rms="0.0000000000000000e+00" purity="5.6436967849731445e-01" nType="1"/>\n            <Node pos="r" depth="3" NCoef="0" IVar="-1" Cut="0.0000000000000000e+00" cType="1" res="-9.9000000000000000e+01" rms="0.0000000000000000e+00" purity="2.8572425246238708e-01" nType="-1"/>\n          </Node>\n        </Node>\n      </Node>\n    </BinaryTree>\n    <BinaryTree type="DecisionTree" boostWeight="4.5196007610163548e-02" itree="44">\n      <Node pos="s" depth="0" NCoef="0" IVar="4" Cut="-3.3333334326744080e-01" cType="1" res="-9.9000000000000000e+01" rms="0.0000000000000000e+00" purity="5.0534427165985107e-01" nType="0">\n        <Node pos="l" depth="1" NCoef="0" IVar="2" Cut="-7.1438443660736084e-01" cType="0" res="-9.9000000000000000e+01" rms="0.0000000000000000e+00" purity="5.1229715347290039e-01" nType="0">\n          <Node pos="l" depth="2" NCoef="0" IVar="-1" Cut="-9.0476191043853760e-01" cType="1" res="-9.9000000000000000e+01" rms="0.0000000000000000e+00" purity="5.1730412244796753e-01" nType="1"/>\n          <Node pos="r" depth="2" NCoef="0" IVar="-1" Cut="0.0000000000000000e+00" cType="1" res="-9.9000000000000000e+01" rms="0.0000000000000000e+00" purity="4.4759377837181091e-01" nType="-1"/>\n        </Node>\n        <Node pos="r" depth="1" NCoef="0" IVar="8" Cut="-6.1904764175415039e-01" cType="0" res="-9.9000000000000000e+01" rms="0.0000000000000000e+00" purity="4.6566691994667053e-01" nType="0">\n          <Node pos="l" depth="2" NCoef="0" IVar="-1" Cut="0.0000000000000000e+00" cType="1" res="-9.9000000000000000e+01" rms="0.0000000000000000e+00" purity="5.0423002243041992e-01" nType="1"/>\n          <Node pos="r" depth="2" NCoef="0" IVar="-1" Cut="0.0000000000000000e+00" cType="1" res="-9.9000000000000000e+01" rms="0.0000000000000000e+00" purity="4.3133345246315002e-01" nType="-1"/>\n        </Node>\n      </Node>\n    </BinaryTree>\n    <BinaryTree type="DecisionTree" boostWeight="5.4981731493301149e-02" itree="45">\n      <Node pos="s" depth="0" NCoef="0" IVar="7" Cut="-4.7619048506021500e-02" cType="1" res="-9.9000000000000000e+01" rms="0.0000000000000000e+00" purity="4.9720743298530579e-01" nType="0">\n        <Node pos="l" depth="1" NCoef="0" IVar="3" Cut="3.7868481874465942e-01" cType="0" res="-9.9000000000000000e+01" rms="0.0000000000000000e+00" purity="5.0056856870651245e-01" nType="0">\n          <Node pos="l" depth="2" NCoef="0" IVar="-1" Cut="0.0000000000000000e+00" cType="1" res="-9.9000000000000000e+01" rms="0.0000000000000000e+00" purity="5.9355831146240234e-01" nType="1"/>\n          <Node pos="r" depth="2" NCoef="0" IVar="5" Cut="-9.1211670637130737e-01" cType="1" res="-9.9000000000000000e+01" rms="0.0000000000000000e+00" purity="4.9324315786361694e-01" nType="0">\n            <Node pos="l" depth="3" NCoef="0" IVar="-1" Cut="0.0000000000000000e+00" cType="1" res="-9.9000000000000000e+01" rms="0.0000000000000000e+00" purity="5.1489865779876709e-01" nType="1"/>\n            <Node pos="r" depth="3" NCoef="0" IVar="-1" Cut="0.0000000000000000e+00" cType="1" res="-9.9000000000000000e+01" rms="0.0000000000000000e+00" purity="4.7501435875892639e-01" nType="-1"/>\n          </Node>\n        </Node>\n        <Node pos="r" depth="1" NCoef="0" IVar="-1" Cut="0.0000000000000000e+00" cType="1" res="-9.9000000000000000e+01" rms="0.0000000000000000e+00" purity="4.4594314694404602e-01" nType="-1"/>\n      </Node>\n    </BinaryTree>\n    <BinaryTree type="DecisionTree" boostWeight="4.3323098778620922e-02" itree="46">\n      <Node pos="s" depth="0" NCoef="0" IVar="8" Cut="-4.2857143282890320e-01" cType="0" res="-9.9000000000000000e+01" rms="0.0000000000000000e+00" purity="4.9813550710678101e-01" nType="0">\n        <Node pos="l" depth="1" NCoef="0" IVar="-1" Cut="0.0000000000000000e+00" cType="1" res="-9.9000000000000000e+01" rms="0.0000000000000000e+00" purity="5.3701198101043701e-01" nType="1"/>\n        <Node pos="r" depth="1" NCoef="0" IVar="17" Cut="7.8457069396972656e-01" cType="1" res="-9.9000000000000000e+01" rms="0.0000000000000000e+00" purity="4.9368497729301453e-01" nType="0">\n          <Node pos="l" depth="2" NCoef="0" IVar="3" Cut="3.3333334326744080e-01" cType="0" res="-9.9000000000000000e+01" rms="0.0000000000000000e+00" purity="5.0019830465316772e-01" nType="0">\n            <Node pos="l" depth="3" NCoef="0" IVar="-1" Cut="0.0000000000000000e+00" cType="1" res="-9.9000000000000000e+01" rms="0.0000000000000000e+00" purity="5.4790961742401123e-01" nType="1"/>\n            <Node pos="r" depth="3" NCoef="0" IVar="-1" Cut="0.0000000000000000e+00" cType="1" res="-9.9000000000000000e+01" rms="0.0000000000000000e+00" purity="4.9164506793022156e-01" nType="-1"/>\n          </Node>\n          <Node pos="r" depth="2" NCoef="0" IVar="-1" Cut="0.0000000000000000e+00" cType="1" res="-9.9000000000000000e+01" rms="0.0000000000000000e+00" purity="4.0457537770271301e-01" nType="-1"/>\n        </Node>\n      </Node>\n    </BinaryTree>\n    <BinaryTree type="DecisionTree" boostWeight="5.7207179541067937e-02" itree="47">\n      <Node pos="s" depth="0" NCoef="0" IVar="6" Cut="-8.0951231718063354e-01" cType="1" res="-9.9000000000000000e+01" rms="0.0000000000000000e+00" purity="5.0399059057235718e-01" nType="0">\n        <Node pos="l" depth="1" NCoef="0" IVar="6" Cut="-8.5486459732055664e-01" cType="0" res="-9.9000000000000000e+01" rms="0.0000000000000000e+00" purity="5.1042610406875610e-01" nType="0">\n          <Node pos="l" depth="2" NCoef="0" IVar="6" Cut="-8.3758777379989624e-01" cType="1" res="-9.9000000000000000e+01" rms="0.0000000000000000e+00" purity="5.5001437664031982e-01" nType="0">\n            <Node pos="l" depth="3" NCoef="0" IVar="-1" Cut="0.0000000000000000e+00" cType="1" res="-9.9000000000000000e+01" rms="0.0000000000000000e+00" purity="6.1901116371154785e-01" nType="1"/>\n            <Node pos="r" depth="3" NCoef="0" IVar="-1" Cut="0.0000000000000000e+00" cType="1" res="-9.9000000000000000e+01" rms="0.0000000000000000e+00" purity="4.8544672131538391e-01" nType="-1"/>\n          </Node>\n          <Node pos="r" depth="2" NCoef="0" IVar="14" Cut="7.1428573131561279e-01" cType="1" res="-9.9000000000000000e+01" rms="0.0000000000000000e+00" purity="5.0099432468414307e-01" nType="0">\n            <Node pos="l" depth="3" NCoef="0" IVar="-1" Cut="0.0000000000000000e+00" cType="1" res="-9.9000000000000000e+01" rms="0.0000000000000000e+00" purity="5.4622095823287964e-01" nType="1"/>\n            <Node pos="r" depth="3" NCoef="0" IVar="-1" Cut="0.0000000000000000e+00" cType="1" res="-9.9000000000000000e+01" rms="0.0000000000000000e+00" purity="4.8894158005714417e-01" nType="-1"/>\n          </Node>\n        </Node>\n        <Node pos="r" depth="1" NCoef="0" IVar="11" Cut="-9.0476191043853760e-01" cType="0" res="-9.9000000000000000e+01" rms="0.0000000000000000e+00" purity="4.7851368784904480e-01" nType="0">\n          <Node pos="l" depth="2" NCoef="0" IVar="-1" Cut="0.0000000000000000e+00" cType="1" res="-9.9000000000000000e+01" rms="0.0000000000000000e+00" purity="5.1243734359741211e-01" nType="1"/>\n          <Node pos="r" depth="2" NCoef="0" IVar="-1" Cut="0.0000000000000000e+00" cType="1" res="-9.9000000000000000e+01" rms="0.0000000000000000e+00" purity="4.4867798686027527e-01" nType="-1"/>\n        </Node>\n      </Node>\n    </BinaryTree>\n    <BinaryTree type="DecisionTree" boostWeight="1.3062889665586511e-01" itree="48">\n      <Node pos="s" depth="0" NCoef="0" IVar="16" Cut="6.9447720050811768e-01" cType="0" res="-9.9000000000000000e+01" rms="0.0000000000000000e+00" purity="5.0960284471511841e-01" nType="0">\n        <Node pos="l" depth="1" NCoef="0" IVar="19" Cut="-9.0476191043853760e-01" cType="1" res="-9.9000000000000000e+01" rms="0.0000000000000000e+00" purity="5.1950615644454956e-01" nType="0">\n          <Node pos="l" depth="2" NCoef="0" IVar="13" Cut="-9.0476191043853760e-01" cType="1" res="-9.9000000000000000e+01" rms="0.0000000000000000e+00" purity="5.4169875383377075e-01" nType="0">\n            <Node pos="l" depth="3" NCoef="0" IVar="-1" Cut="0.0000000000000000e+00" cType="1" res="-9.9000000000000000e+01" rms="0.0000000000000000e+00" purity="5.7601219415664673e-01" nType="1"/>\n            <Node pos="r" depth="3" NCoef="0" IVar="-1" Cut="0.0000000000000000e+00" cType="1" res="-9.9000000000000000e+01" rms="0.0000000000000000e+00" purity="4.2044958472251892e-01" nType="-1"/>\n          </Node>\n          <Node pos="r" depth="2" NCoef="0" IVar="-1" Cut="0.0000000000000000e+00" cType="1" res="-9.9000000000000000e+01" rms="0.0000000000000000e+00" purity="4.7551074624061584e-01" nType="-1"/>\n        </Node>\n        <Node pos="r" depth="1" NCoef="0" IVar="0" Cut="-9.7113430500030518e-01" cType="0" res="-9.9000000000000000e+01" rms="0.0000000000000000e+00" purity="4.8082134127616882e-01" nType="0">\n          <Node pos="l" depth="2" NCoef="0" IVar="-1" Cut="0.0000000000000000e+00" cType="1" res="-9.9000000000000000e+01" rms="0.0000000000000000e+00" purity="5.8965086936950684e-01" nType="1"/>\n          <Node pos="r" depth="2" NCoef="0" IVar="-1" Cut="7.1087104082107544e-01" cType="0" res="-9.9000000000000000e+01" rms="0.0000000000000000e+00" purity="4.2286813259124756e-01" nType="-1"/>\n        </Node>\n      </Node>\n    </BinaryTree>\n    <BinaryTree type="DecisionTree" boostWeight="1.3515660772247137e-01" itree="49">\n      <Node pos="s" depth="0" NCoef="0" IVar="19" Cut="-9.0476191043853760e-01" cType="0" res="-9.9000000000000000e+01" rms="0.0000000000000000e+00" purity="5.1136815547943115e-01" nType="0">\n        <Node pos="l" depth="1" NCoef="0" IVar="-1" Cut="0.0000000000000000e+00" cType="1" res="-9.9000000000000000e+01" rms="0.0000000000000000e+00" purity="5.3644585609436035e-01" nType="1"/>\n        <Node pos="r" depth="1" NCoef="0" IVar="11" Cut="-9.0476191043853760e-01" cType="1" res="-9.9000000000000000e+01" rms="0.0000000000000000e+00" purity="4.9479278922080994e-01" nType="0">\n          <Node pos="l" depth="2" NCoef="0" IVar="28" Cut="-9.0476191043853760e-01" cType="0" res="-9.9000000000000000e+01" rms="0.0000000000000000e+00" purity="5.3522217273712158e-01" nType="0">\n            <Node pos="l" depth="3" NCoef="0" IVar="-1" Cut="0.0000000000000000e+00" cType="1" res="-9.9000000000000000e+01" rms="0.0000000000000000e+00" purity="5.7955491542816162e-01" nType="1"/>\n            <Node pos="r" depth="3" NCoef="0" IVar="-1" Cut="0.0000000000000000e+00" cType="1" res="-9.9000000000000000e+01" rms="0.0000000000000000e+00" purity="4.8559796810150146e-01" nType="-1"/>\n          </Node>\n          <Node pos="r" depth="2" NCoef="0" IVar="25" Cut="-9.0476191043853760e-01" cType="1" res="-9.9000000000000000e+01" rms="0.0000000000000000e+00" purity="3.8102546334266663e-01" nType="0">\n            <Node pos="l" depth="3" NCoef="0" IVar="-1" Cut="0.0000000000000000e+00" cType="1" res="-9.9000000000000000e+01" rms="0.0000000000000000e+00" purity="5.7078933715820312e-01" nType="1"/>\n            <Node pos="r" depth="3" NCoef="0" IVar="-1" Cut="0.0000000000000000e+00" cType="1" res="-9.9000000000000000e+01" rms="0.0000000000000000e+00" purity="1.5280583500862122e-01" nType="-1"/>\n          </Node>\n        </Node>\n      </Node>\n    </BinaryTree>\n  </Weights>\n</MethodSetup>\n'
p82
sb.