ccopy_reg
_reconstructor
p0
(crep.estimators.tmva
TMVAClassifier
p1
c__builtin__
object
p2
Ntp3
Rp4
(dp5
S'classes_'
p6
cnumpy.core.multiarray
_reconstruct
p7
(cnumpy
ndarray
p8
(I0
tp9
S'b'
p10
tp11
Rp12
(I1
(I2
tp13
cnumpy
dtype
p14
(S'i4'
p15
I0
I1
tp16
Rp17
(I3
S'<'
p18
NNNI-1
I-1
I0
tp19
bI00
S'\x00\x00\x00\x00\x01\x00\x00\x00'
p20
tp21
bsS'features'
p22
(lp23
S'Feature_0'
p24
aS'Feature_1'
p25
aS'Feature_2'
p26
aS'Feature_3'
p27
aS'Feature_4'
p28
aS'Feature_5'
p29
aS'Feature_6'
p30
aS'Feature_7'
p31
aS'Feature_8'
p32
aS'Feature_9'
p33
aS'Feature_10'
p34
aS'Feature_11'
p35
aS'Feature_12'
p36
aS'Feature_13'
p37
aS'Feature_14'
p38
aS'Feature_15'
p39
aS'Feature_16'
p40
aS'Feature_17'
p41
aS'Feature_18'
p42
aS'Feature_19'
p43
aS'Feature_20'
p44
aS'Feature_21'
p45
aS'Feature_22'
p46
aS'Feature_23'
p47
aS'Feature_24'
p48
aS'Feature_25'
p49
aS'Feature_26'
p50
aS'Feature_27'
p51
aS'Feature_28'
p52
aS'Feature_29'
p53
aS'Feature_30'
p54
aS'Feature_31'
p55
asS'n_classes_'
p56
I2
sS'sigmoid_function'
p57
S'bdt'
p58
sS'_method_name'
p59
S'REP_Estimator'
p60
sS'method_parameters'
p61
(dp62
S'VarTransform'
p63
S'Norm'
p64
sS'PruningValFraction'
p65
F0.3
sS'NTrees'
p66
I50
sS'PruneStrength'
p67
I-1
sS'H'
p68
S'false'
p69
sS'PruneMethod'
p70
S'CostComplexity'
p71
sS'MaxDepth'
p72
I3
sS'V'
p73
S'true'
p74
sS'BoostType'
p75
S'AdaBoost'
p76
ssS'factory_options'
p77
S'V:!Silent:!Color:!DrawProgressBar:AnalysisType=Classification:AnalysisType=Classification:AnalysisType=Classification'
p78
sS'method'
p79
S'kBDT'
p80
sS'formula_xml'
p81
S'<?xml version="1.0"?>\n<MethodSetup Method="BDT::REP_Estimator">\n  <GeneralInfo>\n    <Info name="TMVA Release" value="4.2.0 [262656]"/>\n    <Info name="ROOT Release" value="5.34/32 [336416]"/>\n    <Info name="Creator" value="root"/>\n    <Info name="Date" value="Thu Feb 25 16:04:51 2016"/>\n    <Info name="Host" value="Linux localhost.localdomain 2.6.32-431.1.2.el6.x86_64 #1 SMP Thu Dec 12 13:59:19 CST 2013 x86_64 x86_64 x86_64 GNU/Linux"/>\n    <Info name="Dir" value="/notebooks/PID/sergey_korolev/tmptZrGf4"/>\n    <Info name="Training events" value="120000"/>\n    <Info name="TrainingTime" value="1.08063612e+01"/>\n    <Info name="AnalysisType" value="Classification"/>\n  </GeneralInfo>\n  <Options>\n    <Option name="V" modified="Yes">True</Option>\n    <Option name="VerbosityLevel" modified="No">Verbose</Option>\n    <Option name="VarTransform" modified="Yes">Norm</Option>\n    <Option name="H" modified="Yes">False</Option>\n    <Option name="CreateMVAPdfs" modified="No">False</Option>\n    <Option name="IgnoreNegWeightsInTraining" modified="No">False</Option>\n    <Option name="NTrees" modified="Yes">50</Option>\n    <Option name="MaxDepth" modified="Yes">3</Option>\n    <Option name="MinNodeSize" modified="No">5%</Option>\n    <Option name="nCuts" modified="No">20</Option>\n    <Option name="BoostType" modified="Yes">AdaBoost</Option>\n    <Option name="AdaBoostR2Loss" modified="No">quadratic</Option>\n    <Option name="UseBaggedBoost" modified="No">False</Option>\n    <Option name="Shrinkage" modified="No">1.000000e+00</Option>\n    <Option name="AdaBoostBeta" modified="No">5.000000e-01</Option>\n    <Option name="UseRandomisedTrees" modified="No">False</Option>\n    <Option name="UseNvars" modified="No">6</Option>\n    <Option name="UsePoissonNvars" modified="No">True</Option>\n    <Option name="BaggedSampleFraction" modified="No">6.000000e-01</Option>\n    <Option name="UseYesNoLeaf" modified="No">True</Option>\n    <Option name="NegWeightTreatment" modified="No">inverseboostnegweights</Option>\n    <Option name="Css" modified="No">1.000000e+00</Option>\n    <Option name="Cts_sb" modified="No">1.000000e+00</Option>\n    <Option name="Ctb_ss" modified="No">1.000000e+00</Option>\n    <Option name="Cbb" modified="No">1.000000e+00</Option>\n    <Option name="NodePurityLimit" modified="No">5.000000e-01</Option>\n    <Option name="SeparationType" modified="No">giniindex</Option>\n    <Option name="DoBoostMonitor" modified="No">False</Option>\n    <Option name="UseFisherCuts" modified="No">False</Option>\n    <Option name="MinLinCorrForFisher" modified="No">8.000000e-01</Option>\n    <Option name="UseExclusiveVars" modified="No">False</Option>\n    <Option name="DoPreselection" modified="No">False</Option>\n    <Option name="SigToBkgFraction" modified="No">1.000000e+00</Option>\n    <Option name="PruneMethod" modified="Yes">costcomplexity</Option>\n    <Option name="PruneStrength" modified="Yes">-1.000000e+00</Option>\n    <Option name="PruningValFraction" modified="Yes">3.000000e-01</Option>\n    <Option name="nEventsMin" modified="No">0</Option>\n    <Option name="UseBaggedGrad" modified="No">False</Option>\n    <Option name="GradBaggingFraction" modified="No">6.000000e-01</Option>\n    <Option name="UseNTrainEvents" modified="No">0</Option>\n    <Option name="NNodesMax" modified="No">0</Option>\n  </Options>\n  <Variables NVar="32">\n    <Variable VarIndex="0" Expression="Feature_0" Label="Feature_0" Title="Feature_0" Unit="" Internal="Feature_0" Type="F" Min="1.15967004e+03" Max="1.13558638e+06"/>\n    <Variable VarIndex="1" Expression="Feature_1" Label="Feature_1" Title="Feature_1" Unit="" Internal="Feature_1" Type="F" Min="6.90499830e+00" Max="6.83289922e+04"/>\n    <Variable VarIndex="2" Expression="Feature_2" Label="Feature_2" Title="Feature_2" Unit="" Internal="Feature_2" Type="F" Min="1.24249414e-01" Max="3.99916315e+00"/>\n    <Variable VarIndex="3" Expression="Feature_3" Label="Feature_3" Title="Feature_3" Unit="" Internal="Feature_3" Type="F" Min="7.00000000e+00" Max="4.90000000e+01"/>\n    <Variable VarIndex="4" Expression="Feature_4" Label="Feature_4" Title="Feature_4" Unit="" Internal="Feature_4" Type="F" Min="1.54159404e-03" Max="3.99982750e-01"/>\n    <Variable VarIndex="5" Expression="Feature_5" Label="Feature_5" Title="Feature_5" Unit="" Internal="Feature_5" Type="F" Min="9.10696853e-03" Max="1.20970528e+02"/>\n    <Variable VarIndex="6" Expression="Feature_6" Label="Feature_6" Title="Feature_6" Unit="" Internal="Feature_6" Type="F" Min="1.97511457e-04" Max="9.81467972e+01"/>\n    <Variable VarIndex="7" Expression="Feature_7" Label="Feature_7" Title="Feature_7" Unit="" Internal="Feature_7" Type="F" Min="1.00000000e+00" Max="2.00000000e+01"/>\n    <Variable VarIndex="8" Expression="Feature_8" Label="Feature_8" Title="Feature_8" Unit="" Internal="Feature_8" Type="F" Min="1.41289094e-02" Max="9.80159302e+01"/>\n    <Variable VarIndex="9" Expression="Feature_9" Label="Feature_9" Title="Feature_9" Unit="" Internal="Feature_9" Type="F" Min="1.00000000e+00" Max="2.70000000e+01"/>\n    <Variable VarIndex="10" Expression="Feature_10" Label="Feature_10" Title="Feature_10" Unit="" Internal="Feature_10" Type="F" Min="0.00000000e+00" Max="1.00000000e+00"/>\n    <Variable VarIndex="11" Expression="Feature_11" Label="Feature_11" Title="Feature_11" Unit="" Internal="Feature_11" Type="F" Min="0.00000000e+00" Max="1.00000000e+00"/>\n    <Variable VarIndex="12" Expression="Feature_12" Label="Feature_12" Title="Feature_12" Unit="" Internal="Feature_12" Type="F" Min="0.00000000e+00" Max="1.00000000e+00"/>\n    <Variable VarIndex="13" Expression="Feature_13" Label="Feature_13" Title="Feature_13" Unit="" Internal="Feature_13" Type="F" Min="0.00000000e+00" Max="1.00000000e+00"/>\n    <Variable VarIndex="14" Expression="Feature_14" Label="Feature_14" Title="Feature_14" Unit="" Internal="Feature_14" Type="F" Min="-9.99000000e+02" Max="1.31175797e+02"/>\n    <Variable VarIndex="15" Expression="Feature_15" Label="Feature_15" Title="Feature_15" Unit="" Internal="Feature_15" Type="F" Min="-9.99000000e+02" Max="1.24875801e+02"/>\n    <Variable VarIndex="16" Expression="Feature_16" Label="Feature_16" Title="Feature_16" Unit="" Internal="Feature_16" Type="F" Min="-9.99000000e+02" Max="1.58692993e+02"/>\n    <Variable VarIndex="17" Expression="Feature_17" Label="Feature_17" Title="Feature_17" Unit="" Internal="Feature_17" Type="F" Min="-9.99000000e+02" Max="1.29497803e+02"/>\n    <Variable VarIndex="18" Expression="Feature_18" Label="Feature_18" Title="Feature_18" Unit="" Internal="Feature_18" Type="F" Min="-9.99000000e+02" Max="7.35431976e+01"/>\n    <Variable VarIndex="19" Expression="Feature_19" Label="Feature_19" Title="Feature_19" Unit="" Internal="Feature_19" Type="F" Min="-9.99000000e+02" Max="9.60000046e-03"/>\n    <Variable VarIndex="20" Expression="Feature_20" Label="Feature_20" Title="Feature_20" Unit="" Internal="Feature_20" Type="F" Min="-9.99000000e+02" Max="0.00000000e+00"/>\n    <Variable VarIndex="21" Expression="Feature_21" Label="Feature_21" Title="Feature_21" Unit="" Internal="Feature_21" Type="F" Min="0.00000000e+00" Max="1.00000000e+00"/>\n    <Variable VarIndex="22" Expression="Feature_22" Label="Feature_22" Title="Feature_22" Unit="" Internal="Feature_22" Type="F" Min="0.00000000e+00" Max="3.30000000e+01"/>\n    <Variable VarIndex="23" Expression="Feature_23" Label="Feature_23" Title="Feature_23" Unit="" Internal="Feature_23" Type="F" Min="0.00000000e+00" Max="1.00000000e+00"/>\n    <Variable VarIndex="24" Expression="Feature_24" Label="Feature_24" Title="Feature_24" Unit="" Internal="Feature_24" Type="F" Min="0.00000000e+00" Max="1.00000000e+00"/>\n    <Variable VarIndex="25" Expression="Feature_25" Label="Feature_25" Title="Feature_25" Unit="" Internal="Feature_25" Type="F" Min="-9.99000000e+02" Max="4.05479050e+00"/>\n    <Variable VarIndex="26" Expression="Feature_26" Label="Feature_26" Title="Feature_26" Unit="" Internal="Feature_26" Type="F" Min="-9.99000000e+02" Max="2.15297604e+00"/>\n    <Variable VarIndex="27" Expression="Feature_27" Label="Feature_27" Title="Feature_27" Unit="" Internal="Feature_27" Type="F" Min="-9.99000000e+02" Max="2.72250462e+00"/>\n    <Variable VarIndex="28" Expression="Feature_28" Label="Feature_28" Title="Feature_28" Unit="" Internal="Feature_28" Type="F" Min="-9.99000000e+02" Max="2.87338901e+00"/>\n    <Variable VarIndex="29" Expression="Feature_29" Label="Feature_29" Title="Feature_29" Unit="" Internal="Feature_29" Type="F" Min="-9.99000000e+02" Max="3.39547467e+00"/>\n    <Variable VarIndex="30" Expression="Feature_30" Label="Feature_30" Title="Feature_30" Unit="" Internal="Feature_30" Type="F" Min="0.00000000e+00" Max="1.00000000e+00"/>\n    <Variable VarIndex="31" Expression="Feature_31" Label="Feature_31" Title="Feature_31" Unit="" Internal="Feature_31" Type="F" Min="-9.99000000e+02" Max="4.79148388e+00"/>\n  </Variables>\n  <Spectators NSpec="0"/>\n  <Classes NClass="2">\n    <Class Name="Background" Index="0"/>\n    <Class Name="Signal" Index="1"/>\n  </Classes>\n  <Transformations NTransformations="1">\n    <Transform Name="Normalize">\n      <Selection>\n        <Input NInputs="32">\n          <Input Type="Variable" Label="Feature_0" Expression="Feature_0"/>\n          <Input Type="Variable" Label="Feature_1" Expression="Feature_1"/>\n          <Input Type="Variable" Label="Feature_2" Expression="Feature_2"/>\n          <Input Type="Variable" Label="Feature_3" Expression="Feature_3"/>\n          <Input Type="Variable" Label="Feature_4" Expression="Feature_4"/>\n          <Input Type="Variable" Label="Feature_5" Expression="Feature_5"/>\n          <Input Type="Variable" Label="Feature_6" Expression="Feature_6"/>\n          <Input Type="Variable" Label="Feature_7" Expression="Feature_7"/>\n          <Input Type="Variable" Label="Feature_8" Expression="Feature_8"/>\n          <Input Type="Variable" Label="Feature_9" Expression="Feature_9"/>\n          <Input Type="Variable" Label="Feature_10" Expression="Feature_10"/>\n          <Input Type="Variable" Label="Feature_11" Expression="Feature_11"/>\n          <Input Type="Variable" Label="Feature_12" Expression="Feature_12"/>\n          <Input Type="Variable" Label="Feature_13" Expression="Feature_13"/>\n          <Input Type="Variable" Label="Feature_14" Expression="Feature_14"/>\n          <Input Type="Variable" Label="Feature_15" Expression="Feature_15"/>\n          <Input Type="Variable" Label="Feature_16" Expression="Feature_16"/>\n          <Input Type="Variable" Label="Feature_17" Expression="Feature_17"/>\n          <Input Type="Variable" Label="Feature_18" Expression="Feature_18"/>\n          <Input Type="Variable" Label="Feature_19" Expression="Feature_19"/>\n          <Input Type="Variable" Label="Feature_20" Expression="Feature_20"/>\n          <Input Type="Variable" Label="Feature_21" Expression="Feature_21"/>\n          <Input Type="Variable" Label="Feature_22" Expression="Feature_22"/>\n          <Input Type="Variable" Label="Feature_23" Expression="Feature_23"/>\n          <Input Type="Variable" Label="Feature_24" Expression="Feature_24"/>\n          <Input Type="Variable" Label="Feature_25" Expression="Feature_25"/>\n          <Input Type="Variable" Label="Feature_26" Expression="Feature_26"/>\n          <Input Type="Variable" Label="Feature_27" Expression="Feature_27"/>\n          <Input Type="Variable" Label="Feature_28" Expression="Feature_28"/>\n          <Input Type="Variable" Label="Feature_29" Expression="Feature_29"/>\n          <Input Type="Variable" Label="Feature_30" Expression="Feature_30"/>\n          <Input Type="Variable" Label="Feature_31" Expression="Feature_31"/>\n        </Input>\n        <Output NOutputs="32">\n          <Output Type="Variable" Label="Feature_0" Expression="Feature_0"/>\n          <Output Type="Variable" Label="Feature_1" Expression="Feature_1"/>\n          <Output Type="Variable" Label="Feature_2" Expression="Feature_2"/>\n          <Output Type="Variable" Label="Feature_3" Expression="Feature_3"/>\n          <Output Type="Variable" Label="Feature_4" Expression="Feature_4"/>\n          <Output Type="Variable" Label="Feature_5" Expression="Feature_5"/>\n          <Output Type="Variable" Label="Feature_6" Expression="Feature_6"/>\n          <Output Type="Variable" Label="Feature_7" Expression="Feature_7"/>\n          <Output Type="Variable" Label="Feature_8" Expression="Feature_8"/>\n          <Output Type="Variable" Label="Feature_9" Expression="Feature_9"/>\n          <Output Type="Variable" Label="Feature_10" Expression="Feature_10"/>\n          <Output Type="Variable" Label="Feature_11" Expression="Feature_11"/>\n          <Output Type="Variable" Label="Feature_12" Expression="Feature_12"/>\n          <Output Type="Variable" Label="Feature_13" Expression="Feature_13"/>\n          <Output Type="Variable" Label="Feature_14" Expression="Feature_14"/>\n          <Output Type="Variable" Label="Feature_15" Expression="Feature_15"/>\n          <Output Type="Variable" Label="Feature_16" Expression="Feature_16"/>\n          <Output Type="Variable" Label="Feature_17" Expression="Feature_17"/>\n          <Output Type="Variable" Label="Feature_18" Expression="Feature_18"/>\n          <Output Type="Variable" Label="Feature_19" Expression="Feature_19"/>\n          <Output Type="Variable" Label="Feature_20" Expression="Feature_20"/>\n          <Output Type="Variable" Label="Feature_21" Expression="Feature_21"/>\n          <Output Type="Variable" Label="Feature_22" Expression="Feature_22"/>\n          <Output Type="Variable" Label="Feature_23" Expression="Feature_23"/>\n          <Output Type="Variable" Label="Feature_24" Expression="Feature_24"/>\n          <Output Type="Variable" Label="Feature_25" Expression="Feature_25"/>\n          <Output Type="Variable" Label="Feature_26" Expression="Feature_26"/>\n          <Output Type="Variable" Label="Feature_27" Expression="Feature_27"/>\n          <Output Type="Variable" Label="Feature_28" Expression="Feature_28"/>\n          <Output Type="Variable" Label="Feature_29" Expression="Feature_29"/>\n          <Output Type="Variable" Label="Feature_30" Expression="Feature_30"/>\n          <Output Type="Variable" Label="Feature_31" Expression="Feature_31"/>\n        </Output>\n      </Selection>\n      <Class ClassIndex="0">\n        <Ranges>\n          <Range Index="0" Min="1.2115600585937500e+03" Max="1.1355863750000000e+06"/>\n          <Range Index="1" Min="6.9049983024597168e+00" Max="6.8328992187500000e+04"/>\n          <Range Index="2" Min="2.1479970216751099e-01" Max="3.9991631507873535e+00"/>\n          <Range Index="3" Min="7.0000000000000000e+00" Max="4.7000000000000000e+01"/>\n          <Range Index="4" Min="1.6001267358660698e-03" Max="3.9998275041580200e-01"/>\n          <Range Index="5" Min="3.3604998141527176e-02" Max="1.2097052764892578e+02"/>\n          <Range Index="6" Min="1.9751145737245679e-04" Max="9.8146797180175781e+01"/>\n          <Range Index="7" Min="1.0000000000000000e+00" Max="1.9000000000000000e+01"/>\n          <Range Index="8" Min="1.4128909446299076e-02" Max="9.8015930175781250e+01"/>\n          <Range Index="9" Min="1.0000000000000000e+00" Max="2.7000000000000000e+01"/>\n          <Range Index="10" Min="0.0000000000000000e+00" Max="1.0000000000000000e+00"/>\n          <Range Index="11" Min="0.0000000000000000e+00" Max="1.0000000000000000e+00"/>\n          <Range Index="12" Min="0.0000000000000000e+00" Max="1.0000000000000000e+00"/>\n          <Range Index="13" Min="0.0000000000000000e+00" Max="1.0000000000000000e+00"/>\n          <Range Index="14" Min="-9.9900000000000000e+02" Max="1.3117579650878906e+02"/>\n          <Range Index="15" Min="-9.9900000000000000e+02" Max="1.2487580108642578e+02"/>\n          <Range Index="16" Min="-9.9900000000000000e+02" Max="1.5869299316406250e+02"/>\n          <Range Index="17" Min="-9.9900000000000000e+02" Max="1.2949780273437500e+02"/>\n          <Range Index="18" Min="-9.9900000000000000e+02" Max="7.3543197631835938e+01"/>\n          <Range Index="19" Min="-9.9900000000000000e+02" Max="9.6000004559755325e-03"/>\n          <Range Index="20" Min="-9.9900000000000000e+02" Max="0.0000000000000000e+00"/>\n          <Range Index="21" Min="0.0000000000000000e+00" Max="1.0000000000000000e+00"/>\n          <Range Index="22" Min="0.0000000000000000e+00" Max="2.4000000000000000e+01"/>\n          <Range Index="23" Min="0.0000000000000000e+00" Max="1.0000000000000000e+00"/>\n          <Range Index="24" Min="0.0000000000000000e+00" Max="1.0000000000000000e+00"/>\n          <Range Index="25" Min="-9.9900000000000000e+02" Max="4.0547904968261719e+00"/>\n          <Range Index="26" Min="-9.9900000000000000e+02" Max="2.1529760360717773e+00"/>\n          <Range Index="27" Min="-9.9900000000000000e+02" Max="2.7225046157836914e+00"/>\n          <Range Index="28" Min="-9.9900000000000000e+02" Max="2.8733890056610107e+00"/>\n          <Range Index="29" Min="-9.9900000000000000e+02" Max="3.3954746723175049e+00"/>\n          <Range Index="30" Min="0.0000000000000000e+00" Max="1.0000000000000000e+00"/>\n          <Range Index="31" Min="-9.9900000000000000e+02" Max="4.7914838790893555e+00"/>\n        </Ranges>\n      </Class>\n      <Class ClassIndex="1">\n        <Ranges>\n          <Range Index="0" Min="1.1596700439453125e+03" Max="5.5131537500000000e+05"/>\n          <Range Index="1" Min="2.5342041015625000e+01" Max="1.7524960937500000e+04"/>\n          <Range Index="2" Min="1.2424941360950470e-01" Max="3.9977631568908691e+00"/>\n          <Range Index="3" Min="7.0000000000000000e+00" Max="4.9000000000000000e+01"/>\n          <Range Index="4" Min="1.5415940433740616e-03" Max="3.9969471096992493e-01"/>\n          <Range Index="5" Min="9.1069685295224190e-03" Max="1.1536591339111328e+02"/>\n          <Range Index="6" Min="8.2196702715009451e-04" Max="7.6511413574218750e+01"/>\n          <Range Index="7" Min="1.0000000000000000e+00" Max="2.0000000000000000e+01"/>\n          <Range Index="8" Min="3.9413191378116608e-02" Max="9.1586280822753906e+01"/>\n          <Range Index="9" Min="1.0000000000000000e+00" Max="2.7000000000000000e+01"/>\n          <Range Index="10" Min="0.0000000000000000e+00" Max="1.0000000000000000e+00"/>\n          <Range Index="11" Min="0.0000000000000000e+00" Max="1.0000000000000000e+00"/>\n          <Range Index="12" Min="0.0000000000000000e+00" Max="1.0000000000000000e+00"/>\n          <Range Index="13" Min="0.0000000000000000e+00" Max="1.0000000000000000e+00"/>\n          <Range Index="14" Min="-9.9900000000000000e+02" Max="6.4804298400878906e+01"/>\n          <Range Index="15" Min="-9.9900000000000000e+02" Max="1.1143769836425781e+02"/>\n          <Range Index="16" Min="-9.9900000000000000e+02" Max="6.8126998901367188e+01"/>\n          <Range Index="17" Min="-9.9900000000000000e+02" Max="4.8346298217773438e+01"/>\n          <Range Index="18" Min="-9.9900000000000000e+02" Max="4.8346298217773438e+01"/>\n          <Range Index="19" Min="-9.9900000000000000e+02" Max="8.2999998703598976e-03"/>\n          <Range Index="20" Min="-9.9900000000000000e+02" Max="0.0000000000000000e+00"/>\n          <Range Index="21" Min="0.0000000000000000e+00" Max="1.0000000000000000e+00"/>\n          <Range Index="22" Min="0.0000000000000000e+00" Max="3.3000000000000000e+01"/>\n          <Range Index="23" Min="0.0000000000000000e+00" Max="1.0000000000000000e+00"/>\n          <Range Index="24" Min="0.0000000000000000e+00" Max="1.0000000000000000e+00"/>\n          <Range Index="25" Min="-9.9900000000000000e+02" Max="4.0547904968261719e+00"/>\n          <Range Index="26" Min="-9.9900000000000000e+02" Max="2.1529760360717773e+00"/>\n          <Range Index="27" Min="-9.9900000000000000e+02" Max="2.4526777267456055e+00"/>\n          <Range Index="28" Min="-9.9900000000000000e+02" Max="2.8733890056610107e+00"/>\n          <Range Index="29" Min="-9.9900000000000000e+02" Max="3.3954746723175049e+00"/>\n          <Range Index="30" Min="0.0000000000000000e+00" Max="1.0000000000000000e+00"/>\n          <Range Index="31" Min="-9.9900000000000000e+02" Max="4.7914838790893555e+00"/>\n        </Ranges>\n      </Class>\n      <Class ClassIndex="2">\n        <Ranges>\n          <Range Index="0" Min="1.1596700439453125e+03" Max="1.1355863750000000e+06"/>\n          <Range Index="1" Min="6.9049983024597168e+00" Max="6.8328992187500000e+04"/>\n          <Range Index="2" Min="1.2424941360950470e-01" Max="3.9991631507873535e+00"/>\n          <Range Index="3" Min="7.0000000000000000e+00" Max="4.9000000000000000e+01"/>\n          <Range Index="4" Min="1.5415940433740616e-03" Max="3.9998275041580200e-01"/>\n          <Range Index="5" Min="9.1069685295224190e-03" Max="1.2097052764892578e+02"/>\n          <Range Index="6" Min="1.9751145737245679e-04" Max="9.8146797180175781e+01"/>\n          <Range Index="7" Min="1.0000000000000000e+00" Max="2.0000000000000000e+01"/>\n          <Range Index="8" Min="1.4128909446299076e-02" Max="9.8015930175781250e+01"/>\n          <Range Index="9" Min="1.0000000000000000e+00" Max="2.7000000000000000e+01"/>\n          <Range Index="10" Min="0.0000000000000000e+00" Max="1.0000000000000000e+00"/>\n          <Range Index="11" Min="0.0000000000000000e+00" Max="1.0000000000000000e+00"/>\n          <Range Index="12" Min="0.0000000000000000e+00" Max="1.0000000000000000e+00"/>\n          <Range Index="13" Min="0.0000000000000000e+00" Max="1.0000000000000000e+00"/>\n          <Range Index="14" Min="-9.9900000000000000e+02" Max="1.3117579650878906e+02"/>\n          <Range Index="15" Min="-9.9900000000000000e+02" Max="1.2487580108642578e+02"/>\n          <Range Index="16" Min="-9.9900000000000000e+02" Max="1.5869299316406250e+02"/>\n          <Range Index="17" Min="-9.9900000000000000e+02" Max="1.2949780273437500e+02"/>\n          <Range Index="18" Min="-9.9900000000000000e+02" Max="7.3543197631835938e+01"/>\n          <Range Index="19" Min="-9.9900000000000000e+02" Max="9.6000004559755325e-03"/>\n          <Range Index="20" Min="-9.9900000000000000e+02" Max="0.0000000000000000e+00"/>\n          <Range Index="21" Min="0.0000000000000000e+00" Max="1.0000000000000000e+00"/>\n          <Range Index="22" Min="0.0000000000000000e+00" Max="3.3000000000000000e+01"/>\n          <Range Index="23" Min="0.0000000000000000e+00" Max="1.0000000000000000e+00"/>\n          <Range Index="24" Min="0.0000000000000000e+00" Max="1.0000000000000000e+00"/>\n          <Range Index="25" Min="-9.9900000000000000e+02" Max="4.0547904968261719e+00"/>\n          <Range Index="26" Min="-9.9900000000000000e+02" Max="2.1529760360717773e+00"/>\n          <Range Index="27" Min="-9.9900000000000000e+02" Max="2.7225046157836914e+00"/>\n          <Range Index="28" Min="-9.9900000000000000e+02" Max="2.8733890056610107e+00"/>\n          <Range Index="29" Min="-9.9900000000000000e+02" Max="3.3954746723175049e+00"/>\n          <Range Index="30" Min="0.0000000000000000e+00" Max="1.0000000000000000e+00"/>\n          <Range Index="31" Min="-9.9900000000000000e+02" Max="4.7914838790893555e+00"/>\n        </Ranges>\n      </Class>\n    </Transform>\n  </Transformations>\n  <MVAPdfs/>\n  <Weights NTrees="50" AnalysisType="0">\n    <BinaryTree type="DecisionTree" boostWeight="7.4394834744837790e-01" itree="0">\n      <Node pos="s" depth="0" NCoef="0" IVar="16" Cut="7.1428573131561279e-01" cType="1" res="-9.9000000000000000e+01" rms="0.0000000000000000e+00" purity="5.0000000000000000e-01" nType="0">\n        <Node pos="l" depth="1" NCoef="0" IVar="4" Cut="-6.1906468868255615e-01" cType="1" res="-9.9000000000000000e+01" rms="0.0000000000000000e+00" purity="7.5590825080871582e-01" nType="0">\n          <Node pos="l" depth="2" NCoef="0" IVar="-1" Cut="6.3265252113342285e-01" cType="0" res="-9.9000000000000000e+01" rms="0.0000000000000000e+00" purity="8.6111325025558472e-01" nType="1"/>\n          <Node pos="r" depth="2" NCoef="0" IVar="-1" Cut="0.0000000000000000e+00" cType="1" res="-9.9000000000000000e+01" rms="0.0000000000000000e+00" purity="2.6960840821266174e-01" nType="-1"/>\n        </Node>\n        <Node pos="r" depth="1" NCoef="0" IVar="16" Cut="7.2789323329925537e-01" cType="1" res="-9.9000000000000000e+01" rms="0.0000000000000000e+00" purity="3.2239902019500732e-01" nType="0">\n          <Node pos="l" depth="2" NCoef="0" IVar="4" Cut="-6.1879694461822510e-01" cType="1" res="-9.9000000000000000e+01" rms="0.0000000000000000e+00" purity="5.3926926851272583e-01" nType="0">\n            <Node pos="l" depth="3" NCoef="0" IVar="-1" Cut="0.0000000000000000e+00" cType="1" res="-9.9000000000000000e+01" rms="0.0000000000000000e+00" purity="6.9204878807067871e-01" nType="1"/>\n            <Node pos="r" depth="3" NCoef="0" IVar="-1" Cut="0.0000000000000000e+00" cType="1" res="-9.9000000000000000e+01" rms="0.0000000000000000e+00" purity="1.8586565554141998e-01" nType="-1"/>\n          </Node>\n          <Node pos="r" depth="2" NCoef="0" IVar="-1" Cut="7.4085271358489990e-01" cType="1" res="-9.9000000000000000e+01" rms="0.0000000000000000e+00" purity="1.3913127779960632e-01" nType="-1"/>\n        </Node>\n      </Node>\n    </BinaryTree>\n    <BinaryTree type="DecisionTree" boostWeight="4.7239494229795348e-01" itree="1">\n      <Node pos="s" depth="0" NCoef="0" IVar="16" Cut="7.1428573131561279e-01" cType="1" res="-9.9000000000000000e+01" rms="0.0000000000000000e+00" purity="4.8826313018798828e-01" nType="0">\n        <Node pos="l" depth="1" NCoef="0" IVar="18" Cut="7.3261672258377075e-01" cType="0" res="-9.9000000000000000e+01" rms="0.0000000000000000e+00" purity="6.8603402376174927e-01" nType="0">\n          <Node pos="l" depth="2" NCoef="0" IVar="-1" Cut="7.5793075561523438e-01" cType="1" res="-9.9000000000000000e+01" rms="0.0000000000000000e+00" purity="7.5699776411056519e-01" nType="1"/>\n          <Node pos="r" depth="2" NCoef="0" IVar="-1" Cut="0.0000000000000000e+00" cType="1" res="-9.9000000000000000e+01" rms="0.0000000000000000e+00" purity="3.1970474123954773e-01" nType="-1"/>\n        </Node>\n        <Node pos="r" depth="1" NCoef="0" IVar="16" Cut="7.4149852991104126e-01" cType="1" res="-9.9000000000000000e+01" rms="0.0000000000000000e+00" purity="3.5565912723541260e-01" nType="0">\n          <Node pos="l" depth="2" NCoef="0" IVar="14" Cut="7.6288747787475586e-01" cType="1" res="-9.9000000000000000e+01" rms="0.0000000000000000e+00" purity="4.6112322807312012e-01" nType="0">\n            <Node pos="l" depth="3" NCoef="0" IVar="-1" Cut="0.0000000000000000e+00" cType="1" res="-9.9000000000000000e+01" rms="0.0000000000000000e+00" purity="5.6670862436294556e-01" nType="1"/>\n            <Node pos="r" depth="3" NCoef="0" IVar="-1" Cut="0.0000000000000000e+00" cType="1" res="-9.9000000000000000e+01" rms="0.0000000000000000e+00" purity="2.9840072989463806e-01" nType="-1"/>\n          </Node>\n          <Node pos="r" depth="2" NCoef="0" IVar="-1" Cut="7.5381249189376831e-01" cType="1" res="-9.9000000000000000e+01" rms="0.0000000000000000e+00" purity="6.6154561936855316e-02" nType="-1"/>\n        </Node>\n      </Node>\n    </BinaryTree>\n    <BinaryTree type="DecisionTree" boostWeight="3.9738203800870991e-01" itree="2">\n      <Node pos="s" depth="0" NCoef="0" IVar="16" Cut="7.1428573131561279e-01" cType="1" res="-9.9000000000000000e+01" rms="0.0000000000000000e+00" purity="4.6049594879150391e-01" nType="0">\n        <Node pos="l" depth="1" NCoef="0" IVar="19" Cut="-9.0476202964782715e-01" cType="1" res="-9.9000000000000000e+01" rms="0.0000000000000000e+00" purity="6.2149685621261597e-01" nType="0">\n          <Node pos="l" depth="2" NCoef="0" IVar="4" Cut="-8.0954957008361816e-01" cType="1" res="-9.9000000000000000e+01" rms="0.0000000000000000e+00" purity="7.0659416913986206e-01" nType="0">\n            <Node pos="l" depth="3" NCoef="0" IVar="-1" Cut="0.0000000000000000e+00" cType="1" res="-9.9000000000000000e+01" rms="0.0000000000000000e+00" purity="8.3810508251190186e-01" nType="1"/>\n            <Node pos="r" depth="3" NCoef="0" IVar="-1" Cut="0.0000000000000000e+00" cType="1" res="-9.9000000000000000e+01" rms="0.0000000000000000e+00" purity="4.1349831223487854e-01" nType="-1"/>\n          </Node>\n          <Node pos="r" depth="2" NCoef="0" IVar="-1" Cut="0.0000000000000000e+00" cType="1" res="-9.9000000000000000e+01" rms="0.0000000000000000e+00" purity="2.6481145620346069e-01" nType="-1"/>\n        </Node>\n        <Node pos="r" depth="1" NCoef="0" IVar="-1" Cut="7.4149852991104126e-01" cType="1" res="-9.9000000000000000e+01" rms="0.0000000000000000e+00" purity="3.5480740666389465e-01" nType="-1"/>\n      </Node>\n    </BinaryTree>\n    <BinaryTree type="DecisionTree" boostWeight="3.5379995160381011e-01" itree="3">\n      <Node pos="s" depth="0" NCoef="0" IVar="18" Cut="8.9935195446014404e-01" cType="1" res="-9.9000000000000000e+01" rms="0.0000000000000000e+00" purity="5.1645880937576294e-01" nType="0">\n        <Node pos="l" depth="1" NCoef="0" IVar="4" Cut="-1.4289550483226776e-01" cType="1" res="-9.9000000000000000e+01" rms="0.0000000000000000e+00" purity="5.4650729894638062e-01" nType="0">\n          <Node pos="l" depth="2" NCoef="0" IVar="16" Cut="7.3602509498596191e-01" cType="1" res="-9.9000000000000000e+01" rms="0.0000000000000000e+00" purity="5.8812415599822998e-01" nType="0">\n            <Node pos="l" depth="3" NCoef="0" IVar="-1" Cut="0.0000000000000000e+00" cType="1" res="-9.9000000000000000e+01" rms="0.0000000000000000e+00" purity="6.2999415397644043e-01" nType="1"/>\n            <Node pos="r" depth="3" NCoef="0" IVar="-1" Cut="0.0000000000000000e+00" cType="1" res="-9.9000000000000000e+01" rms="0.0000000000000000e+00" purity="3.0293062329292297e-01" nType="-1"/>\n          </Node>\n          <Node pos="r" depth="2" NCoef="0" IVar="-1" Cut="0.0000000000000000e+00" cType="1" res="-9.9000000000000000e+01" rms="0.0000000000000000e+00" purity="2.6133087277412415e-01" nType="-1"/>\n        </Node>\n        <Node pos="r" depth="1" NCoef="0" IVar="-1" Cut="0.0000000000000000e+00" cType="1" res="-9.9000000000000000e+01" rms="0.0000000000000000e+00" purity="2.9810413718223572e-02" nType="-1"/>\n      </Node>\n    </BinaryTree>\n    <BinaryTree type="DecisionTree" boostWeight="2.6236343213042329e-01" itree="4">\n      <Node pos="s" depth="0" NCoef="0" IVar="18" Cut="8.9935195446014404e-01" cType="1" res="-9.9000000000000000e+01" rms="0.0000000000000000e+00" purity="4.7716405987739563e-01" nType="0">\n        <Node pos="l" depth="1" NCoef="0" IVar="21" Cut="-9.0476191043853760e-01" cType="1" res="-9.9000000000000000e+01" rms="0.0000000000000000e+00" purity="5.0086939334869385e-01" nType="0">\n          <Node pos="l" depth="2" NCoef="0" IVar="4" Cut="-9.0476614236831665e-01" cType="1" res="-9.9000000000000000e+01" rms="0.0000000000000000e+00" purity="5.2826887369155884e-01" nType="0">\n            <Node pos="l" depth="3" NCoef="0" IVar="-1" Cut="0.0000000000000000e+00" cType="1" res="-9.9000000000000000e+01" rms="0.0000000000000000e+00" purity="6.1128872632980347e-01" nType="1"/>\n            <Node pos="r" depth="3" NCoef="0" IVar="-1" Cut="0.0000000000000000e+00" cType="1" res="-9.9000000000000000e+01" rms="0.0000000000000000e+00" purity="4.2263829708099365e-01" nType="-1"/>\n          </Node>\n          <Node pos="r" depth="2" NCoef="0" IVar="-1" Cut="0.0000000000000000e+00" cType="1" res="-9.9000000000000000e+01" rms="0.0000000000000000e+00" purity="2.7474778890609741e-01" nType="-1"/>\n        </Node>\n        <Node pos="r" depth="1" NCoef="0" IVar="-1" Cut="0.0000000000000000e+00" cType="1" res="-9.9000000000000000e+01" rms="0.0000000000000000e+00" purity="4.1933435946702957e-02" nType="-1"/>\n      </Node>\n    </BinaryTree>\n    <BinaryTree type="DecisionTree" boostWeight="2.1412825482632211e-01" itree="5">\n      <Node pos="s" depth="0" NCoef="0" IVar="16" Cut="7.1428573131561279e-01" cType="1" res="-9.9000000000000000e+01" rms="0.0000000000000000e+00" purity="4.7993397712707520e-01" nType="0">\n        <Node pos="l" depth="1" NCoef="0" IVar="19" Cut="-9.0476202964782715e-01" cType="1" res="-9.9000000000000000e+01" rms="0.0000000000000000e+00" purity="5.6560832262039185e-01" nType="0">\n          <Node pos="l" depth="2" NCoef="0" IVar="14" Cut="6.3682895898818970e-01" cType="0" res="-9.9000000000000000e+01" rms="0.0000000000000000e+00" purity="6.2956404685974121e-01" nType="0">\n            <Node pos="l" depth="3" NCoef="0" IVar="-1" Cut="0.0000000000000000e+00" cType="1" res="-9.9000000000000000e+01" rms="0.0000000000000000e+00" purity="6.7356961965560913e-01" nType="1"/>\n            <Node pos="r" depth="3" NCoef="0" IVar="-1" Cut="0.0000000000000000e+00" cType="1" res="-9.9000000000000000e+01" rms="0.0000000000000000e+00" purity="4.3652299046516418e-01" nType="-1"/>\n          </Node>\n          <Node pos="r" depth="2" NCoef="0" IVar="-1" Cut="0.0000000000000000e+00" cType="1" res="-9.9000000000000000e+01" rms="0.0000000000000000e+00" purity="3.2536408305168152e-01" nType="-1"/>\n        </Node>\n        <Node pos="r" depth="1" NCoef="0" IVar="-1" Cut="7.5510388612747192e-01" cType="1" res="-9.9000000000000000e+01" rms="0.0000000000000000e+00" purity="4.2687067389488220e-01" nType="-1"/>\n      </Node>\n    </BinaryTree>\n    <BinaryTree type="DecisionTree" boostWeight="2.3669923840192000e-01" itree="6">\n      <Node pos="s" depth="0" NCoef="0" IVar="14" Cut="7.1428573131561279e-01" cType="1" res="-9.9000000000000000e+01" rms="0.0000000000000000e+00" purity="5.0718808174133301e-01" nType="0">\n        <Node pos="l" depth="1" NCoef="0" IVar="12" Cut="-9.0476191043853760e-01" cType="0" res="-9.9000000000000000e+01" rms="0.0000000000000000e+00" purity="6.4632123708724976e-01" nType="0">\n          <Node pos="l" depth="2" NCoef="0" IVar="-1" Cut="0.0000000000000000e+00" cType="1" res="-9.9000000000000000e+01" rms="0.0000000000000000e+00" purity="7.9939341545104980e-01" nType="1"/>\n          <Node pos="r" depth="2" NCoef="0" IVar="-1" Cut="0.0000000000000000e+00" cType="1" res="-9.9000000000000000e+01" rms="0.0000000000000000e+00" purity="4.5257064700126648e-01" nType="-1"/>\n        </Node>\n        <Node pos="r" depth="1" NCoef="0" IVar="18" Cut="8.8381803035736084e-01" cType="1" res="-9.9000000000000000e+01" rms="0.0000000000000000e+00" purity="4.8020020127296448e-01" nType="0">\n          <Node pos="l" depth="2" NCoef="0" IVar="14" Cut="7.5389206409454346e-01" cType="1" res="-9.9000000000000000e+01" rms="0.0000000000000000e+00" purity="5.1891869306564331e-01" nType="0">\n            <Node pos="l" depth="3" NCoef="0" IVar="-1" Cut="0.0000000000000000e+00" cType="1" res="-9.9000000000000000e+01" rms="0.0000000000000000e+00" purity="6.0851967334747314e-01" nType="1"/>\n            <Node pos="r" depth="3" NCoef="0" IVar="-1" Cut="0.0000000000000000e+00" cType="1" res="-9.9000000000000000e+01" rms="0.0000000000000000e+00" purity="4.5157462358474731e-01" nType="-1"/>\n          </Node>\n          <Node pos="r" depth="2" NCoef="0" IVar="-1" Cut="0.0000000000000000e+00" cType="1" res="-9.9000000000000000e+01" rms="0.0000000000000000e+00" purity="1.8217459321022034e-01" nType="-1"/>\n        </Node>\n      </Node>\n    </BinaryTree>\n    <BinaryTree type="DecisionTree" boostWeight="1.9188300849346102e-01" itree="7">\n      <Node pos="s" depth="0" NCoef="0" IVar="14" Cut="7.1428573131561279e-01" cType="1" res="-9.9000000000000000e+01" rms="0.0000000000000000e+00" purity="5.1843386888504028e-01" nType="0">\n        <Node pos="l" depth="1" NCoef="0" IVar="-1" Cut="-9.0476191043853760e-01" cType="0" res="-9.9000000000000000e+01" rms="0.0000000000000000e+00" purity="6.4588081836700439e-01" nType="1"/>\n        <Node pos="r" depth="1" NCoef="0" IVar="18" Cut="8.8381803035736084e-01" cType="1" res="-9.9000000000000000e+01" rms="0.0000000000000000e+00" purity="4.9422585964202881e-01" nType="0">\n          <Node pos="l" depth="2" NCoef="0" IVar="19" Cut="-9.0476191043853760e-01" cType="1" res="-9.9000000000000000e+01" rms="0.0000000000000000e+00" purity="5.2775681018829346e-01" nType="0">\n            <Node pos="l" depth="3" NCoef="0" IVar="-1" Cut="0.0000000000000000e+00" cType="1" res="-9.9000000000000000e+01" rms="0.0000000000000000e+00" purity="5.5138087272644043e-01" nType="1"/>\n            <Node pos="r" depth="3" NCoef="0" IVar="-1" Cut="0.0000000000000000e+00" cType="1" res="-9.9000000000000000e+01" rms="0.0000000000000000e+00" purity="3.7495771050453186e-01" nType="-1"/>\n          </Node>\n          <Node pos="r" depth="2" NCoef="0" IVar="-1" Cut="0.0000000000000000e+00" cType="1" res="-9.9000000000000000e+01" rms="0.0000000000000000e+00" purity="2.2011710703372955e-01" nType="-1"/>\n        </Node>\n      </Node>\n    </BinaryTree>\n    <BinaryTree type="DecisionTree" boostWeight="1.1731994643451468e-01" itree="8">\n      <Node pos="s" depth="0" NCoef="0" IVar="14" Cut="7.1428573131561279e-01" cType="1" res="-9.9000000000000000e+01" rms="0.0000000000000000e+00" purity="4.8875713348388672e-01" nType="0">\n        <Node pos="l" depth="1" NCoef="0" IVar="12" Cut="-9.0476191043853760e-01" cType="0" res="-9.9000000000000000e+01" rms="0.0000000000000000e+00" purity="6.0087168216705322e-01" nType="0">\n          <Node pos="l" depth="2" NCoef="0" IVar="-1" Cut="0.0000000000000000e+00" cType="1" res="-9.9000000000000000e+01" rms="0.0000000000000000e+00" purity="7.2190386056900024e-01" nType="1"/>\n          <Node pos="r" depth="2" NCoef="0" IVar="-1" Cut="0.0000000000000000e+00" cType="1" res="-9.9000000000000000e+01" rms="0.0000000000000000e+00" purity="4.6369570493698120e-01" nType="-1"/>\n        </Node>\n        <Node pos="r" depth="1" NCoef="0" IVar="18" Cut="8.8381803035736084e-01" cType="1" res="-9.9000000000000000e+01" rms="0.0000000000000000e+00" purity="4.6771323680877686e-01" nType="0">\n          <Node pos="l" depth="2" NCoef="0" IVar="4" Cut="1.4274747669696808e-01" cType="1" res="-9.9000000000000000e+01" rms="0.0000000000000000e+00" purity="4.9265447258949280e-01" nType="0">\n            <Node pos="l" depth="3" NCoef="0" IVar="-1" Cut="0.0000000000000000e+00" cType="1" res="-9.9000000000000000e+01" rms="0.0000000000000000e+00" purity="5.0714546442031860e-01" nType="1"/>\n            <Node pos="r" depth="3" NCoef="0" IVar="-1" Cut="0.0000000000000000e+00" cType="1" res="-9.9000000000000000e+01" rms="0.0000000000000000e+00" purity="3.3032542467117310e-01" nType="-1"/>\n          </Node>\n          <Node pos="r" depth="2" NCoef="0" IVar="-1" Cut="0.0000000000000000e+00" cType="1" res="-9.9000000000000000e+01" rms="0.0000000000000000e+00" purity="2.5481382012367249e-01" nType="-1"/>\n        </Node>\n      </Node>\n    </BinaryTree>\n    <BinaryTree type="DecisionTree" boostWeight="1.5964513121258125e-01" itree="9">\n      <Node pos="s" depth="0" NCoef="0" IVar="14" Cut="7.1428573131561279e-01" cType="1" res="-9.9000000000000000e+01" rms="0.0000000000000000e+00" purity="4.7240468859672546e-01" nType="0">\n        <Node pos="l" depth="1" NCoef="0" IVar="12" Cut="-9.0476191043853760e-01" cType="0" res="-9.9000000000000000e+01" rms="0.0000000000000000e+00" purity="6.0063093900680542e-01" nType="0">\n          <Node pos="l" depth="2" NCoef="0" IVar="-1" Cut="0.0000000000000000e+00" cType="1" res="-9.9000000000000000e+01" rms="0.0000000000000000e+00" purity="6.9774973392486572e-01" nType="1"/>\n          <Node pos="r" depth="2" NCoef="0" IVar="-1" Cut="0.0000000000000000e+00" cType="1" res="-9.9000000000000000e+01" rms="0.0000000000000000e+00" purity="4.9296215176582336e-01" nType="-1"/>\n        </Node>\n        <Node pos="r" depth="1" NCoef="0" IVar="17" Cut="7.8593760728836060e-01" cType="1" res="-9.9000000000000000e+01" rms="0.0000000000000000e+00" purity="4.4859427213668823e-01" nType="0">\n          <Node pos="l" depth="2" NCoef="0" IVar="10" Cut="-9.0476191043853760e-01" cType="1" res="-9.9000000000000000e+01" rms="0.0000000000000000e+00" purity="4.7176584601402283e-01" nType="0">\n            <Node pos="l" depth="3" NCoef="0" IVar="-1" Cut="0.0000000000000000e+00" cType="1" res="-9.9000000000000000e+01" rms="0.0000000000000000e+00" purity="5.7087963819503784e-01" nType="1"/>\n            <Node pos="r" depth="3" NCoef="0" IVar="-1" Cut="0.0000000000000000e+00" cType="1" res="-9.9000000000000000e+01" rms="0.0000000000000000e+00" purity="4.4939967989921570e-01" nType="-1"/>\n          </Node>\n          <Node pos="r" depth="2" NCoef="0" IVar="-1" Cut="-9.0476191043853760e-01" cType="1" res="-9.9000000000000000e+01" rms="0.0000000000000000e+00" purity="3.0294868350028992e-01" nType="-1"/>\n        </Node>\n      </Node>\n    </BinaryTree>\n    <BinaryTree type="DecisionTree" boostWeight="1.3267165658884786e-01" itree="10">\n      <Node pos="s" depth="0" NCoef="0" IVar="14" Cut="7.1428573131561279e-01" cType="1" res="-9.9000000000000000e+01" rms="0.0000000000000000e+00" purity="4.9493813514709473e-01" nType="0">\n        <Node pos="l" depth="1" NCoef="0" IVar="-1" Cut="-4.8826363682746887e-01" cType="1" res="-9.9000000000000000e+01" rms="0.0000000000000000e+00" purity="6.0029363632202148e-01" nType="1"/>\n        <Node pos="r" depth="1" NCoef="0" IVar="18" Cut="8.8381803035736084e-01" cType="1" res="-9.9000000000000000e+01" rms="0.0000000000000000e+00" purity="4.7547987103462219e-01" nType="0">\n          <Node pos="l" depth="2" NCoef="0" IVar="15" Cut="7.7370578050613403e-01" cType="1" res="-9.9000000000000000e+01" rms="0.0000000000000000e+00" purity="4.9381363391876221e-01" nType="0">\n            <Node pos="l" depth="3" NCoef="0" IVar="-1" Cut="0.0000000000000000e+00" cType="1" res="-9.9000000000000000e+01" rms="0.0000000000000000e+00" purity="5.5078142881393433e-01" nType="1"/>\n            <Node pos="r" depth="3" NCoef="0" IVar="-1" Cut="0.0000000000000000e+00" cType="1" res="-9.9000000000000000e+01" rms="0.0000000000000000e+00" purity="4.5832782983779907e-01" nType="-1"/>\n          </Node>\n          <Node pos="r" depth="2" NCoef="0" IVar="-1" Cut="0.0000000000000000e+00" cType="1" res="-9.9000000000000000e+01" rms="0.0000000000000000e+00" purity="3.1037396192550659e-01" nType="-1"/>\n        </Node>\n      </Node>\n    </BinaryTree>\n    <BinaryTree type="DecisionTree" boostWeight="1.0139282301932973e-01" itree="11">\n      <Node pos="s" depth="0" NCoef="0" IVar="4" Cut="2.3803982138633728e-01" cType="1" res="-9.9000000000000000e+01" rms="0.0000000000000000e+00" purity="4.9840146303176880e-01" nType="0">\n        <Node pos="l" depth="1" NCoef="0" IVar="1" Cut="-9.6659237146377563e-01" cType="1" res="-9.9000000000000000e+01" rms="0.0000000000000000e+00" purity="5.0773757696151733e-01" nType="0">\n          <Node pos="l" depth="2" NCoef="0" IVar="2" Cut="-5.2397406101226807e-01" cType="1" res="-9.9000000000000000e+01" rms="0.0000000000000000e+00" purity="5.2961623668670654e-01" nType="0">\n            <Node pos="l" depth="3" NCoef="0" IVar="-1" Cut="0.0000000000000000e+00" cType="1" res="-9.9000000000000000e+01" rms="0.0000000000000000e+00" purity="5.6993007659912109e-01" nType="1"/>\n            <Node pos="r" depth="3" NCoef="0" IVar="-1" Cut="0.0000000000000000e+00" cType="1" res="-9.9000000000000000e+01" rms="0.0000000000000000e+00" purity="4.9795970320701599e-01" nType="-1"/>\n          </Node>\n          <Node pos="r" depth="2" NCoef="0" IVar="-1" Cut="-4.6515089273452759e-01" cType="0" res="-9.9000000000000000e+01" rms="0.0000000000000000e+00" purity="3.7933391332626343e-01" nType="-1"/>\n        </Node>\n        <Node pos="r" depth="1" NCoef="0" IVar="-1" Cut="0.0000000000000000e+00" cType="1" res="-9.9000000000000000e+01" rms="0.0000000000000000e+00" purity="3.7282213568687439e-01" nType="-1"/>\n      </Node>\n    </BinaryTree>\n    <BinaryTree type="DecisionTree" boostWeight="1.1288626902227460e-01" itree="12">\n      <Node pos="s" depth="0" NCoef="0" IVar="4" Cut="3.3327364921569824e-01" cType="1" res="-9.9000000000000000e+01" rms="0.0000000000000000e+00" purity="5.0603979825973511e-01" nType="0">\n        <Node pos="l" depth="1" NCoef="0" IVar="1" Cut="-9.6659237146377563e-01" cType="1" res="-9.9000000000000000e+01" rms="0.0000000000000000e+00" purity="5.1348108053207397e-01" nType="0">\n          <Node pos="l" depth="2" NCoef="0" IVar="23" Cut="-9.0476191043853760e-01" cType="0" res="-9.9000000000000000e+01" rms="0.0000000000000000e+00" purity="5.3178721666336060e-01" nType="0">\n            <Node pos="l" depth="3" NCoef="0" IVar="-1" Cut="0.0000000000000000e+00" cType="1" res="-9.9000000000000000e+01" rms="0.0000000000000000e+00" purity="5.4987531900405884e-01" nType="1"/>\n            <Node pos="r" depth="3" NCoef="0" IVar="-1" Cut="0.0000000000000000e+00" cType="1" res="-9.9000000000000000e+01" rms="0.0000000000000000e+00" purity="4.6992984414100647e-01" nType="-1"/>\n          </Node>\n          <Node pos="r" depth="2" NCoef="0" IVar="-1" Cut="-4.6515089273452759e-01" cType="0" res="-9.9000000000000000e+01" rms="0.0000000000000000e+00" purity="4.0417701005935669e-01" nType="-1"/>\n        </Node>\n        <Node pos="r" depth="1" NCoef="0" IVar="-1" Cut="0.0000000000000000e+00" cType="1" res="-9.9000000000000000e+01" rms="0.0000000000000000e+00" purity="3.8620495796203613e-01" nType="-1"/>\n      </Node>\n    </BinaryTree>\n    <BinaryTree type="DecisionTree" boostWeight="1.0351584107889597e-01" itree="13">\n      <Node pos="s" depth="0" NCoef="0" IVar="14" Cut="7.1428573131561279e-01" cType="1" res="-9.9000000000000000e+01" rms="0.0000000000000000e+00" purity="4.9904218316078186e-01" nType="0">\n        <Node pos="l" depth="1" NCoef="0" IVar="-1" Cut="-9.0476191043853760e-01" cType="0" res="-9.9000000000000000e+01" rms="0.0000000000000000e+00" purity="5.6821858882904053e-01" nType="1"/>\n        <Node pos="r" depth="1" NCoef="0" IVar="16" Cut="7.3906606435775757e-01" cType="1" res="-9.9000000000000000e+01" rms="0.0000000000000000e+00" purity="4.8636177182197571e-01" nType="0">\n          <Node pos="l" depth="2" NCoef="0" IVar="14" Cut="7.6709395647048950e-01" cType="1" res="-9.9000000000000000e+01" rms="0.0000000000000000e+00" purity="5.0709939002990723e-01" nType="0">\n            <Node pos="l" depth="3" NCoef="0" IVar="-1" Cut="0.0000000000000000e+00" cType="1" res="-9.9000000000000000e+01" rms="0.0000000000000000e+00" purity="5.2638912200927734e-01" nType="1"/>\n            <Node pos="r" depth="3" NCoef="0" IVar="-1" Cut="0.0000000000000000e+00" cType="1" res="-9.9000000000000000e+01" rms="0.0000000000000000e+00" purity="4.5287805795669556e-01" nType="-1"/>\n          </Node>\n          <Node pos="r" depth="2" NCoef="0" IVar="16" Cut="7.5149178504943848e-01" cType="1" res="-9.9000000000000000e+01" rms="0.0000000000000000e+00" purity="3.6376544833183289e-01" nType="0">\n            <Node pos="l" depth="3" NCoef="0" IVar="-1" Cut="0.0000000000000000e+00" cType="1" res="-9.9000000000000000e+01" rms="0.0000000000000000e+00" purity="5.1005256175994873e-01" nType="1"/>\n            <Node pos="r" depth="3" NCoef="0" IVar="-1" Cut="0.0000000000000000e+00" cType="1" res="-9.9000000000000000e+01" rms="0.0000000000000000e+00" purity="1.8792362511157990e-01" nType="-1"/>\n          </Node>\n        </Node>\n      </Node>\n    </BinaryTree>\n    <BinaryTree type="DecisionTree" boostWeight="7.9306424967836880e-02" itree="14">\n      <Node pos="s" depth="0" NCoef="0" IVar="14" Cut="7.1428573131561279e-01" cType="1" res="-9.9000000000000000e+01" rms="0.0000000000000000e+00" purity="4.8579013347625732e-01" nType="0">\n        <Node pos="l" depth="1" NCoef="0" IVar="12" Cut="-9.0476191043853760e-01" cType="0" res="-9.9000000000000000e+01" rms="0.0000000000000000e+00" purity="5.4266375303268433e-01" nType="0">\n          <Node pos="l" depth="2" NCoef="0" IVar="-1" Cut="0.0000000000000000e+00" cType="1" res="-9.9000000000000000e+01" rms="0.0000000000000000e+00" purity="6.0299837589263916e-01" nType="1"/>\n          <Node pos="r" depth="2" NCoef="0" IVar="-1" Cut="0.0000000000000000e+00" cType="1" res="-9.9000000000000000e+01" rms="0.0000000000000000e+00" purity="4.7997328639030457e-01" nType="-1"/>\n        </Node>\n        <Node pos="r" depth="1" NCoef="0" IVar="16" Cut="7.3906606435775757e-01" cType="1" res="-9.9000000000000000e+01" rms="0.0000000000000000e+00" purity="4.7538629174232483e-01" nType="0">\n          <Node pos="l" depth="2" NCoef="0" IVar="12" Cut="-9.0476191043853760e-01" cType="0" res="-9.9000000000000000e+01" rms="0.0000000000000000e+00" purity="4.9479585886001587e-01" nType="0">\n            <Node pos="l" depth="3" NCoef="0" IVar="-1" Cut="0.0000000000000000e+00" cType="1" res="-9.9000000000000000e+01" rms="0.0000000000000000e+00" purity="5.0739580392837524e-01" nType="1"/>\n            <Node pos="r" depth="3" NCoef="0" IVar="-1" Cut="0.0000000000000000e+00" cType="1" res="-9.9000000000000000e+01" rms="0.0000000000000000e+00" purity="4.2228096723556519e-01" nType="-1"/>\n          </Node>\n          <Node pos="r" depth="2" NCoef="0" IVar="-1" Cut="7.5149178504943848e-01" cType="1" res="-9.9000000000000000e+01" rms="0.0000000000000000e+00" purity="3.5925030708312988e-01" nType="-1"/>\n        </Node>\n      </Node>\n    </BinaryTree>\n    <BinaryTree type="DecisionTree" boostWeight="7.2428131854374161e-02" itree="15">\n      <Node pos="s" depth="0" NCoef="0" IVar="14" Cut="7.1428573131561279e-01" cType="1" res="-9.9000000000000000e+01" rms="0.0000000000000000e+00" purity="4.7795757651329041e-01" nType="0">\n        <Node pos="l" depth="1" NCoef="0" IVar="2" Cut="-4.8826363682746887e-01" cType="1" res="-9.9000000000000000e+01" rms="0.0000000000000000e+00" purity="5.4249417781829834e-01" nType="0">\n          <Node pos="l" depth="2" NCoef="0" IVar="-1" Cut="0.0000000000000000e+00" cType="1" res="-9.9000000000000000e+01" rms="0.0000000000000000e+00" purity="5.9975624084472656e-01" nType="1"/>\n          <Node pos="r" depth="2" NCoef="0" IVar="-1" Cut="0.0000000000000000e+00" cType="1" res="-9.9000000000000000e+01" rms="0.0000000000000000e+00" purity="4.9408513307571411e-01" nType="-1"/>\n        </Node>\n        <Node pos="r" depth="1" NCoef="0" IVar="-1" Cut="7.8593760728836060e-01" cType="1" res="-9.9000000000000000e+01" rms="0.0000000000000000e+00" purity="4.6617716550827026e-01" nType="-1"/>\n      </Node>\n    </BinaryTree>\n    <BinaryTree type="DecisionTree" boostWeight="7.0807518253792417e-02" itree="16">\n      <Node pos="s" depth="0" NCoef="0" IVar="21" Cut="-9.0476191043853760e-01" cType="1" res="-9.9000000000000000e+01" rms="0.0000000000000000e+00" purity="4.9347987771034241e-01" nType="0">\n        <Node pos="l" depth="1" NCoef="0" IVar="17" Cut="7.1428573131561279e-01" cType="1" res="-9.9000000000000000e+01" rms="0.0000000000000000e+00" purity="5.0113224983215332e-01" nType="0">\n          <Node pos="l" depth="2" NCoef="0" IVar="-1" Cut="5.9671574831008911e-01" cType="0" res="-9.9000000000000000e+01" rms="0.0000000000000000e+00" purity="5.8957707881927490e-01" nType="1"/>\n          <Node pos="r" depth="2" NCoef="0" IVar="17" Cut="7.9592239856719971e-01" cType="1" res="-9.9000000000000000e+01" rms="0.0000000000000000e+00" purity="4.8890650272369385e-01" nType="0">\n            <Node pos="l" depth="3" NCoef="0" IVar="-1" Cut="0.0000000000000000e+00" cType="1" res="-9.9000000000000000e+01" rms="0.0000000000000000e+00" purity="5.0613689422607422e-01" nType="1"/>\n            <Node pos="r" depth="3" NCoef="0" IVar="-1" Cut="0.0000000000000000e+00" cType="1" res="-9.9000000000000000e+01" rms="0.0000000000000000e+00" purity="2.5861182808876038e-01" nType="-1"/>\n          </Node>\n        </Node>\n        <Node pos="r" depth="1" NCoef="0" IVar="-1" Cut="0.0000000000000000e+00" cType="1" res="-9.9000000000000000e+01" rms="0.0000000000000000e+00" purity="4.1908904910087585e-01" nType="-1"/>\n      </Node>\n    </BinaryTree>\n    <BinaryTree type="DecisionTree" boostWeight="7.3231102110883323e-02" itree="17">\n      <Node pos="s" depth="0" NCoef="0" IVar="4" Cut="2.3803982138633728e-01" cType="1" res="-9.9000000000000000e+01" rms="0.0000000000000000e+00" purity="4.8100110888481140e-01" nType="0">\n        <Node pos="l" depth="1" NCoef="0" IVar="1" Cut="-9.6659237146377563e-01" cType="1" res="-9.9000000000000000e+01" rms="0.0000000000000000e+00" purity="4.8677641153335571e-01" nType="0">\n          <Node pos="l" depth="2" NCoef="0" IVar="7" Cut="-3.6842104792594910e-01" cType="0" res="-9.9000000000000000e+01" rms="0.0000000000000000e+00" purity="4.9674963951110840e-01" nType="0">\n            <Node pos="l" depth="3" NCoef="0" IVar="-1" Cut="0.0000000000000000e+00" cType="1" res="-9.9000000000000000e+01" rms="0.0000000000000000e+00" purity="5.4207074642181396e-01" nType="1"/>\n            <Node pos="r" depth="3" NCoef="0" IVar="-1" Cut="0.0000000000000000e+00" cType="1" res="-9.9000000000000000e+01" rms="0.0000000000000000e+00" purity="4.8076373338699341e-01" nType="-1"/>\n          </Node>\n          <Node pos="r" depth="2" NCoef="0" IVar="-1" Cut="-4.6515089273452759e-01" cType="0" res="-9.9000000000000000e+01" rms="0.0000000000000000e+00" purity="4.2566865682601929e-01" nType="-1"/>\n        </Node>\n        <Node pos="r" depth="1" NCoef="0" IVar="-1" Cut="0.0000000000000000e+00" cType="1" res="-9.9000000000000000e+01" rms="0.0000000000000000e+00" purity="4.0364012122154236e-01" nType="-1"/>\n      </Node>\n    </BinaryTree>\n    <BinaryTree type="DecisionTree" boostWeight="5.4537855202263431e-02" itree="18">\n      <Node pos="s" depth="0" NCoef="0" IVar="14" Cut="7.1428573131561279e-01" cType="1" res="-9.9000000000000000e+01" rms="0.0000000000000000e+00" purity="4.9164405465126038e-01" nType="0">\n        <Node pos="l" depth="1" NCoef="0" IVar="2" Cut="-3.9526367187500000e-01" cType="1" res="-9.9000000000000000e+01" rms="0.0000000000000000e+00" purity="5.4209393262863159e-01" nType="0">\n          <Node pos="l" depth="2" NCoef="0" IVar="-1" Cut="0.0000000000000000e+00" cType="1" res="-9.9000000000000000e+01" rms="0.0000000000000000e+00" purity="5.7262462377548218e-01" nType="1"/>\n          <Node pos="r" depth="2" NCoef="0" IVar="-1" Cut="0.0000000000000000e+00" cType="1" res="-9.9000000000000000e+01" rms="0.0000000000000000e+00" purity="4.9510872364044189e-01" nType="-1"/>\n        </Node>\n        <Node pos="r" depth="1" NCoef="0" IVar="17" Cut="7.8593760728836060e-01" cType="1" res="-9.9000000000000000e+01" rms="0.0000000000000000e+00" purity="4.8240873217582703e-01" nType="0">\n          <Node pos="l" depth="2" NCoef="0" IVar="19" Cut="-9.0476191043853760e-01" cType="1" res="-9.9000000000000000e+01" rms="0.0000000000000000e+00" purity="4.9565064907073975e-01" nType="0">\n            <Node pos="l" depth="3" NCoef="0" IVar="-1" Cut="0.0000000000000000e+00" cType="1" res="-9.9000000000000000e+01" rms="0.0000000000000000e+00" purity="5.0408780574798584e-01" nType="1"/>\n            <Node pos="r" depth="3" NCoef="0" IVar="-1" Cut="0.0000000000000000e+00" cType="1" res="-9.9000000000000000e+01" rms="0.0000000000000000e+00" purity="4.3730345368385315e-01" nType="-1"/>\n          </Node>\n          <Node pos="r" depth="2" NCoef="0" IVar="-1" Cut="-9.1107070446014404e-01" cType="0" res="-9.9000000000000000e+01" rms="0.0000000000000000e+00" purity="3.9241534471511841e-01" nType="-1"/>\n        </Node>\n      </Node>\n    </BinaryTree>\n    <BinaryTree type="DecisionTree" boostWeight="7.8879926093907926e-02" itree="19">\n      <Node pos="s" depth="0" NCoef="0" IVar="14" Cut="7.1428573131561279e-01" cType="1" res="-9.9000000000000000e+01" rms="0.0000000000000000e+00" purity="4.8514595627784729e-01" nType="0">\n        <Node pos="l" depth="1" NCoef="0" IVar="-1" Cut="-9.8824405670166016e-01" cType="0" res="-9.9000000000000000e+01" rms="0.0000000000000000e+00" purity="5.3929883241653442e-01" nType="1"/>\n        <Node pos="r" depth="1" NCoef="0" IVar="16" Cut="7.3906606435775757e-01" cType="1" res="-9.9000000000000000e+01" rms="0.0000000000000000e+00" purity="4.7524476051330566e-01" nType="0">\n          <Node pos="l" depth="2" NCoef="0" IVar="10" Cut="-9.0476191043853760e-01" cType="1" res="-9.9000000000000000e+01" rms="0.0000000000000000e+00" purity="4.8640903830528259e-01" nType="0">\n            <Node pos="l" depth="3" NCoef="0" IVar="-1" Cut="0.0000000000000000e+00" cType="1" res="-9.9000000000000000e+01" rms="0.0000000000000000e+00" purity="5.3364539146423340e-01" nType="1"/>\n            <Node pos="r" depth="3" NCoef="0" IVar="-1" Cut="0.0000000000000000e+00" cType="1" res="-9.9000000000000000e+01" rms="0.0000000000000000e+00" purity="4.7561702132225037e-01" nType="-1"/>\n          </Node>\n          <Node pos="r" depth="2" NCoef="0" IVar="16" Cut="7.5149178504943848e-01" cType="1" res="-9.9000000000000000e+01" rms="0.0000000000000000e+00" purity="4.0675497055053711e-01" nType="0">\n            <Node pos="l" depth="3" NCoef="0" IVar="-1" Cut="0.0000000000000000e+00" cType="1" res="-9.9000000000000000e+01" rms="0.0000000000000000e+00" purity="5.2405625581741333e-01" nType="1"/>\n            <Node pos="r" depth="3" NCoef="0" IVar="-1" Cut="0.0000000000000000e+00" cType="1" res="-9.9000000000000000e+01" rms="0.0000000000000000e+00" purity="2.5034651160240173e-01" nType="-1"/>\n          </Node>\n        </Node>\n      </Node>\n    </BinaryTree>\n    <BinaryTree type="DecisionTree" boostWeight="5.1200546721034287e-02" itree="20">\n      <Node pos="s" depth="0" NCoef="0" IVar="4" Cut="2.3803982138633728e-01" cType="1" res="-9.9000000000000000e+01" rms="0.0000000000000000e+00" purity="4.9073526263237000e-01" nType="0">\n        <Node pos="l" depth="1" NCoef="0" IVar="1" Cut="-9.6659237146377563e-01" cType="1" res="-9.9000000000000000e+01" rms="0.0000000000000000e+00" purity="4.9592065811157227e-01" nType="0">\n          <Node pos="l" depth="2" NCoef="0" IVar="19" Cut="-9.0476191043853760e-01" cType="0" res="-9.9000000000000000e+01" rms="0.0000000000000000e+00" purity="5.0343054533004761e-01" nType="0">\n            <Node pos="l" depth="3" NCoef="0" IVar="-1" Cut="0.0000000000000000e+00" cType="1" res="-9.9000000000000000e+01" rms="0.0000000000000000e+00" purity="5.9294837713241577e-01" nType="1"/>\n            <Node pos="r" depth="3" NCoef="0" IVar="-1" Cut="0.0000000000000000e+00" cType="1" res="-9.9000000000000000e+01" rms="0.0000000000000000e+00" purity="4.9242830276489258e-01" nType="-1"/>\n          </Node>\n          <Node pos="r" depth="2" NCoef="0" IVar="-1" Cut="-4.6515089273452759e-01" cType="0" res="-9.9000000000000000e+01" rms="0.0000000000000000e+00" purity="4.4915935397148132e-01" nType="-1"/>\n        </Node>\n        <Node pos="r" depth="1" NCoef="0" IVar="-1" Cut="0.0000000000000000e+00" cType="1" res="-9.9000000000000000e+01" rms="0.0000000000000000e+00" purity="4.2130339145660400e-01" nType="-1"/>\n      </Node>\n    </BinaryTree>\n    <BinaryTree type="DecisionTree" boostWeight="3.9905683601686899e-02" itree="21">\n      <Node pos="s" depth="0" NCoef="0" IVar="4" Cut="2.3803982138633728e-01" cType="1" res="-9.9000000000000000e+01" rms="0.0000000000000000e+00" purity="5.0128823518753052e-01" nType="0">\n        <Node pos="l" depth="1" NCoef="0" IVar="21" Cut="-9.0476191043853760e-01" cType="1" res="-9.9000000000000000e+01" rms="0.0000000000000000e+00" purity="5.0631123781204224e-01" nType="0">\n          <Node pos="l" depth="2" NCoef="0" IVar="-1" Cut="7.1428573131561279e-01" cType="1" res="-9.9000000000000000e+01" rms="0.0000000000000000e+00" purity="5.1255202293395996e-01" nType="1"/>\n          <Node pos="r" depth="2" NCoef="0" IVar="-1" Cut="0.0000000000000000e+00" cType="1" res="-9.9000000000000000e+01" rms="0.0000000000000000e+00" purity="4.4421672821044922e-01" nType="-1"/>\n        </Node>\n        <Node pos="r" depth="1" NCoef="0" IVar="-1" Cut="0.0000000000000000e+00" cType="1" res="-9.9000000000000000e+01" rms="0.0000000000000000e+00" purity="4.3383419513702393e-01" nType="-1"/>\n      </Node>\n    </BinaryTree>\n    <BinaryTree type="DecisionTree" boostWeight="4.4301470559158902e-02" itree="22">\n      <Node pos="s" depth="0" NCoef="0" IVar="7" Cut="-8.1954884529113770e-01" cType="0" res="-9.9000000000000000e+01" rms="0.0000000000000000e+00" purity="4.9438700079917908e-01" nType="0">\n        <Node pos="l" depth="1" NCoef="0" IVar="1" Cut="-9.6653556823730469e-01" cType="1" res="-9.9000000000000000e+01" rms="0.0000000000000000e+00" purity="5.0046390295028687e-01" nType="0">\n          <Node pos="l" depth="2" NCoef="0" IVar="19" Cut="-9.0476191043853760e-01" cType="0" res="-9.9000000000000000e+01" rms="0.0000000000000000e+00" purity="5.0704616308212280e-01" nType="0">\n            <Node pos="l" depth="3" NCoef="0" IVar="-1" Cut="0.0000000000000000e+00" cType="1" res="-9.9000000000000000e+01" rms="0.0000000000000000e+00" purity="5.9348553419113159e-01" nType="1"/>\n            <Node pos="r" depth="3" NCoef="0" IVar="-1" Cut="0.0000000000000000e+00" cType="1" res="-9.9000000000000000e+01" rms="0.0000000000000000e+00" purity="4.9588319659233093e-01" nType="-1"/>\n          </Node>\n          <Node pos="r" depth="2" NCoef="0" IVar="-1" Cut="-9.2401742935180664e-01" cType="0" res="-9.9000000000000000e+01" rms="0.0000000000000000e+00" purity="4.5802035927772522e-01" nType="-1"/>\n        </Node>\n        <Node pos="r" depth="1" NCoef="0" IVar="-1" Cut="0.0000000000000000e+00" cType="1" res="-9.9000000000000000e+01" rms="0.0000000000000000e+00" purity="4.4392451643943787e-01" nType="-1"/>\n      </Node>\n    </BinaryTree>\n    <BinaryTree type="DecisionTree" boostWeight="4.1243554814638164e-02" itree="23">\n      <Node pos="s" depth="0" NCoef="0" IVar="7" Cut="-8.1954884529113770e-01" cType="0" res="-9.9000000000000000e+01" rms="0.0000000000000000e+00" purity="5.0350677967071533e-01" nType="0">\n        <Node pos="l" depth="1" NCoef="0" IVar="1" Cut="-9.6653556823730469e-01" cType="1" res="-9.9000000000000000e+01" rms="0.0000000000000000e+00" purity="5.0935208797454834e-01" nType="0">\n          <Node pos="l" depth="2" NCoef="0" IVar="-1" Cut="-9.0476191043853760e-01" cType="0" res="-9.9000000000000000e+01" rms="0.0000000000000000e+00" purity="5.1559662818908691e-01" nType="1"/>\n          <Node pos="r" depth="2" NCoef="0" IVar="5" Cut="-9.2401742935180664e-01" cType="0" res="-9.9000000000000000e+01" rms="0.0000000000000000e+00" purity="4.6903637051582336e-01" nType="0">\n            <Node pos="l" depth="3" NCoef="0" IVar="-1" Cut="0.0000000000000000e+00" cType="1" res="-9.9000000000000000e+01" rms="0.0000000000000000e+00" purity="5.0004631280899048e-01" nType="1"/>\n            <Node pos="r" depth="3" NCoef="0" IVar="-1" Cut="0.0000000000000000e+00" cType="1" res="-9.9000000000000000e+01" rms="0.0000000000000000e+00" purity="4.3379756808280945e-01" nType="-1"/>\n          </Node>\n        </Node>\n        <Node pos="r" depth="1" NCoef="0" IVar="-1" Cut="0.0000000000000000e+00" cType="1" res="-9.9000000000000000e+01" rms="0.0000000000000000e+00" purity="4.5488607883453369e-01" nType="-1"/>\n      </Node>\n    </BinaryTree>\n    <BinaryTree type="DecisionTree" boostWeight="3.4173364052443596e-02" itree="24">\n      <Node pos="s" depth="0" NCoef="0" IVar="4" Cut="3.3327364921569824e-01" cType="1" res="-9.9000000000000000e+01" rms="0.0000000000000000e+00" purity="4.9656274914741516e-01" nType="0">\n        <Node pos="l" depth="1" NCoef="0" IVar="4" Cut="-6.1907243728637695e-01" cType="0" res="-9.9000000000000000e+01" rms="0.0000000000000000e+00" purity="4.9999517202377319e-01" nType="0">\n          <Node pos="l" depth="2" NCoef="0" IVar="-1" Cut="-3.0161276459693909e-01" cType="1" res="-9.9000000000000000e+01" rms="0.0000000000000000e+00" purity="5.3639531135559082e-01" nType="1"/>\n          <Node pos="r" depth="2" NCoef="0" IVar="1" Cut="-9.5218169689178467e-01" cType="1" res="-9.9000000000000000e+01" rms="0.0000000000000000e+00" purity="4.9125793576240540e-01" nType="0">\n            <Node pos="l" depth="3" NCoef="0" IVar="-1" Cut="0.0000000000000000e+00" cType="1" res="-9.9000000000000000e+01" rms="0.0000000000000000e+00" purity="5.0027263164520264e-01" nType="1"/>\n            <Node pos="r" depth="3" NCoef="0" IVar="-1" Cut="0.0000000000000000e+00" cType="1" res="-9.9000000000000000e+01" rms="0.0000000000000000e+00" purity="3.9129397273063660e-01" nType="-1"/>\n          </Node>\n        </Node>\n        <Node pos="r" depth="1" NCoef="0" IVar="-1" Cut="0.0000000000000000e+00" cType="1" res="-9.9000000000000000e+01" rms="0.0000000000000000e+00" purity="4.4151124358177185e-01" nType="-1"/>\n      </Node>\n    </BinaryTree>\n    <BinaryTree type="DecisionTree" boostWeight="5.5105949805304866e-02" itree="25">\n      <Node pos="s" depth="0" NCoef="0" IVar="14" Cut="7.1428573131561279e-01" cType="1" res="-9.9000000000000000e+01" rms="0.0000000000000000e+00" purity="4.9008998274803162e-01" nType="0">\n        <Node pos="l" depth="1" NCoef="0" IVar="1" Cut="-9.8824405670166016e-01" cType="0" res="-9.9000000000000000e+01" rms="0.0000000000000000e+00" purity="5.1875853538513184e-01" nType="0">\n          <Node pos="l" depth="2" NCoef="0" IVar="-1" Cut="0.0000000000000000e+00" cType="1" res="-9.9000000000000000e+01" rms="0.0000000000000000e+00" purity="5.5868452787399292e-01" nType="1"/>\n          <Node pos="r" depth="2" NCoef="0" IVar="-1" Cut="0.0000000000000000e+00" cType="1" res="-9.9000000000000000e+01" rms="0.0000000000000000e+00" purity="4.8322212696075439e-01" nType="-1"/>\n        </Node>\n        <Node pos="r" depth="1" NCoef="0" IVar="16" Cut="7.3906606435775757e-01" cType="1" res="-9.9000000000000000e+01" rms="0.0000000000000000e+00" purity="4.8483797907829285e-01" nType="0">\n          <Node pos="l" depth="2" NCoef="0" IVar="16" Cut="6.8936342000961304e-01" cType="1" res="-9.9000000000000000e+01" rms="0.0000000000000000e+00" purity="4.9841076135635376e-01" nType="0">\n            <Node pos="l" depth="3" NCoef="0" IVar="-1" Cut="0.0000000000000000e+00" cType="1" res="-9.9000000000000000e+01" rms="0.0000000000000000e+00" purity="5.5162769556045532e-01" nType="1"/>\n            <Node pos="r" depth="3" NCoef="0" IVar="-1" Cut="0.0000000000000000e+00" cType="1" res="-9.9000000000000000e+01" rms="0.0000000000000000e+00" purity="4.9111539125442505e-01" nType="-1"/>\n          </Node>\n          <Node pos="r" depth="2" NCoef="0" IVar="-1" Cut="-9.1107070446014404e-01" cType="0" res="-9.9000000000000000e+01" rms="0.0000000000000000e+00" purity="4.0084570646286011e-01" nType="-1"/>\n        </Node>\n      </Node>\n    </BinaryTree>\n    <BinaryTree type="DecisionTree" boostWeight="5.4663510243236152e-02" itree="26">\n      <Node pos="s" depth="0" NCoef="0" IVar="21" Cut="-9.0476191043853760e-01" cType="1" res="-9.9000000000000000e+01" rms="0.0000000000000000e+00" purity="4.9943739175796509e-01" nType="0">\n        <Node pos="l" depth="1" NCoef="0" IVar="17" Cut="7.1428573131561279e-01" cType="1" res="-9.9000000000000000e+01" rms="0.0000000000000000e+00" purity="5.0347232818603516e-01" nType="0">\n          <Node pos="l" depth="2" NCoef="0" IVar="16" Cut="5.9671574831008911e-01" cType="0" res="-9.9000000000000000e+01" rms="0.0000000000000000e+00" purity="5.7626837491989136e-01" nType="0">\n            <Node pos="l" depth="3" NCoef="0" IVar="-1" Cut="0.0000000000000000e+00" cType="1" res="-9.9000000000000000e+01" rms="0.0000000000000000e+00" purity="6.7229503393173218e-01" nType="1"/>\n            <Node pos="r" depth="3" NCoef="0" IVar="-1" Cut="0.0000000000000000e+00" cType="1" res="-9.9000000000000000e+01" rms="0.0000000000000000e+00" purity="4.9489694833755493e-01" nType="-1"/>\n          </Node>\n          <Node pos="r" depth="2" NCoef="0" IVar="17" Cut="7.9592239856719971e-01" cType="1" res="-9.9000000000000000e+01" rms="0.0000000000000000e+00" purity="4.9342051148414612e-01" nType="0">\n            <Node pos="l" depth="3" NCoef="0" IVar="-1" Cut="0.0000000000000000e+00" cType="1" res="-9.9000000000000000e+01" rms="0.0000000000000000e+00" purity="5.0623279809951782e-01" nType="1"/>\n            <Node pos="r" depth="3" NCoef="0" IVar="-1" Cut="0.0000000000000000e+00" cType="1" res="-9.9000000000000000e+01" rms="0.0000000000000000e+00" purity="3.1077334284782410e-01" nType="-1"/>\n          </Node>\n        </Node>\n        <Node pos="r" depth="1" NCoef="0" IVar="-1" Cut="0.0000000000000000e+00" cType="1" res="-9.9000000000000000e+01" rms="0.0000000000000000e+00" purity="4.5903208851814270e-01" nType="-1"/>\n      </Node>\n    </BinaryTree>\n    <BinaryTree type="DecisionTree" boostWeight="4.5412238742147643e-02" itree="27">\n      <Node pos="s" depth="0" NCoef="0" IVar="7" Cut="-7.5187738984823227e-03" cType="0" res="-9.9000000000000000e+01" rms="0.0000000000000000e+00" purity="4.9130547046661377e-01" nType="0">\n        <Node pos="l" depth="1" NCoef="0" IVar="-1" Cut="0.0000000000000000e+00" cType="1" res="-9.9000000000000000e+01" rms="0.0000000000000000e+00" purity="5.3405928611755371e-01" nType="1"/>\n        <Node pos="r" depth="1" NCoef="0" IVar="17" Cut="7.8457069396972656e-01" cType="1" res="-9.9000000000000000e+01" rms="0.0000000000000000e+00" purity="4.8788696527481079e-01" nType="0">\n          <Node pos="l" depth="2" NCoef="0" IVar="2" Cut="-2.3816022276878357e-01" cType="1" res="-9.9000000000000000e+01" rms="0.0000000000000000e+00" purity="4.9863514304161072e-01" nType="0">\n            <Node pos="l" depth="3" NCoef="0" IVar="-1" Cut="0.0000000000000000e+00" cType="1" res="-9.9000000000000000e+01" rms="0.0000000000000000e+00" purity="5.0700271129608154e-01" nType="1"/>\n            <Node pos="r" depth="3" NCoef="0" IVar="-1" Cut="0.0000000000000000e+00" cType="1" res="-9.9000000000000000e+01" rms="0.0000000000000000e+00" purity="4.6958923339843750e-01" nType="-1"/>\n          </Node>\n          <Node pos="r" depth="2" NCoef="0" IVar="-1" Cut="1.4285714924335480e-01" cType="1" res="-9.9000000000000000e+01" rms="0.0000000000000000e+00" purity="4.0162274241447449e-01" nType="-1"/>\n        </Node>\n      </Node>\n    </BinaryTree>\n    <BinaryTree type="DecisionTree" boostWeight="7.3165619870526361e-02" itree="28">\n      <Node pos="s" depth="0" NCoef="0" IVar="4" Cut="-6.1906468868255615e-01" cType="0" res="-9.9000000000000000e+01" rms="0.0000000000000000e+00" purity="4.8644995689392090e-01" nType="0">\n        <Node pos="l" depth="1" NCoef="0" IVar="4" Cut="-3.1067043542861938e-01" cType="1" res="-9.9000000000000000e+01" rms="0.0000000000000000e+00" purity="5.1467514038085938e-01" nType="0">\n          <Node pos="l" depth="2" NCoef="0" IVar="-1" Cut="0.0000000000000000e+00" cType="1" res="-9.9000000000000000e+01" rms="0.0000000000000000e+00" purity="5.6396871805191040e-01" nType="1"/>\n          <Node pos="r" depth="2" NCoef="0" IVar="4" Cut="2.5101372599601746e-01" cType="1" res="-9.9000000000000000e+01" rms="0.0000000000000000e+00" purity="4.8812374472618103e-01" nType="0">\n            <Node pos="l" depth="3" NCoef="0" IVar="-1" Cut="0.0000000000000000e+00" cType="1" res="-9.9000000000000000e+01" rms="0.0000000000000000e+00" purity="5.0918805599212646e-01" nType="1"/>\n            <Node pos="r" depth="3" NCoef="0" IVar="-1" Cut="0.0000000000000000e+00" cType="1" res="-9.9000000000000000e+01" rms="0.0000000000000000e+00" purity="4.6032825112342834e-01" nType="-1"/>\n          </Node>\n        </Node>\n        <Node pos="r" depth="1" NCoef="0" IVar="1" Cut="-9.5218169689178467e-01" cType="1" res="-9.9000000000000000e+01" rms="0.0000000000000000e+00" purity="4.7747233510017395e-01" nType="0">\n          <Node pos="l" depth="2" NCoef="0" IVar="17" Cut="7.4946969747543335e-01" cType="1" res="-9.9000000000000000e+01" rms="0.0000000000000000e+00" purity="4.8511794209480286e-01" nType="0">\n            <Node pos="l" depth="3" NCoef="0" IVar="-1" Cut="0.0000000000000000e+00" cType="1" res="-9.9000000000000000e+01" rms="0.0000000000000000e+00" purity="5.2904486656188965e-01" nType="1"/>\n            <Node pos="r" depth="3" NCoef="0" IVar="-1" Cut="0.0000000000000000e+00" cType="1" res="-9.9000000000000000e+01" rms="0.0000000000000000e+00" purity="4.6968430280685425e-01" nType="-1"/>\n          </Node>\n          <Node pos="r" depth="2" NCoef="0" IVar="-1" Cut="0.0000000000000000e+00" cType="1" res="-9.9000000000000000e+01" rms="0.0000000000000000e+00" purity="3.9176538586616516e-01" nType="-1"/>\n        </Node>\n      </Node>\n    </BinaryTree>\n    <BinaryTree type="DecisionTree" boostWeight="7.1065790403194301e-02" itree="29">\n      <Node pos="s" depth="0" NCoef="0" IVar="7" Cut="-5.4887217283248901e-01" cType="0" res="-9.9000000000000000e+01" rms="0.0000000000000000e+00" purity="4.9173730611801147e-01" nType="0">\n        <Node pos="l" depth="1" NCoef="0" IVar="1" Cut="-9.6950405836105347e-01" cType="1" res="-9.9000000000000000e+01" rms="0.0000000000000000e+00" purity="5.0504904985427856e-01" nType="0">\n          <Node pos="l" depth="2" NCoef="0" IVar="0" Cut="-9.9558967351913452e-01" cType="0" res="-9.9000000000000000e+01" rms="0.0000000000000000e+00" purity="5.1503622531890869e-01" nType="0">\n            <Node pos="l" depth="3" NCoef="0" IVar="-1" Cut="0.0000000000000000e+00" cType="1" res="-9.9000000000000000e+01" rms="0.0000000000000000e+00" purity="5.3715533018112183e-01" nType="1"/>\n            <Node pos="r" depth="3" NCoef="0" IVar="-1" Cut="0.0000000000000000e+00" cType="1" res="-9.9000000000000000e+01" rms="0.0000000000000000e+00" purity="4.7290325164794922e-01" nType="-1"/>\n          </Node>\n          <Node pos="r" depth="2" NCoef="0" IVar="-1" Cut="0.0000000000000000e+00" cType="1" res="-9.9000000000000000e+01" rms="0.0000000000000000e+00" purity="4.5192763209342957e-01" nType="-1"/>\n        </Node>\n        <Node pos="r" depth="1" NCoef="0" IVar="4" Cut="-9.0476614236831665e-01" cType="0" res="-9.9000000000000000e+01" rms="0.0000000000000000e+00" purity="4.8112022876739502e-01" nType="0">\n          <Node pos="l" depth="2" NCoef="0" IVar="13" Cut="-9.0476191043853760e-01" cType="0" res="-9.9000000000000000e+01" rms="0.0000000000000000e+00" purity="4.9932006001472473e-01" nType="0">\n            <Node pos="l" depth="3" NCoef="0" IVar="-1" Cut="0.0000000000000000e+00" cType="1" res="-9.9000000000000000e+01" rms="0.0000000000000000e+00" purity="5.6581163406372070e-01" nType="1"/>\n            <Node pos="r" depth="3" NCoef="0" IVar="-1" Cut="0.0000000000000000e+00" cType="1" res="-9.9000000000000000e+01" rms="0.0000000000000000e+00" purity="4.7904849052429199e-01" nType="-1"/>\n          </Node>\n          <Node pos="r" depth="2" NCoef="0" IVar="16" Cut="6.9447720050811768e-01" cType="1" res="-9.9000000000000000e+01" rms="0.0000000000000000e+00" purity="4.6248134970664978e-01" nType="0">\n            <Node pos="l" depth="3" NCoef="0" IVar="-1" Cut="0.0000000000000000e+00" cType="1" res="-9.9000000000000000e+01" rms="0.0000000000000000e+00" purity="5.0337147712707520e-01" nType="1"/>\n            <Node pos="r" depth="3" NCoef="0" IVar="-1" Cut="0.0000000000000000e+00" cType="1" res="-9.9000000000000000e+01" rms="0.0000000000000000e+00" purity="4.5277917385101318e-01" nType="-1"/>\n          </Node>\n        </Node>\n      </Node>\n    </BinaryTree>\n    <BinaryTree type="DecisionTree" boostWeight="4.5770980593087353e-02" itree="30">\n      <Node pos="s" depth="0" NCoef="0" IVar="2" Cut="-6.1908012628555298e-01" cType="1" res="-9.9000000000000000e+01" rms="0.0000000000000000e+00" purity="4.9658128619194031e-01" nType="0">\n        <Node pos="l" depth="1" NCoef="0" IVar="13" Cut="-9.0476191043853760e-01" cType="1" res="-9.9000000000000000e+01" rms="0.0000000000000000e+00" purity="5.1766681671142578e-01" nType="0">\n          <Node pos="l" depth="2" NCoef="0" IVar="-1" Cut="1.5646259486675262e-01" cType="0" res="-9.9000000000000000e+01" rms="0.0000000000000000e+00" purity="5.3643405437469482e-01" nType="1"/>\n          <Node pos="r" depth="2" NCoef="0" IVar="-1" Cut="0.0000000000000000e+00" cType="1" res="-9.9000000000000000e+01" rms="0.0000000000000000e+00" purity="4.6915760636329651e-01" nType="-1"/>\n        </Node>\n        <Node pos="r" depth="1" NCoef="0" IVar="10" Cut="-9.0476191043853760e-01" cType="1" res="-9.9000000000000000e+01" rms="0.0000000000000000e+00" purity="4.9089857935905457e-01" nType="0">\n          <Node pos="l" depth="2" NCoef="0" IVar="-1" Cut="-9.0401786565780640e-01" cType="0" res="-9.9000000000000000e+01" rms="0.0000000000000000e+00" purity="5.1716476678848267e-01" nType="1"/>\n          <Node pos="r" depth="2" NCoef="0" IVar="-1" Cut="7.7310180664062500e-01" cType="1" res="-9.9000000000000000e+01" rms="0.0000000000000000e+00" purity="4.8358288407325745e-01" nType="-1"/>\n        </Node>\n      </Node>\n    </BinaryTree>\n    <BinaryTree type="DecisionTree" boostWeight="2.8696443651017322e-02" itree="31">\n      <Node pos="s" depth="0" NCoef="0" IVar="7" Cut="-8.1954884529113770e-01" cType="0" res="-9.9000000000000000e+01" rms="0.0000000000000000e+00" purity="5.0222259759902954e-01" nType="0">\n        <Node pos="l" depth="1" NCoef="0" IVar="9" Cut="-4.2857143282890320e-01" cType="1" res="-9.9000000000000000e+01" rms="0.0000000000000000e+00" purity="5.0599205493927002e-01" nType="0">\n          <Node pos="l" depth="2" NCoef="0" IVar="-1" Cut="-9.0476191043853760e-01" cType="0" res="-9.9000000000000000e+01" rms="0.0000000000000000e+00" purity="5.3202158212661743e-01" nType="1"/>\n          <Node pos="r" depth="2" NCoef="0" IVar="9" Cut="3.4065935015678406e-01" cType="0" res="-9.9000000000000000e+01" rms="0.0000000000000000e+00" purity="5.0131678581237793e-01" nType="0">\n            <Node pos="l" depth="3" NCoef="0" IVar="-1" Cut="0.0000000000000000e+00" cType="1" res="-9.9000000000000000e+01" rms="0.0000000000000000e+00" purity="5.3460097312927246e-01" nType="1"/>\n            <Node pos="r" depth="3" NCoef="0" IVar="-1" Cut="0.0000000000000000e+00" cType="1" res="-9.9000000000000000e+01" rms="0.0000000000000000e+00" purity="4.9544274806976318e-01" nType="-1"/>\n          </Node>\n        </Node>\n        <Node pos="r" depth="1" NCoef="0" IVar="-1" Cut="0.0000000000000000e+00" cType="1" res="-9.9000000000000000e+01" rms="0.0000000000000000e+00" purity="4.7076013684272766e-01" nType="-1"/>\n      </Node>\n    </BinaryTree>\n    <BinaryTree type="DecisionTree" boostWeight="9.9395772285654341e-02" itree="32">\n      <Node pos="s" depth="0" NCoef="0" IVar="16" Cut="7.1428573131561279e-01" cType="0" res="-9.9000000000000000e+01" rms="0.0000000000000000e+00" purity="5.0581848621368408e-01" nType="0">\n        <Node pos="l" depth="1" NCoef="0" IVar="16" Cut="7.4149852991104126e-01" cType="1" res="-9.9000000000000000e+01" rms="0.0000000000000000e+00" purity="5.1358491182327271e-01" nType="0">\n          <Node pos="l" depth="2" NCoef="0" IVar="14" Cut="7.6288747787475586e-01" cType="0" res="-9.9000000000000000e+01" rms="0.0000000000000000e+00" purity="5.2866160869598389e-01" nType="0">\n            <Node pos="l" depth="3" NCoef="0" IVar="-1" Cut="0.0000000000000000e+00" cType="1" res="-9.9000000000000000e+01" rms="0.0000000000000000e+00" purity="5.9825748205184937e-01" nType="1"/>\n            <Node pos="r" depth="3" NCoef="0" IVar="-1" Cut="0.0000000000000000e+00" cType="1" res="-9.9000000000000000e+01" rms="0.0000000000000000e+00" purity="4.8663809895515442e-01" nType="-1"/>\n          </Node>\n          <Node pos="r" depth="2" NCoef="0" IVar="-1" Cut="0.0000000000000000e+00" cType="1" res="-9.9000000000000000e+01" rms="0.0000000000000000e+00" purity="4.3058562278747559e-01" nType="-1"/>\n        </Node>\n        <Node pos="r" depth="1" NCoef="0" IVar="14" Cut="7.2776389122009277e-01" cType="1" res="-9.9000000000000000e+01" rms="0.0000000000000000e+00" purity="4.9208796024322510e-01" nType="0">\n          <Node pos="l" depth="2" NCoef="0" IVar="-1" Cut="-9.8824405670166016e-01" cType="0" res="-9.9000000000000000e+01" rms="0.0000000000000000e+00" purity="5.4768639802932739e-01" nType="1"/>\n          <Node pos="r" depth="2" NCoef="0" IVar="15" Cut="7.7832984924316406e-01" cType="1" res="-9.9000000000000000e+01" rms="0.0000000000000000e+00" purity="4.5440605282783508e-01" nType="0">\n            <Node pos="l" depth="3" NCoef="0" IVar="-1" Cut="0.0000000000000000e+00" cType="1" res="-9.9000000000000000e+01" rms="0.0000000000000000e+00" purity="5.0517696142196655e-01" nType="1"/>\n            <Node pos="r" depth="3" NCoef="0" IVar="-1" Cut="0.0000000000000000e+00" cType="1" res="-9.9000000000000000e+01" rms="0.0000000000000000e+00" purity="3.6136040091514587e-01" nType="-1"/>\n          </Node>\n        </Node>\n      </Node>\n    </BinaryTree>\n    <BinaryTree type="DecisionTree" boostWeight="8.4978495924694392e-02" itree="33">\n      <Node pos="s" depth="0" NCoef="0" IVar="16" Cut="7.1428573131561279e-01" cType="0" res="-9.9000000000000000e+01" rms="0.0000000000000000e+00" purity="5.0640785694122314e-01" nType="0">\n        <Node pos="l" depth="1" NCoef="0" IVar="16" Cut="7.4149852991104126e-01" cType="1" res="-9.9000000000000000e+01" rms="0.0000000000000000e+00" purity="5.2270251512527466e-01" nType="0">\n          <Node pos="l" depth="2" NCoef="0" IVar="-1" Cut="7.6288747787475586e-01" cType="0" res="-9.9000000000000000e+01" rms="0.0000000000000000e+00" purity="5.3495210409164429e-01" nType="1"/>\n          <Node pos="r" depth="2" NCoef="0" IVar="-1" Cut="0.0000000000000000e+00" cType="1" res="-9.9000000000000000e+01" rms="0.0000000000000000e+00" purity="4.5510461926460266e-01" nType="-1"/>\n        </Node>\n        <Node pos="r" depth="1" NCoef="0" IVar="14" Cut="7.2776389122009277e-01" cType="1" res="-9.9000000000000000e+01" rms="0.0000000000000000e+00" purity="4.7759583592414856e-01" nType="0">\n          <Node pos="l" depth="2" NCoef="0" IVar="1" Cut="-9.8824405670166016e-01" cType="0" res="-9.9000000000000000e+01" rms="0.0000000000000000e+00" purity="5.2296668291091919e-01" nType="0">\n            <Node pos="l" depth="3" NCoef="0" IVar="-1" Cut="0.0000000000000000e+00" cType="1" res="-9.9000000000000000e+01" rms="0.0000000000000000e+00" purity="5.7328486442565918e-01" nType="1"/>\n            <Node pos="r" depth="3" NCoef="0" IVar="-1" Cut="0.0000000000000000e+00" cType="1" res="-9.9000000000000000e+01" rms="0.0000000000000000e+00" purity="4.7951394319534302e-01" nType="-1"/>\n          </Node>\n          <Node pos="r" depth="2" NCoef="0" IVar="16" Cut="6.9889795780181885e-01" cType="1" res="-9.9000000000000000e+01" rms="0.0000000000000000e+00" purity="4.4683164358139038e-01" nType="0">\n            <Node pos="l" depth="3" NCoef="0" IVar="-1" Cut="0.0000000000000000e+00" cType="1" res="-9.9000000000000000e+01" rms="0.0000000000000000e+00" purity="5.0497388839721680e-01" nType="1"/>\n            <Node pos="r" depth="3" NCoef="0" IVar="-1" Cut="0.0000000000000000e+00" cType="1" res="-9.9000000000000000e+01" rms="0.0000000000000000e+00" purity="3.8773462176322937e-01" nType="-1"/>\n          </Node>\n        </Node>\n      </Node>\n    </BinaryTree>\n    <BinaryTree type="DecisionTree" boostWeight="6.1838657490699819e-02" itree="34">\n      <Node pos="s" depth="0" NCoef="0" IVar="16" Cut="7.1428573131561279e-01" cType="0" res="-9.9000000000000000e+01" rms="0.0000000000000000e+00" purity="4.9718666076660156e-01" nType="0">\n        <Node pos="l" depth="1" NCoef="0" IVar="17" Cut="7.6241111755371094e-01" cType="1" res="-9.9000000000000000e+01" rms="0.0000000000000000e+00" purity="5.0800991058349609e-01" nType="0">\n          <Node pos="l" depth="2" NCoef="0" IVar="-1" Cut="0.0000000000000000e+00" cType="1" res="-9.9000000000000000e+01" rms="0.0000000000000000e+00" purity="5.7108211517333984e-01" nType="1"/>\n          <Node pos="r" depth="2" NCoef="0" IVar="18" Cut="8.8886976242065430e-01" cType="1" res="-9.9000000000000000e+01" rms="0.0000000000000000e+00" purity="5.0041377544403076e-01" nType="0">\n            <Node pos="l" depth="3" NCoef="0" IVar="-1" Cut="0.0000000000000000e+00" cType="1" res="-9.9000000000000000e+01" rms="0.0000000000000000e+00" purity="5.0959581136703491e-01" nType="1"/>\n            <Node pos="r" depth="3" NCoef="0" IVar="-1" Cut="0.0000000000000000e+00" cType="1" res="-9.9000000000000000e+01" rms="0.0000000000000000e+00" purity="4.0821358561515808e-01" nType="-1"/>\n          </Node>\n        </Node>\n        <Node pos="r" depth="1" NCoef="0" IVar="14" Cut="7.2776389122009277e-01" cType="1" res="-9.9000000000000000e+01" rms="0.0000000000000000e+00" purity="4.7802230715751648e-01" nType="0">\n          <Node pos="l" depth="2" NCoef="0" IVar="4" Cut="-9.0401786565780640e-01" cType="1" res="-9.9000000000000000e+01" rms="0.0000000000000000e+00" purity="5.2461510896682739e-01" nType="0">\n            <Node pos="l" depth="3" NCoef="0" IVar="-1" Cut="0.0000000000000000e+00" cType="1" res="-9.9000000000000000e+01" rms="0.0000000000000000e+00" purity="5.6561422348022461e-01" nType="1"/>\n            <Node pos="r" depth="3" NCoef="0" IVar="-1" Cut="0.0000000000000000e+00" cType="1" res="-9.9000000000000000e+01" rms="0.0000000000000000e+00" purity="4.9295005202293396e-01" nType="-1"/>\n          </Node>\n          <Node pos="r" depth="2" NCoef="0" IVar="-1" Cut="7.7832984924316406e-01" cType="1" res="-9.9000000000000000e+01" rms="0.0000000000000000e+00" purity="4.4639387726783752e-01" nType="-1"/>\n        </Node>\n      </Node>\n    </BinaryTree>\n    <BinaryTree type="DecisionTree" boostWeight="4.7529400461005997e-02" itree="35">\n      <Node pos="s" depth="0" NCoef="0" IVar="7" Cut="-1.8796990811824799e-01" cType="0" res="-9.9000000000000000e+01" rms="0.0000000000000000e+00" purity="4.9250462651252747e-01" nType="0">\n        <Node pos="l" depth="1" NCoef="0" IVar="5" Cut="-9.0968221426010132e-01" cType="1" res="-9.9000000000000000e+01" rms="0.0000000000000000e+00" purity="5.1578611135482788e-01" nType="0">\n          <Node pos="l" depth="2" NCoef="0" IVar="-1" Cut="0.0000000000000000e+00" cType="1" res="-9.9000000000000000e+01" rms="0.0000000000000000e+00" purity="5.4103988409042358e-01" nType="1"/>\n          <Node pos="r" depth="2" NCoef="0" IVar="-1" Cut="0.0000000000000000e+00" cType="1" res="-9.9000000000000000e+01" rms="0.0000000000000000e+00" purity="4.9058070778846741e-01" nType="-1"/>\n        </Node>\n        <Node pos="r" depth="1" NCoef="0" IVar="4" Cut="-9.0476614236831665e-01" cType="0" res="-9.9000000000000000e+01" rms="0.0000000000000000e+00" purity="4.8725560307502747e-01" nType="0">\n          <Node pos="l" depth="2" NCoef="0" IVar="13" Cut="-9.0476191043853760e-01" cType="0" res="-9.9000000000000000e+01" rms="0.0000000000000000e+00" purity="5.0484967231750488e-01" nType="0">\n            <Node pos="l" depth="3" NCoef="0" IVar="-1" Cut="0.0000000000000000e+00" cType="1" res="-9.9000000000000000e+01" rms="0.0000000000000000e+00" purity="5.4977333545684814e-01" nType="1"/>\n            <Node pos="r" depth="3" NCoef="0" IVar="-1" Cut="0.0000000000000000e+00" cType="1" res="-9.9000000000000000e+01" rms="0.0000000000000000e+00" purity="4.9149429798126221e-01" nType="-1"/>\n          </Node>\n          <Node pos="r" depth="2" NCoef="0" IVar="-1" Cut="-9.7520756721496582e-01" cType="1" res="-9.9000000000000000e+01" rms="0.0000000000000000e+00" purity="4.7179076075553894e-01" nType="-1"/>\n        </Node>\n      </Node>\n    </BinaryTree>\n    <BinaryTree type="DecisionTree" boostWeight="4.1294280943499913e-02" itree="36">\n      <Node pos="s" depth="0" NCoef="0" IVar="7" Cut="-8.1954884529113770e-01" cType="0" res="-9.9000000000000000e+01" rms="0.0000000000000000e+00" purity="5.0012278556823730e-01" nType="0">\n        <Node pos="l" depth="1" NCoef="0" IVar="4" Cut="-6.1906468868255615e-01" cType="0" res="-9.9000000000000000e+01" rms="0.0000000000000000e+00" purity="5.0375908613204956e-01" nType="0">\n          <Node pos="l" depth="2" NCoef="0" IVar="-1" Cut="-2.3357743024826050e-01" cType="1" res="-9.9000000000000000e+01" rms="0.0000000000000000e+00" purity="5.2287834882736206e-01" nType="1"/>\n          <Node pos="r" depth="2" NCoef="0" IVar="1" Cut="-9.7541505098342896e-01" cType="1" res="-9.9000000000000000e+01" rms="0.0000000000000000e+00" purity="4.9829760193824768e-01" nType="0">\n            <Node pos="l" depth="3" NCoef="0" IVar="-1" Cut="0.0000000000000000e+00" cType="1" res="-9.9000000000000000e+01" rms="0.0000000000000000e+00" purity="5.1088804006576538e-01" nType="1"/>\n            <Node pos="r" depth="3" NCoef="0" IVar="-1" Cut="0.0000000000000000e+00" cType="1" res="-9.9000000000000000e+01" rms="0.0000000000000000e+00" purity="4.5551723241806030e-01" nType="-1"/>\n          </Node>\n        </Node>\n        <Node pos="r" depth="1" NCoef="0" IVar="-1" Cut="0.0000000000000000e+00" cType="1" res="-9.9000000000000000e+01" rms="0.0000000000000000e+00" purity="4.6986570954322815e-01" nType="-1"/>\n      </Node>\n    </BinaryTree>\n    <BinaryTree type="DecisionTree" boostWeight="3.0888116810928255e-02" itree="37">\n      <Node pos="s" depth="0" NCoef="0" IVar="23" Cut="-9.0476191043853760e-01" cType="0" res="-9.9000000000000000e+01" rms="0.0000000000000000e+00" purity="4.9527099728584290e-01" nType="0">\n        <Node pos="l" depth="1" NCoef="0" IVar="18" Cut="8.0438435077667236e-01" cType="1" res="-9.9000000000000000e+01" rms="0.0000000000000000e+00" purity="5.0021338462829590e-01" nType="0">\n          <Node pos="l" depth="2" NCoef="0" IVar="-1" Cut="-6.8181896209716797e-01" cType="1" res="-9.9000000000000000e+01" rms="0.0000000000000000e+00" purity="5.3408139944076538e-01" nType="1"/>\n          <Node pos="r" depth="2" NCoef="0" IVar="16" Cut="7.4797517061233521e-01" cType="1" res="-9.9000000000000000e+01" rms="0.0000000000000000e+00" purity="4.9453076720237732e-01" nType="0">\n            <Node pos="l" depth="3" NCoef="0" IVar="-1" Cut="0.0000000000000000e+00" cType="1" res="-9.9000000000000000e+01" rms="0.0000000000000000e+00" purity="5.0216627120971680e-01" nType="1"/>\n            <Node pos="r" depth="3" NCoef="0" IVar="-1" Cut="0.0000000000000000e+00" cType="1" res="-9.9000000000000000e+01" rms="0.0000000000000000e+00" purity="4.1160359978675842e-01" nType="-1"/>\n          </Node>\n        </Node>\n        <Node pos="r" depth="1" NCoef="0" IVar="2" Cut="-5.2399420738220215e-01" cType="1" res="-9.9000000000000000e+01" rms="0.0000000000000000e+00" purity="4.7765311598777771e-01" nType="0">\n          <Node pos="l" depth="2" NCoef="0" IVar="-1" Cut="0.0000000000000000e+00" cType="1" res="-9.9000000000000000e+01" rms="0.0000000000000000e+00" purity="5.0206780433654785e-01" nType="1"/>\n          <Node pos="r" depth="2" NCoef="0" IVar="-1" Cut="0.0000000000000000e+00" cType="1" res="-9.9000000000000000e+01" rms="0.0000000000000000e+00" purity="4.5755800604820251e-01" nType="-1"/>\n        </Node>\n      </Node>\n    </BinaryTree>\n    <BinaryTree type="DecisionTree" boostWeight="5.6995020894039579e-02" itree="38">\n      <Node pos="s" depth="0" NCoef="0" IVar="4" Cut="-6.1906468868255615e-01" cType="0" res="-9.9000000000000000e+01" rms="0.0000000000000000e+00" purity="4.9027132987976074e-01" nType="0">\n        <Node pos="l" depth="1" NCoef="0" IVar="4" Cut="-3.1067043542861938e-01" cType="1" res="-9.9000000000000000e+01" rms="0.0000000000000000e+00" purity="5.0719994306564331e-01" nType="0">\n          <Node pos="l" depth="2" NCoef="0" IVar="-1" Cut="0.0000000000000000e+00" cType="1" res="-9.9000000000000000e+01" rms="0.0000000000000000e+00" purity="5.4457610845565796e-01" nType="1"/>\n          <Node pos="r" depth="2" NCoef="0" IVar="-1" Cut="6.9785244762897491e-02" cType="1" res="-9.9000000000000000e+01" rms="0.0000000000000000e+00" purity="4.8705619573593140e-01" nType="-1"/>\n        </Node>\n        <Node pos="r" depth="1" NCoef="0" IVar="19" Cut="-9.0476191043853760e-01" cType="1" res="-9.9000000000000000e+01" rms="0.0000000000000000e+00" purity="4.8484283685684204e-01" nType="0">\n          <Node pos="l" depth="2" NCoef="0" IVar="13" Cut="-9.0476191043853760e-01" cType="0" res="-9.9000000000000000e+01" rms="0.0000000000000000e+00" purity="4.9219658970832825e-01" nType="0">\n            <Node pos="l" depth="3" NCoef="0" IVar="-1" Cut="0.0000000000000000e+00" cType="1" res="-9.9000000000000000e+01" rms="0.0000000000000000e+00" purity="5.2400648593902588e-01" nType="1"/>\n            <Node pos="r" depth="3" NCoef="0" IVar="-1" Cut="0.0000000000000000e+00" cType="1" res="-9.9000000000000000e+01" rms="0.0000000000000000e+00" purity="4.7515907883644104e-01" nType="-1"/>\n          </Node>\n          <Node pos="r" depth="2" NCoef="0" IVar="-1" Cut="0.0000000000000000e+00" cType="1" res="-9.9000000000000000e+01" rms="0.0000000000000000e+00" purity="4.3097439408302307e-01" nType="-1"/>\n        </Node>\n      </Node>\n    </BinaryTree>\n    <BinaryTree type="DecisionTree" boostWeight="4.3766065097425699e-02" itree="39">\n      <Node pos="s" depth="0" NCoef="0" IVar="4" Cut="-6.1906468868255615e-01" cType="0" res="-9.9000000000000000e+01" rms="0.0000000000000000e+00" purity="4.9546590447425842e-01" nType="0">\n        <Node pos="l" depth="1" NCoef="0" IVar="2" Cut="-1.1622358858585358e-01" cType="1" res="-9.9000000000000000e+01" rms="0.0000000000000000e+00" purity="5.1148325204849243e-01" nType="0">\n          <Node pos="l" depth="2" NCoef="0" IVar="-1" Cut="0.0000000000000000e+00" cType="1" res="-9.9000000000000000e+01" rms="0.0000000000000000e+00" purity="5.3495627641677856e-01" nType="1"/>\n          <Node pos="r" depth="2" NCoef="0" IVar="-1" Cut="0.0000000000000000e+00" cType="1" res="-9.9000000000000000e+01" rms="0.0000000000000000e+00" purity="4.9014937877655029e-01" nType="-1"/>\n        </Node>\n        <Node pos="r" depth="1" NCoef="0" IVar="1" Cut="-9.5218169689178467e-01" cType="1" res="-9.9000000000000000e+01" rms="0.0000000000000000e+00" purity="4.9032789468765259e-01" nType="0">\n          <Node pos="l" depth="2" NCoef="0" IVar="1" Cut="-9.8403483629226685e-01" cType="1" res="-9.9000000000000000e+01" rms="0.0000000000000000e+00" purity="4.9688822031021118e-01" nType="0">\n            <Node pos="l" depth="3" NCoef="0" IVar="-1" Cut="0.0000000000000000e+00" cType="1" res="-9.9000000000000000e+01" rms="0.0000000000000000e+00" purity="5.0994360446929932e-01" nType="1"/>\n            <Node pos="r" depth="3" NCoef="0" IVar="-1" Cut="0.0000000000000000e+00" cType="1" res="-9.9000000000000000e+01" rms="0.0000000000000000e+00" purity="4.7064992785453796e-01" nType="-1"/>\n          </Node>\n          <Node pos="r" depth="2" NCoef="0" IVar="-1" Cut="0.0000000000000000e+00" cType="1" res="-9.9000000000000000e+01" rms="0.0000000000000000e+00" purity="4.1484555602073669e-01" nType="-1"/>\n        </Node>\n      </Node>\n    </BinaryTree>\n    <BinaryTree type="DecisionTree" boostWeight="3.2181177336780074e-02" itree="40">\n      <Node pos="s" depth="0" NCoef="0" IVar="4" Cut="-6.1906468868255615e-01" cType="0" res="-9.9000000000000000e+01" rms="0.0000000000000000e+00" purity="4.9369236826896667e-01" nType="0">\n        <Node pos="l" depth="1" NCoef="0" IVar="16" Cut="7.1251606941223145e-01" cType="1" res="-9.9000000000000000e+01" rms="0.0000000000000000e+00" purity="5.1201707124710083e-01" nType="0">\n          <Node pos="l" depth="2" NCoef="0" IVar="-1" Cut="0.0000000000000000e+00" cType="1" res="-9.9000000000000000e+01" rms="0.0000000000000000e+00" purity="5.3512167930603027e-01" nType="1"/>\n          <Node pos="r" depth="2" NCoef="0" IVar="9" Cut="1.4285722374916077e-01" cType="0" res="-9.9000000000000000e+01" rms="0.0000000000000000e+00" purity="4.9917501211166382e-01" nType="0">\n            <Node pos="l" depth="3" NCoef="0" IVar="-1" Cut="0.0000000000000000e+00" cType="1" res="-9.9000000000000000e+01" rms="0.0000000000000000e+00" purity="5.2589285373687744e-01" nType="1"/>\n            <Node pos="r" depth="3" NCoef="0" IVar="-1" Cut="0.0000000000000000e+00" cType="1" res="-9.9000000000000000e+01" rms="0.0000000000000000e+00" purity="4.7681987285614014e-01" nType="-1"/>\n          </Node>\n        </Node>\n        <Node pos="r" depth="1" NCoef="0" IVar="-1" Cut="-9.5218169689178467e-01" cType="1" res="-9.9000000000000000e+01" rms="0.0000000000000000e+00" purity="4.8781421780586243e-01" nType="-1"/>\n      </Node>\n    </BinaryTree>\n    <BinaryTree type="DecisionTree" boostWeight="4.3101034897401386e-02" itree="41">\n      <Node pos="s" depth="0" NCoef="0" IVar="7" Cut="-5.4887217283248901e-01" cType="0" res="-9.9000000000000000e+01" rms="0.0000000000000000e+00" purity="4.9919643998146057e-01" nType="0">\n        <Node pos="l" depth="1" NCoef="0" IVar="4" Cut="-8.0930703878402710e-01" cType="1" res="-9.9000000000000000e+01" rms="0.0000000000000000e+00" purity="5.0955098867416382e-01" nType="0">\n          <Node pos="l" depth="2" NCoef="0" IVar="0" Cut="-9.8025709390640259e-01" cType="1" res="-9.9000000000000000e+01" rms="0.0000000000000000e+00" purity="5.1886183023452759e-01" nType="0">\n            <Node pos="l" depth="3" NCoef="0" IVar="-1" Cut="0.0000000000000000e+00" cType="1" res="-9.9000000000000000e+01" rms="0.0000000000000000e+00" purity="5.3169250488281250e-01" nType="1"/>\n            <Node pos="r" depth="3" NCoef="0" IVar="-1" Cut="0.0000000000000000e+00" cType="1" res="-9.9000000000000000e+01" rms="0.0000000000000000e+00" purity="4.7874414920806885e-01" nType="-1"/>\n          </Node>\n          <Node pos="r" depth="2" NCoef="0" IVar="-1" Cut="0.0000000000000000e+00" cType="1" res="-9.9000000000000000e+01" rms="0.0000000000000000e+00" purity="4.8641961812973022e-01" nType="-1"/>\n        </Node>\n        <Node pos="r" depth="1" NCoef="0" IVar="4" Cut="-6.1906468868255615e-01" cType="0" res="-9.9000000000000000e+01" rms="0.0000000000000000e+00" purity="4.9095559120178223e-01" nType="0">\n          <Node pos="l" depth="2" NCoef="0" IVar="2" Cut="-2.3219173774123192e-02" cType="1" res="-9.9000000000000000e+01" rms="0.0000000000000000e+00" purity="5.1390999555587769e-01" nType="0">\n            <Node pos="l" depth="3" NCoef="0" IVar="-1" Cut="0.0000000000000000e+00" cType="1" res="-9.9000000000000000e+01" rms="0.0000000000000000e+00" purity="5.2987235784530640e-01" nType="1"/>\n            <Node pos="r" depth="3" NCoef="0" IVar="-1" Cut="0.0000000000000000e+00" cType="1" res="-9.9000000000000000e+01" rms="0.0000000000000000e+00" purity="4.9092194437980652e-01" nType="-1"/>\n          </Node>\n          <Node pos="r" depth="2" NCoef="0" IVar="-1" Cut="7.9780578613281250e-01" cType="0" res="-9.9000000000000000e+01" rms="0.0000000000000000e+00" purity="4.8189055919647217e-01" nType="-1"/>\n        </Node>\n      </Node>\n    </BinaryTree>\n    <BinaryTree type="DecisionTree" boostWeight="2.4170936965341693e-02" itree="42">\n      <Node pos="s" depth="0" NCoef="0" IVar="8" Cut="-4.2857143282890320e-01" cType="1" res="-9.9000000000000000e+01" rms="0.0000000000000000e+00" purity="5.0280928611755371e-01" nType="0">\n        <Node pos="l" depth="1" NCoef="0" IVar="9" Cut="2.3809523880481720e-01" cType="0" res="-9.9000000000000000e+01" rms="0.0000000000000000e+00" purity="5.0502508878707886e-01" nType="0">\n          <Node pos="l" depth="2" NCoef="0" IVar="6" Cut="-8.2663834095001221e-01" cType="1" res="-9.9000000000000000e+01" rms="0.0000000000000000e+00" purity="5.1794505119323730e-01" nType="0">\n            <Node pos="l" depth="3" NCoef="0" IVar="-1" Cut="0.0000000000000000e+00" cType="1" res="-9.9000000000000000e+01" rms="0.0000000000000000e+00" purity="5.2960312366485596e-01" nType="1"/>\n            <Node pos="r" depth="3" NCoef="0" IVar="-1" Cut="0.0000000000000000e+00" cType="1" res="-9.9000000000000000e+01" rms="0.0000000000000000e+00" purity="4.8746982216835022e-01" nType="-1"/>\n          </Node>\n          <Node pos="r" depth="2" NCoef="0" IVar="7" Cut="-9.7744338214397430e-02" cType="0" res="-9.9000000000000000e+01" rms="0.0000000000000000e+00" purity="5.0102275609970093e-01" nType="0">\n            <Node pos="l" depth="3" NCoef="0" IVar="-1" Cut="0.0000000000000000e+00" cType="1" res="-9.9000000000000000e+01" rms="0.0000000000000000e+00" purity="5.3453546762466431e-01" nType="1"/>\n            <Node pos="r" depth="3" NCoef="0" IVar="-1" Cut="0.0000000000000000e+00" cType="1" res="-9.9000000000000000e+01" rms="0.0000000000000000e+00" purity="4.9673986434936523e-01" nType="-1"/>\n          </Node>\n        </Node>\n        <Node pos="r" depth="1" NCoef="0" IVar="-1" Cut="0.0000000000000000e+00" cType="1" res="-9.9000000000000000e+01" rms="0.0000000000000000e+00" purity="4.7557866573333740e-01" nType="-1"/>\n      </Node>\n    </BinaryTree>\n    <BinaryTree type="DecisionTree" boostWeight="2.5981249499840788e-02" itree="43">\n      <Node pos="s" depth="0" NCoef="0" IVar="6" Cut="-7.1428442001342773e-01" cType="1" res="-9.9000000000000000e+01" rms="0.0000000000000000e+00" purity="5.0597482919692993e-01" nType="0">\n        <Node pos="l" depth="1" NCoef="0" IVar="7" Cut="-1.4786969125270844e-01" cType="0" res="-9.9000000000000000e+01" rms="0.0000000000000000e+00" purity="5.0805062055587769e-01" nType="0">\n          <Node pos="l" depth="2" NCoef="0" IVar="-1" Cut="0.0000000000000000e+00" cType="1" res="-9.9000000000000000e+01" rms="0.0000000000000000e+00" purity="5.3373348712921143e-01" nType="1"/>\n          <Node pos="r" depth="2" NCoef="0" IVar="4" Cut="-9.0476614236831665e-01" cType="0" res="-9.9000000000000000e+01" rms="0.0000000000000000e+00" purity="5.0552868843078613e-01" nType="0">\n            <Node pos="l" depth="3" NCoef="0" IVar="-1" Cut="0.0000000000000000e+00" cType="1" res="-9.9000000000000000e+01" rms="0.0000000000000000e+00" purity="5.1731371879577637e-01" nType="1"/>\n            <Node pos="r" depth="3" NCoef="0" IVar="-1" Cut="0.0000000000000000e+00" cType="1" res="-9.9000000000000000e+01" rms="0.0000000000000000e+00" purity="4.9565175175666809e-01" nType="-1"/>\n          </Node>\n        </Node>\n        <Node pos="r" depth="1" NCoef="0" IVar="-1" Cut="0.0000000000000000e+00" cType="1" res="-9.9000000000000000e+01" rms="0.0000000000000000e+00" purity="4.7877177596092224e-01" nType="-1"/>\n      </Node>\n    </BinaryTree>\n    <BinaryTree type="DecisionTree" boostWeight="3.0156425512860085e-02" itree="44">\n      <Node pos="s" depth="0" NCoef="0" IVar="8" Cut="-4.2857143282890320e-01" cType="1" res="-9.9000000000000000e+01" rms="0.0000000000000000e+00" purity="5.0638186931610107e-01" nType="0">\n        <Node pos="l" depth="1" NCoef="0" IVar="12" Cut="-9.0476191043853760e-01" cType="0" res="-9.9000000000000000e+01" rms="0.0000000000000000e+00" purity="5.0855904817581177e-01" nType="0">\n          <Node pos="l" depth="2" NCoef="0" IVar="-1" Cut="7.3242205381393433e-01" cType="1" res="-9.9000000000000000e+01" rms="0.0000000000000000e+00" purity="5.1204156875610352e-01" nType="1"/>\n          <Node pos="r" depth="2" NCoef="0" IVar="1" Cut="-9.9412202835083008e-01" cType="0" res="-9.9000000000000000e+01" rms="0.0000000000000000e+00" purity="4.9334082007408142e-01" nType="0">\n            <Node pos="l" depth="3" NCoef="0" IVar="-1" Cut="0.0000000000000000e+00" cType="1" res="-9.9000000000000000e+01" rms="0.0000000000000000e+00" purity="5.2101504802703857e-01" nType="1"/>\n            <Node pos="r" depth="3" NCoef="0" IVar="-1" Cut="0.0000000000000000e+00" cType="1" res="-9.9000000000000000e+01" rms="0.0000000000000000e+00" purity="4.6973863244056702e-01" nType="-1"/>\n          </Node>\n        </Node>\n        <Node pos="r" depth="1" NCoef="0" IVar="-1" Cut="0.0000000000000000e+00" cType="1" res="-9.9000000000000000e+01" rms="0.0000000000000000e+00" purity="4.7962060570716858e-01" nType="-1"/>\n      </Node>\n    </BinaryTree>\n    <BinaryTree type="DecisionTree" boostWeight="2.4353523989626463e-02" itree="45">\n      <Node pos="s" depth="0" NCoef="0" IVar="2" Cut="-7.1431010961532593e-01" cType="1" res="-9.9000000000000000e+01" rms="0.0000000000000000e+00" purity="5.0137960910797119e-01" nType="0">\n        <Node pos="l" depth="1" NCoef="0" IVar="-1" Cut="0.0000000000000000e+00" cType="1" res="-9.9000000000000000e+01" rms="0.0000000000000000e+00" purity="5.2871185541152954e-01" nType="1"/>\n        <Node pos="r" depth="1" NCoef="0" IVar="23" Cut="-9.0476191043853760e-01" cType="0" res="-9.9000000000000000e+01" rms="0.0000000000000000e+00" purity="4.9947515130043030e-01" nType="0">\n          <Node pos="l" depth="2" NCoef="0" IVar="18" Cut="8.0438435077667236e-01" cType="1" res="-9.9000000000000000e+01" rms="0.0000000000000000e+00" purity="5.0321340560913086e-01" nType="0">\n            <Node pos="l" depth="3" NCoef="0" IVar="-1" Cut="0.0000000000000000e+00" cType="1" res="-9.9000000000000000e+01" rms="0.0000000000000000e+00" purity="5.4317694902420044e-01" nType="1"/>\n            <Node pos="r" depth="3" NCoef="0" IVar="-1" Cut="0.0000000000000000e+00" cType="1" res="-9.9000000000000000e+01" rms="0.0000000000000000e+00" purity="4.9657604098320007e-01" nType="-1"/>\n          </Node>\n          <Node pos="r" depth="2" NCoef="0" IVar="12" Cut="-9.0476191043853760e-01" cType="0" res="-9.9000000000000000e+01" rms="0.0000000000000000e+00" purity="4.8567441105842590e-01" nType="0">\n            <Node pos="l" depth="3" NCoef="0" IVar="-1" Cut="0.0000000000000000e+00" cType="1" res="-9.9000000000000000e+01" rms="0.0000000000000000e+00" purity="5.0430583953857422e-01" nType="1"/>\n            <Node pos="r" depth="3" NCoef="0" IVar="-1" Cut="0.0000000000000000e+00" cType="1" res="-9.9000000000000000e+01" rms="0.0000000000000000e+00" purity="4.7065317630767822e-01" nType="-1"/>\n          </Node>\n        </Node>\n      </Node>\n    </BinaryTree>\n    <BinaryTree type="DecisionTree" boostWeight="3.7362000364930002e-02" itree="46">\n      <Node pos="s" depth="0" NCoef="0" IVar="23" Cut="-9.0476191043853760e-01" cType="0" res="-9.9000000000000000e+01" rms="0.0000000000000000e+00" purity="5.0431716442108154e-01" nType="0">\n        <Node pos="l" depth="1" NCoef="0" IVar="18" Cut="8.0438435077667236e-01" cType="1" res="-9.9000000000000000e+01" rms="0.0000000000000000e+00" purity="5.0821977853775024e-01" nType="0">\n          <Node pos="l" depth="2" NCoef="0" IVar="-1" Cut="-6.8181896209716797e-01" cType="1" res="-9.9000000000000000e+01" rms="0.0000000000000000e+00" purity="5.3761857748031616e-01" nType="1"/>\n          <Node pos="r" depth="2" NCoef="0" IVar="19" Cut="-9.0476191043853760e-01" cType="0" res="-9.9000000000000000e+01" rms="0.0000000000000000e+00" purity="5.0332576036453247e-01" nType="0">\n            <Node pos="l" depth="3" NCoef="0" IVar="-1" Cut="0.0000000000000000e+00" cType="1" res="-9.9000000000000000e+01" rms="0.0000000000000000e+00" purity="5.6843656301498413e-01" nType="1"/>\n            <Node pos="r" depth="3" NCoef="0" IVar="-1" Cut="0.0000000000000000e+00" cType="1" res="-9.9000000000000000e+01" rms="0.0000000000000000e+00" purity="4.9314981698989868e-01" nType="-1"/>\n          </Node>\n        </Node>\n        <Node pos="r" depth="1" NCoef="0" IVar="3" Cut="1.5646259486675262e-01" cType="0" res="-9.9000000000000000e+01" rms="0.0000000000000000e+00" purity="4.9039095640182495e-01" nType="0">\n          <Node pos="l" depth="2" NCoef="0" IVar="-1" Cut="0.0000000000000000e+00" cType="1" res="-9.9000000000000000e+01" rms="0.0000000000000000e+00" purity="5.0958430767059326e-01" nType="1"/>\n          <Node pos="r" depth="2" NCoef="0" IVar="9" Cut="-3.2967023551464081e-02" cType="1" res="-9.9000000000000000e+01" rms="0.0000000000000000e+00" purity="4.7809463739395142e-01" nType="0">\n            <Node pos="l" depth="3" NCoef="0" IVar="-1" Cut="0.0000000000000000e+00" cType="1" res="-9.9000000000000000e+01" rms="0.0000000000000000e+00" purity="5.0416386127471924e-01" nType="1"/>\n            <Node pos="r" depth="3" NCoef="0" IVar="-1" Cut="0.0000000000000000e+00" cType="1" res="-9.9000000000000000e+01" rms="0.0000000000000000e+00" purity="4.5005357265472412e-01" nType="-1"/>\n          </Node>\n        </Node>\n      </Node>\n    </BinaryTree>\n    <BinaryTree type="DecisionTree" boostWeight="3.3093817854589924e-02" itree="47">\n      <Node pos="s" depth="0" NCoef="0" IVar="23" Cut="-9.0476191043853760e-01" cType="0" res="-9.9000000000000000e+01" rms="0.0000000000000000e+00" purity="5.0700056552886963e-01" nType="0">\n        <Node pos="l" depth="1" NCoef="0" IVar="21" Cut="-9.0476191043853760e-01" cType="1" res="-9.9000000000000000e+01" rms="0.0000000000000000e+00" purity="5.1273787021636963e-01" nType="0">\n          <Node pos="l" depth="2" NCoef="0" IVar="-1" Cut="7.1428573131561279e-01" cType="1" res="-9.9000000000000000e+01" rms="0.0000000000000000e+00" purity="5.1679426431655884e-01" nType="1"/>\n          <Node pos="r" depth="2" NCoef="0" IVar="-1" Cut="0.0000000000000000e+00" cType="1" res="-9.9000000000000000e+01" rms="0.0000000000000000e+00" purity="4.8144462704658508e-01" nType="-1"/>\n        </Node>\n        <Node pos="r" depth="1" NCoef="0" IVar="2" Cut="-5.2399420738220215e-01" cType="1" res="-9.9000000000000000e+01" rms="0.0000000000000000e+00" purity="4.8652669787406921e-01" nType="0">\n          <Node pos="l" depth="2" NCoef="0" IVar="-1" Cut="0.0000000000000000e+00" cType="1" res="-9.9000000000000000e+01" rms="0.0000000000000000e+00" purity="5.0159347057342529e-01" nType="1"/>\n          <Node pos="r" depth="2" NCoef="0" IVar="-1" Cut="0.0000000000000000e+00" cType="1" res="-9.9000000000000000e+01" rms="0.0000000000000000e+00" purity="4.7407445311546326e-01" nType="-1"/>\n        </Node>\n      </Node>\n    </BinaryTree>\n    <BinaryTree type="DecisionTree" boostWeight="2.1026251289124685e-02" itree="48">\n      <Node pos="s" depth="0" NCoef="0" IVar="23" Cut="-9.0476191043853760e-01" cType="0" res="-9.9000000000000000e+01" rms="0.0000000000000000e+00" purity="5.0219494104385376e-01" nType="0">\n        <Node pos="l" depth="1" NCoef="0" IVar="7" Cut="-7.5187738984823227e-03" cType="0" res="-9.9000000000000000e+01" rms="0.0000000000000000e+00" purity="5.0636738538742065e-01" nType="0">\n          <Node pos="l" depth="2" NCoef="0" IVar="-1" Cut="0.0000000000000000e+00" cType="1" res="-9.9000000000000000e+01" rms="0.0000000000000000e+00" purity="5.3828263282775879e-01" nType="1"/>\n          <Node pos="r" depth="2" NCoef="0" IVar="10" Cut="-9.0476191043853760e-01" cType="1" res="-9.9000000000000000e+01" rms="0.0000000000000000e+00" purity="5.0367373228073120e-01" nType="0">\n            <Node pos="l" depth="3" NCoef="0" IVar="-1" Cut="0.0000000000000000e+00" cType="1" res="-9.9000000000000000e+01" rms="0.0000000000000000e+00" purity="5.2230155467987061e-01" nType="1"/>\n            <Node pos="r" depth="3" NCoef="0" IVar="-1" Cut="0.0000000000000000e+00" cType="1" res="-9.9000000000000000e+01" rms="0.0000000000000000e+00" purity="4.9744397401809692e-01" nType="-1"/>\n          </Node>\n        </Node>\n        <Node pos="r" depth="1" NCoef="0" IVar="-1" Cut="1.5646259486675262e-01" cType="0" res="-9.9000000000000000e+01" rms="0.0000000000000000e+00" purity="4.8730641603469849e-01" nType="-1"/>\n      </Node>\n    </BinaryTree>\n    <BinaryTree type="DecisionTree" boostWeight="2.4584769388530540e-02" itree="49">\n      <Node pos="s" depth="0" NCoef="0" IVar="23" Cut="-9.0476191043853760e-01" cType="0" res="-9.9000000000000000e+01" rms="0.0000000000000000e+00" purity="5.0491553544998169e-01" nType="0">\n        <Node pos="l" depth="1" NCoef="0" IVar="7" Cut="-7.5187738984823227e-03" cType="0" res="-9.9000000000000000e+01" rms="0.0000000000000000e+00" purity="5.0837761163711548e-01" nType="0">\n          <Node pos="l" depth="2" NCoef="0" IVar="-1" Cut="0.0000000000000000e+00" cType="1" res="-9.9000000000000000e+01" rms="0.0000000000000000e+00" purity="5.3305286169052124e-01" nType="1"/>\n          <Node pos="r" depth="2" NCoef="0" IVar="17" Cut="7.8457069396972656e-01" cType="1" res="-9.9000000000000000e+01" rms="0.0000000000000000e+00" purity="5.0629639625549316e-01" nType="0">\n            <Node pos="l" depth="3" NCoef="0" IVar="-1" Cut="0.0000000000000000e+00" cType="1" res="-9.9000000000000000e+01" rms="0.0000000000000000e+00" purity="5.0959879159927368e-01" nType="1"/>\n            <Node pos="r" depth="3" NCoef="0" IVar="-1" Cut="0.0000000000000000e+00" cType="1" res="-9.9000000000000000e+01" rms="0.0000000000000000e+00" purity="4.8395168781280518e-01" nType="-1"/>\n          </Node>\n        </Node>\n        <Node pos="r" depth="1" NCoef="0" IVar="3" Cut="1.5646259486675262e-01" cType="0" res="-9.9000000000000000e+01" rms="0.0000000000000000e+00" purity="4.9256077408790588e-01" nType="0">\n          <Node pos="l" depth="2" NCoef="0" IVar="-1" Cut="0.0000000000000000e+00" cType="1" res="-9.9000000000000000e+01" rms="0.0000000000000000e+00" purity="5.0509786605834961e-01" nType="1"/>\n          <Node pos="r" depth="2" NCoef="0" IVar="9" Cut="-3.2967023551464081e-02" cType="1" res="-9.9000000000000000e+01" rms="0.0000000000000000e+00" purity="4.8453119397163391e-01" nType="0">\n            <Node pos="l" depth="3" NCoef="0" IVar="-1" Cut="0.0000000000000000e+00" cType="1" res="-9.9000000000000000e+01" rms="0.0000000000000000e+00" purity="5.0194340944290161e-01" nType="1"/>\n            <Node pos="r" depth="3" NCoef="0" IVar="-1" Cut="0.0000000000000000e+00" cType="1" res="-9.9000000000000000e+01" rms="0.0000000000000000e+00" purity="4.6572127938270569e-01" nType="-1"/>\n          </Node>\n        </Node>\n      </Node>\n    </BinaryTree>\n  </Weights>\n</MethodSetup>\n'
p82
sb.