ccopy_reg
_reconstructor
p0
(crep.estimators.tmva
TMVAClassifier
p1
c__builtin__
object
p2
Ntp3
Rp4
(dp5
S'classes_'
p6
cnumpy.core.multiarray
_reconstruct
p7
(cnumpy
ndarray
p8
(I0
tp9
S'b'
p10
tp11
Rp12
(I1
(I2
tp13
cnumpy
dtype
p14
(S'i4'
p15
I0
I1
tp16
Rp17
(I3
S'<'
p18
NNNI-1
I-1
I0
tp19
bI00
S'\x00\x00\x00\x00\x01\x00\x00\x00'
p20
tp21
bsS'features'
p22
(lp23
S'Feature_0'
p24
aS'Feature_1'
p25
aS'Feature_2'
p26
aS'Feature_3'
p27
aS'Feature_4'
p28
aS'Feature_5'
p29
aS'Feature_6'
p30
aS'Feature_7'
p31
aS'Feature_8'
p32
aS'Feature_9'
p33
aS'Feature_10'
p34
aS'Feature_11'
p35
aS'Feature_12'
p36
aS'Feature_13'
p37
aS'Feature_14'
p38
aS'Feature_15'
p39
aS'Feature_16'
p40
aS'Feature_17'
p41
aS'Feature_18'
p42
aS'Feature_19'
p43
aS'Feature_20'
p44
aS'Feature_21'
p45
aS'Feature_22'
p46
aS'Feature_23'
p47
aS'Feature_24'
p48
aS'Feature_25'
p49
aS'Feature_26'
p50
aS'Feature_27'
p51
aS'Feature_28'
p52
aS'Feature_29'
p53
aS'Feature_30'
p54
aS'Feature_31'
p55
asS'n_classes_'
p56
I2
sS'sigmoid_function'
p57
S'bdt'
p58
sS'_method_name'
p59
S'REP_Estimator'
p60
sS'method_parameters'
p61
(dp62
S'VarTransform'
p63
S'Norm'
p64
sS'PruningValFraction'
p65
F0.3
sS'NTrees'
p66
I50
sS'PruneStrength'
p67
I-1
sS'H'
p68
S'false'
p69
sS'PruneMethod'
p70
S'CostComplexity'
p71
sS'MaxDepth'
p72
I3
sS'V'
p73
S'true'
p74
sS'BoostType'
p75
S'AdaBoost'
p76
ssS'factory_options'
p77
S'V:!Silent:!Color:!DrawProgressBar:AnalysisType=Classification:AnalysisType=Classification:AnalysisType=Classification:AnalysisType=Classification:AnalysisType=Classification:AnalysisType=Classification'
p78
sS'method'
p79
S'kBDT'
p80
sS'formula_xml'
p81
S'<?xml version="1.0"?>\n<MethodSetup Method="BDT::REP_Estimator">\n  <GeneralInfo>\n    <Info name="TMVA Release" value="4.2.0 [262656]"/>\n    <Info name="ROOT Release" value="5.34/32 [336416]"/>\n    <Info name="Creator" value="root"/>\n    <Info name="Date" value="Thu Feb 25 16:06:15 2016"/>\n    <Info name="Host" value="Linux localhost.localdomain 2.6.32-431.1.2.el6.x86_64 #1 SMP Thu Dec 12 13:59:19 CST 2013 x86_64 x86_64 x86_64 GNU/Linux"/>\n    <Info name="Dir" value="/notebooks/PID/sergey_korolev/tmpAxU83M"/>\n    <Info name="Training events" value="120000"/>\n    <Info name="TrainingTime" value="1.03545032e+01"/>\n    <Info name="AnalysisType" value="Classification"/>\n  </GeneralInfo>\n  <Options>\n    <Option name="V" modified="Yes">True</Option>\n    <Option name="VerbosityLevel" modified="No">Verbose</Option>\n    <Option name="VarTransform" modified="Yes">Norm</Option>\n    <Option name="H" modified="Yes">False</Option>\n    <Option name="CreateMVAPdfs" modified="No">False</Option>\n    <Option name="IgnoreNegWeightsInTraining" modified="No">False</Option>\n    <Option name="NTrees" modified="Yes">50</Option>\n    <Option name="MaxDepth" modified="Yes">3</Option>\n    <Option name="MinNodeSize" modified="No">5%</Option>\n    <Option name="nCuts" modified="No">20</Option>\n    <Option name="BoostType" modified="Yes">AdaBoost</Option>\n    <Option name="AdaBoostR2Loss" modified="No">quadratic</Option>\n    <Option name="UseBaggedBoost" modified="No">False</Option>\n    <Option name="Shrinkage" modified="No">1.000000e+00</Option>\n    <Option name="AdaBoostBeta" modified="No">5.000000e-01</Option>\n    <Option name="UseRandomisedTrees" modified="No">False</Option>\n    <Option name="UseNvars" modified="No">6</Option>\n    <Option name="UsePoissonNvars" modified="No">True</Option>\n    <Option name="BaggedSampleFraction" modified="No">6.000000e-01</Option>\n    <Option name="UseYesNoLeaf" modified="No">True</Option>\n    <Option name="NegWeightTreatment" modified="No">inverseboostnegweights</Option>\n    <Option name="Css" modified="No">1.000000e+00</Option>\n    <Option name="Cts_sb" modified="No">1.000000e+00</Option>\n    <Option name="Ctb_ss" modified="No">1.000000e+00</Option>\n    <Option name="Cbb" modified="No">1.000000e+00</Option>\n    <Option name="NodePurityLimit" modified="No">5.000000e-01</Option>\n    <Option name="SeparationType" modified="No">giniindex</Option>\n    <Option name="DoBoostMonitor" modified="No">False</Option>\n    <Option name="UseFisherCuts" modified="No">False</Option>\n    <Option name="MinLinCorrForFisher" modified="No">8.000000e-01</Option>\n    <Option name="UseExclusiveVars" modified="No">False</Option>\n    <Option name="DoPreselection" modified="No">False</Option>\n    <Option name="SigToBkgFraction" modified="No">1.000000e+00</Option>\n    <Option name="PruneMethod" modified="Yes">costcomplexity</Option>\n    <Option name="PruneStrength" modified="Yes">-1.000000e+00</Option>\n    <Option name="PruningValFraction" modified="Yes">3.000000e-01</Option>\n    <Option name="nEventsMin" modified="No">0</Option>\n    <Option name="UseBaggedGrad" modified="No">False</Option>\n    <Option name="GradBaggingFraction" modified="No">6.000000e-01</Option>\n    <Option name="UseNTrainEvents" modified="No">0</Option>\n    <Option name="NNodesMax" modified="No">0</Option>\n  </Options>\n  <Variables NVar="32">\n    <Variable VarIndex="0" Expression="Feature_0" Label="Feature_0" Title="Feature_0" Unit="" Internal="Feature_0" Type="F" Min="1.15967004e+03" Max="1.13558638e+06"/>\n    <Variable VarIndex="1" Expression="Feature_1" Label="Feature_1" Title="Feature_1" Unit="" Internal="Feature_1" Type="F" Min="6.90499830e+00" Max="6.83289922e+04"/>\n    <Variable VarIndex="2" Expression="Feature_2" Label="Feature_2" Title="Feature_2" Unit="" Internal="Feature_2" Type="F" Min="1.24249414e-01" Max="3.99916315e+00"/>\n    <Variable VarIndex="3" Expression="Feature_3" Label="Feature_3" Title="Feature_3" Unit="" Internal="Feature_3" Type="F" Min="7.00000000e+00" Max="4.90000000e+01"/>\n    <Variable VarIndex="4" Expression="Feature_4" Label="Feature_4" Title="Feature_4" Unit="" Internal="Feature_4" Type="F" Min="1.54159404e-03" Max="3.99982750e-01"/>\n    <Variable VarIndex="5" Expression="Feature_5" Label="Feature_5" Title="Feature_5" Unit="" Internal="Feature_5" Type="F" Min="9.10696853e-03" Max="1.20970528e+02"/>\n    <Variable VarIndex="6" Expression="Feature_6" Label="Feature_6" Title="Feature_6" Unit="" Internal="Feature_6" Type="F" Min="1.97511457e-04" Max="9.81467972e+01"/>\n    <Variable VarIndex="7" Expression="Feature_7" Label="Feature_7" Title="Feature_7" Unit="" Internal="Feature_7" Type="F" Min="1.00000000e+00" Max="2.00000000e+01"/>\n    <Variable VarIndex="8" Expression="Feature_8" Label="Feature_8" Title="Feature_8" Unit="" Internal="Feature_8" Type="F" Min="1.41289094e-02" Max="9.80159302e+01"/>\n    <Variable VarIndex="9" Expression="Feature_9" Label="Feature_9" Title="Feature_9" Unit="" Internal="Feature_9" Type="F" Min="1.00000000e+00" Max="2.70000000e+01"/>\n    <Variable VarIndex="10" Expression="Feature_10" Label="Feature_10" Title="Feature_10" Unit="" Internal="Feature_10" Type="F" Min="0.00000000e+00" Max="1.00000000e+00"/>\n    <Variable VarIndex="11" Expression="Feature_11" Label="Feature_11" Title="Feature_11" Unit="" Internal="Feature_11" Type="F" Min="0.00000000e+00" Max="1.00000000e+00"/>\n    <Variable VarIndex="12" Expression="Feature_12" Label="Feature_12" Title="Feature_12" Unit="" Internal="Feature_12" Type="F" Min="0.00000000e+00" Max="1.00000000e+00"/>\n    <Variable VarIndex="13" Expression="Feature_13" Label="Feature_13" Title="Feature_13" Unit="" Internal="Feature_13" Type="F" Min="0.00000000e+00" Max="1.00000000e+00"/>\n    <Variable VarIndex="14" Expression="Feature_14" Label="Feature_14" Title="Feature_14" Unit="" Internal="Feature_14" Type="F" Min="-9.99000000e+02" Max="1.31175797e+02"/>\n    <Variable VarIndex="15" Expression="Feature_15" Label="Feature_15" Title="Feature_15" Unit="" Internal="Feature_15" Type="F" Min="-9.99000000e+02" Max="1.24875801e+02"/>\n    <Variable VarIndex="16" Expression="Feature_16" Label="Feature_16" Title="Feature_16" Unit="" Internal="Feature_16" Type="F" Min="-9.99000000e+02" Max="1.58692993e+02"/>\n    <Variable VarIndex="17" Expression="Feature_17" Label="Feature_17" Title="Feature_17" Unit="" Internal="Feature_17" Type="F" Min="-9.99000000e+02" Max="1.29497803e+02"/>\n    <Variable VarIndex="18" Expression="Feature_18" Label="Feature_18" Title="Feature_18" Unit="" Internal="Feature_18" Type="F" Min="-9.99000000e+02" Max="7.35431976e+01"/>\n    <Variable VarIndex="19" Expression="Feature_19" Label="Feature_19" Title="Feature_19" Unit="" Internal="Feature_19" Type="F" Min="-9.99000000e+02" Max="9.60000046e-03"/>\n    <Variable VarIndex="20" Expression="Feature_20" Label="Feature_20" Title="Feature_20" Unit="" Internal="Feature_20" Type="F" Min="-9.99000000e+02" Max="0.00000000e+00"/>\n    <Variable VarIndex="21" Expression="Feature_21" Label="Feature_21" Title="Feature_21" Unit="" Internal="Feature_21" Type="F" Min="0.00000000e+00" Max="1.00000000e+00"/>\n    <Variable VarIndex="22" Expression="Feature_22" Label="Feature_22" Title="Feature_22" Unit="" Internal="Feature_22" Type="F" Min="0.00000000e+00" Max="3.30000000e+01"/>\n    <Variable VarIndex="23" Expression="Feature_23" Label="Feature_23" Title="Feature_23" Unit="" Internal="Feature_23" Type="F" Min="0.00000000e+00" Max="1.00000000e+00"/>\n    <Variable VarIndex="24" Expression="Feature_24" Label="Feature_24" Title="Feature_24" Unit="" Internal="Feature_24" Type="F" Min="0.00000000e+00" Max="1.00000000e+00"/>\n    <Variable VarIndex="25" Expression="Feature_25" Label="Feature_25" Title="Feature_25" Unit="" Internal="Feature_25" Type="F" Min="-9.99000000e+02" Max="4.05479050e+00"/>\n    <Variable VarIndex="26" Expression="Feature_26" Label="Feature_26" Title="Feature_26" Unit="" Internal="Feature_26" Type="F" Min="-9.99000000e+02" Max="2.15297604e+00"/>\n    <Variable VarIndex="27" Expression="Feature_27" Label="Feature_27" Title="Feature_27" Unit="" Internal="Feature_27" Type="F" Min="-9.99000000e+02" Max="2.72250462e+00"/>\n    <Variable VarIndex="28" Expression="Feature_28" Label="Feature_28" Title="Feature_28" Unit="" Internal="Feature_28" Type="F" Min="-9.99000000e+02" Max="2.87338901e+00"/>\n    <Variable VarIndex="29" Expression="Feature_29" Label="Feature_29" Title="Feature_29" Unit="" Internal="Feature_29" Type="F" Min="-9.99000000e+02" Max="3.39547467e+00"/>\n    <Variable VarIndex="30" Expression="Feature_30" Label="Feature_30" Title="Feature_30" Unit="" Internal="Feature_30" Type="F" Min="0.00000000e+00" Max="1.00000000e+00"/>\n    <Variable VarIndex="31" Expression="Feature_31" Label="Feature_31" Title="Feature_31" Unit="" Internal="Feature_31" Type="F" Min="-9.99000000e+02" Max="4.79148388e+00"/>\n  </Variables>\n  <Spectators NSpec="0"/>\n  <Classes NClass="2">\n    <Class Name="Signal" Index="0"/>\n    <Class Name="Background" Index="1"/>\n  </Classes>\n  <Transformations NTransformations="1">\n    <Transform Name="Normalize">\n      <Selection>\n        <Input NInputs="32">\n          <Input Type="Variable" Label="Feature_0" Expression="Feature_0"/>\n          <Input Type="Variable" Label="Feature_1" Expression="Feature_1"/>\n          <Input Type="Variable" Label="Feature_2" Expression="Feature_2"/>\n          <Input Type="Variable" Label="Feature_3" Expression="Feature_3"/>\n          <Input Type="Variable" Label="Feature_4" Expression="Feature_4"/>\n          <Input Type="Variable" Label="Feature_5" Expression="Feature_5"/>\n          <Input Type="Variable" Label="Feature_6" Expression="Feature_6"/>\n          <Input Type="Variable" Label="Feature_7" Expression="Feature_7"/>\n          <Input Type="Variable" Label="Feature_8" Expression="Feature_8"/>\n          <Input Type="Variable" Label="Feature_9" Expression="Feature_9"/>\n          <Input Type="Variable" Label="Feature_10" Expression="Feature_10"/>\n          <Input Type="Variable" Label="Feature_11" Expression="Feature_11"/>\n          <Input Type="Variable" Label="Feature_12" Expression="Feature_12"/>\n          <Input Type="Variable" Label="Feature_13" Expression="Feature_13"/>\n          <Input Type="Variable" Label="Feature_14" Expression="Feature_14"/>\n          <Input Type="Variable" Label="Feature_15" Expression="Feature_15"/>\n          <Input Type="Variable" Label="Feature_16" Expression="Feature_16"/>\n          <Input Type="Variable" Label="Feature_17" Expression="Feature_17"/>\n          <Input Type="Variable" Label="Feature_18" Expression="Feature_18"/>\n          <Input Type="Variable" Label="Feature_19" Expression="Feature_19"/>\n          <Input Type="Variable" Label="Feature_20" Expression="Feature_20"/>\n          <Input Type="Variable" Label="Feature_21" Expression="Feature_21"/>\n          <Input Type="Variable" Label="Feature_22" Expression="Feature_22"/>\n          <Input Type="Variable" Label="Feature_23" Expression="Feature_23"/>\n          <Input Type="Variable" Label="Feature_24" Expression="Feature_24"/>\n          <Input Type="Variable" Label="Feature_25" Expression="Feature_25"/>\n          <Input Type="Variable" Label="Feature_26" Expression="Feature_26"/>\n          <Input Type="Variable" Label="Feature_27" Expression="Feature_27"/>\n          <Input Type="Variable" Label="Feature_28" Expression="Feature_28"/>\n          <Input Type="Variable" Label="Feature_29" Expression="Feature_29"/>\n          <Input Type="Variable" Label="Feature_30" Expression="Feature_30"/>\n          <Input Type="Variable" Label="Feature_31" Expression="Feature_31"/>\n        </Input>\n        <Output NOutputs="32">\n          <Output Type="Variable" Label="Feature_0" Expression="Feature_0"/>\n          <Output Type="Variable" Label="Feature_1" Expression="Feature_1"/>\n          <Output Type="Variable" Label="Feature_2" Expression="Feature_2"/>\n          <Output Type="Variable" Label="Feature_3" Expression="Feature_3"/>\n          <Output Type="Variable" Label="Feature_4" Expression="Feature_4"/>\n          <Output Type="Variable" Label="Feature_5" Expression="Feature_5"/>\n          <Output Type="Variable" Label="Feature_6" Expression="Feature_6"/>\n          <Output Type="Variable" Label="Feature_7" Expression="Feature_7"/>\n          <Output Type="Variable" Label="Feature_8" Expression="Feature_8"/>\n          <Output Type="Variable" Label="Feature_9" Expression="Feature_9"/>\n          <Output Type="Variable" Label="Feature_10" Expression="Feature_10"/>\n          <Output Type="Variable" Label="Feature_11" Expression="Feature_11"/>\n          <Output Type="Variable" Label="Feature_12" Expression="Feature_12"/>\n          <Output Type="Variable" Label="Feature_13" Expression="Feature_13"/>\n          <Output Type="Variable" Label="Feature_14" Expression="Feature_14"/>\n          <Output Type="Variable" Label="Feature_15" Expression="Feature_15"/>\n          <Output Type="Variable" Label="Feature_16" Expression="Feature_16"/>\n          <Output Type="Variable" Label="Feature_17" Expression="Feature_17"/>\n          <Output Type="Variable" Label="Feature_18" Expression="Feature_18"/>\n          <Output Type="Variable" Label="Feature_19" Expression="Feature_19"/>\n          <Output Type="Variable" Label="Feature_20" Expression="Feature_20"/>\n          <Output Type="Variable" Label="Feature_21" Expression="Feature_21"/>\n          <Output Type="Variable" Label="Feature_22" Expression="Feature_22"/>\n          <Output Type="Variable" Label="Feature_23" Expression="Feature_23"/>\n          <Output Type="Variable" Label="Feature_24" Expression="Feature_24"/>\n          <Output Type="Variable" Label="Feature_25" Expression="Feature_25"/>\n          <Output Type="Variable" Label="Feature_26" Expression="Feature_26"/>\n          <Output Type="Variable" Label="Feature_27" Expression="Feature_27"/>\n          <Output Type="Variable" Label="Feature_28" Expression="Feature_28"/>\n          <Output Type="Variable" Label="Feature_29" Expression="Feature_29"/>\n          <Output Type="Variable" Label="Feature_30" Expression="Feature_30"/>\n          <Output Type="Variable" Label="Feature_31" Expression="Feature_31"/>\n        </Output>\n      </Selection>\n      <Class ClassIndex="0">\n        <Ranges>\n          <Range Index="0" Min="1.3287299804687500e+03" Max="2.8219287500000000e+05"/>\n          <Range Index="1" Min="3.4529228210449219e+01" Max="4.4982177734375000e+03"/>\n          <Range Index="2" Min="3.7122291326522827e-01" Max="3.8233397006988525e+00"/>\n          <Range Index="3" Min="1.2000000000000000e+01" Max="4.1000000000000000e+01"/>\n          <Range Index="4" Min="1.8138879677280784e-03" Max="3.7993806600570679e-01"/>\n          <Range Index="5" Min="2.7206385135650635e-01" Max="9.4411582946777344e+01"/>\n          <Range Index="6" Min="5.3027335554361343e-02" Max="3.0402542114257812e+01"/>\n          <Range Index="7" Min="1.0000000000000000e+00" Max="1.5000000000000000e+01"/>\n          <Range Index="8" Min="7.0395815372467041e-01" Max="8.0439865112304688e+01"/>\n          <Range Index="9" Min="2.0000000000000000e+00" Max="2.5000000000000000e+01"/>\n          <Range Index="10" Min="0.0000000000000000e+00" Max="1.0000000000000000e+00"/>\n          <Range Index="11" Min="0.0000000000000000e+00" Max="1.0000000000000000e+00"/>\n          <Range Index="12" Min="0.0000000000000000e+00" Max="1.0000000000000000e+00"/>\n          <Range Index="13" Min="0.0000000000000000e+00" Max="1.0000000000000000e+00"/>\n          <Range Index="14" Min="-9.9900000000000000e+02" Max="1.3117579650878906e+02"/>\n          <Range Index="15" Min="-9.9900000000000000e+02" Max="5.0277999877929688e+01"/>\n          <Range Index="16" Min="-9.9900000000000000e+02" Max="6.1403598785400391e+01"/>\n          <Range Index="17" Min="-9.9900000000000000e+02" Max="3.9107601165771484e+01"/>\n          <Range Index="18" Min="-9.9900000000000000e+02" Max="3.9107601165771484e+01"/>\n          <Range Index="19" Min="-9.9900000000000000e+02" Max="-4.6999999321997166e-03"/>\n          <Range Index="20" Min="-9.9900000000000000e+02" Max="0.0000000000000000e+00"/>\n          <Range Index="21" Min="0.0000000000000000e+00" Max="1.0000000000000000e+00"/>\n          <Range Index="22" Min="0.0000000000000000e+00" Max="1.7000000000000000e+01"/>\n          <Range Index="23" Min="0.0000000000000000e+00" Max="1.0000000000000000e+00"/>\n          <Range Index="24" Min="0.0000000000000000e+00" Max="1.0000000000000000e+00"/>\n          <Range Index="25" Min="-9.9900000000000000e+02" Max="4.0547904968261719e+00"/>\n          <Range Index="26" Min="-9.9900000000000000e+02" Max="1.0518795251846313e+00"/>\n          <Range Index="27" Min="-9.9900000000000000e+02" Max="2.1258347034454346e+00"/>\n          <Range Index="28" Min="-9.9900000000000000e+02" Max="2.8733890056610107e+00"/>\n          <Range Index="29" Min="-9.9900000000000000e+02" Max="3.3360030651092529e+00"/>\n          <Range Index="30" Min="0.0000000000000000e+00" Max="1.0000000000000000e+00"/>\n          <Range Index="31" Min="-9.9900000000000000e+02" Max="4.7914838790893555e+00"/>\n        </Ranges>\n      </Class>\n      <Class ClassIndex="1">\n        <Ranges>\n          <Range Index="0" Min="1.1596700439453125e+03" Max="1.1355863750000000e+06"/>\n          <Range Index="1" Min="6.9049983024597168e+00" Max="6.8328992187500000e+04"/>\n          <Range Index="2" Min="1.2424941360950470e-01" Max="3.9991631507873535e+00"/>\n          <Range Index="3" Min="7.0000000000000000e+00" Max="4.9000000000000000e+01"/>\n          <Range Index="4" Min="1.5415940433740616e-03" Max="3.9998275041580200e-01"/>\n          <Range Index="5" Min="9.1069685295224190e-03" Max="1.2097052764892578e+02"/>\n          <Range Index="6" Min="1.9751145737245679e-04" Max="9.8146797180175781e+01"/>\n          <Range Index="7" Min="1.0000000000000000e+00" Max="2.0000000000000000e+01"/>\n          <Range Index="8" Min="1.4128909446299076e-02" Max="9.8015930175781250e+01"/>\n          <Range Index="9" Min="1.0000000000000000e+00" Max="2.7000000000000000e+01"/>\n          <Range Index="10" Min="0.0000000000000000e+00" Max="1.0000000000000000e+00"/>\n          <Range Index="11" Min="0.0000000000000000e+00" Max="1.0000000000000000e+00"/>\n          <Range Index="12" Min="0.0000000000000000e+00" Max="1.0000000000000000e+00"/>\n          <Range Index="13" Min="0.0000000000000000e+00" Max="1.0000000000000000e+00"/>\n          <Range Index="14" Min="-9.9900000000000000e+02" Max="1.0919640350341797e+02"/>\n          <Range Index="15" Min="-9.9900000000000000e+02" Max="1.2487580108642578e+02"/>\n          <Range Index="16" Min="-9.9900000000000000e+02" Max="1.5869299316406250e+02"/>\n          <Range Index="17" Min="-9.9900000000000000e+02" Max="1.2949780273437500e+02"/>\n          <Range Index="18" Min="-9.9900000000000000e+02" Max="7.3543197631835938e+01"/>\n          <Range Index="19" Min="-9.9900000000000000e+02" Max="9.6000004559755325e-03"/>\n          <Range Index="20" Min="-9.9900000000000000e+02" Max="0.0000000000000000e+00"/>\n          <Range Index="21" Min="0.0000000000000000e+00" Max="1.0000000000000000e+00"/>\n          <Range Index="22" Min="0.0000000000000000e+00" Max="3.3000000000000000e+01"/>\n          <Range Index="23" Min="0.0000000000000000e+00" Max="1.0000000000000000e+00"/>\n          <Range Index="24" Min="0.0000000000000000e+00" Max="1.0000000000000000e+00"/>\n          <Range Index="25" Min="-9.9900000000000000e+02" Max="4.0547904968261719e+00"/>\n          <Range Index="26" Min="-9.9900000000000000e+02" Max="2.1529760360717773e+00"/>\n          <Range Index="27" Min="-9.9900000000000000e+02" Max="2.7225046157836914e+00"/>\n          <Range Index="28" Min="-9.9900000000000000e+02" Max="2.8733890056610107e+00"/>\n          <Range Index="29" Min="-9.9900000000000000e+02" Max="3.3954746723175049e+00"/>\n          <Range Index="30" Min="0.0000000000000000e+00" Max="1.0000000000000000e+00"/>\n          <Range Index="31" Min="-9.9900000000000000e+02" Max="4.7914838790893555e+00"/>\n        </Ranges>\n      </Class>\n      <Class ClassIndex="2">\n        <Ranges>\n          <Range Index="0" Min="1.1596700439453125e+03" Max="1.1355863750000000e+06"/>\n          <Range Index="1" Min="6.9049983024597168e+00" Max="6.8328992187500000e+04"/>\n          <Range Index="2" Min="1.2424941360950470e-01" Max="3.9991631507873535e+00"/>\n          <Range Index="3" Min="7.0000000000000000e+00" Max="4.9000000000000000e+01"/>\n          <Range Index="4" Min="1.5415940433740616e-03" Max="3.9998275041580200e-01"/>\n          <Range Index="5" Min="9.1069685295224190e-03" Max="1.2097052764892578e+02"/>\n          <Range Index="6" Min="1.9751145737245679e-04" Max="9.8146797180175781e+01"/>\n          <Range Index="7" Min="1.0000000000000000e+00" Max="2.0000000000000000e+01"/>\n          <Range Index="8" Min="1.4128909446299076e-02" Max="9.8015930175781250e+01"/>\n          <Range Index="9" Min="1.0000000000000000e+00" Max="2.7000000000000000e+01"/>\n          <Range Index="10" Min="0.0000000000000000e+00" Max="1.0000000000000000e+00"/>\n          <Range Index="11" Min="0.0000000000000000e+00" Max="1.0000000000000000e+00"/>\n          <Range Index="12" Min="0.0000000000000000e+00" Max="1.0000000000000000e+00"/>\n          <Range Index="13" Min="0.0000000000000000e+00" Max="1.0000000000000000e+00"/>\n          <Range Index="14" Min="-9.9900000000000000e+02" Max="1.3117579650878906e+02"/>\n          <Range Index="15" Min="-9.9900000000000000e+02" Max="1.2487580108642578e+02"/>\n          <Range Index="16" Min="-9.9900000000000000e+02" Max="1.5869299316406250e+02"/>\n          <Range Index="17" Min="-9.9900000000000000e+02" Max="1.2949780273437500e+02"/>\n          <Range Index="18" Min="-9.9900000000000000e+02" Max="7.3543197631835938e+01"/>\n          <Range Index="19" Min="-9.9900000000000000e+02" Max="9.6000004559755325e-03"/>\n          <Range Index="20" Min="-9.9900000000000000e+02" Max="0.0000000000000000e+00"/>\n          <Range Index="21" Min="0.0000000000000000e+00" Max="1.0000000000000000e+00"/>\n          <Range Index="22" Min="0.0000000000000000e+00" Max="3.3000000000000000e+01"/>\n          <Range Index="23" Min="0.0000000000000000e+00" Max="1.0000000000000000e+00"/>\n          <Range Index="24" Min="0.0000000000000000e+00" Max="1.0000000000000000e+00"/>\n          <Range Index="25" Min="-9.9900000000000000e+02" Max="4.0547904968261719e+00"/>\n          <Range Index="26" Min="-9.9900000000000000e+02" Max="2.1529760360717773e+00"/>\n          <Range Index="27" Min="-9.9900000000000000e+02" Max="2.7225046157836914e+00"/>\n          <Range Index="28" Min="-9.9900000000000000e+02" Max="2.8733890056610107e+00"/>\n          <Range Index="29" Min="-9.9900000000000000e+02" Max="3.3954746723175049e+00"/>\n          <Range Index="30" Min="0.0000000000000000e+00" Max="1.0000000000000000e+00"/>\n          <Range Index="31" Min="-9.9900000000000000e+02" Max="4.7914838790893555e+00"/>\n        </Ranges>\n      </Class>\n    </Transform>\n  </Transformations>\n  <MVAPdfs/>\n  <Weights NTrees="50" AnalysisType="0">\n    <BinaryTree type="DecisionTree" boostWeight="7.3978315831873998e-01" itree="0">\n      <Node pos="s" depth="0" NCoef="0" IVar="16" Cut="7.1428573131561279e-01" cType="0" res="-9.9000000000000000e+01" rms="0.0000000000000000e+00" purity="5.0000000000000000e-01" nType="0">\n        <Node pos="l" depth="1" NCoef="0" IVar="14" Cut="7.6524174213409424e-01" cType="0" res="-9.9000000000000000e+01" rms="0.0000000000000000e+00" purity="5.7778781652450562e-01" nType="0">\n          <Node pos="l" depth="2" NCoef="0" IVar="13" Cut="-9.0476191043853760e-01" cType="1" res="-9.9000000000000000e+01" rms="0.0000000000000000e+00" purity="7.9795181751251221e-01" nType="0">\n            <Node pos="l" depth="3" NCoef="0" IVar="-1" Cut="0.0000000000000000e+00" cType="1" res="-9.9000000000000000e+01" rms="0.0000000000000000e+00" purity="8.7816059589385986e-01" nType="1"/>\n            <Node pos="r" depth="3" NCoef="0" IVar="-1" Cut="0.0000000000000000e+00" cType="1" res="-9.9000000000000000e+01" rms="0.0000000000000000e+00" purity="4.9005514383316040e-01" nType="-1"/>\n          </Node>\n          <Node pos="r" depth="2" NCoef="0" IVar="-1" Cut="7.5182688236236572e-01" cType="0" res="-9.9000000000000000e+01" rms="0.0000000000000000e+00" purity="9.9920690059661865e-02" nType="-1"/>\n        </Node>\n        <Node pos="r" depth="1" NCoef="0" IVar="14" Cut="7.2776389122009277e-01" cType="0" res="-9.9000000000000000e+01" rms="0.0000000000000000e+00" purity="3.6965748667716980e-01" nType="0">\n          <Node pos="l" depth="2" NCoef="0" IVar="14" Cut="7.6240599155426025e-01" cType="0" res="-9.9000000000000000e+01" rms="0.0000000000000000e+00" purity="4.4704177975654602e-01" nType="0">\n            <Node pos="l" depth="3" NCoef="0" IVar="-1" Cut="0.0000000000000000e+00" cType="1" res="-9.9000000000000000e+01" rms="0.0000000000000000e+00" purity="6.8949782848358154e-01" nType="1"/>\n            <Node pos="r" depth="3" NCoef="0" IVar="-1" Cut="0.0000000000000000e+00" cType="1" res="-9.9000000000000000e+01" rms="0.0000000000000000e+00" purity="6.0268871486186981e-02" nType="-1"/>\n          </Node>\n          <Node pos="r" depth="2" NCoef="0" IVar="14" Cut="6.4548081159591675e-01" cType="1" res="-9.9000000000000000e+01" rms="0.0000000000000000e+00" purity="2.5043982267379761e-01" nType="0">\n            <Node pos="l" depth="3" NCoef="0" IVar="-1" Cut="0.0000000000000000e+00" cType="1" res="-9.9000000000000000e+01" rms="0.0000000000000000e+00" purity="5.3353750705718994e-01" nType="1"/>\n            <Node pos="r" depth="3" NCoef="0" IVar="-1" Cut="0.0000000000000000e+00" cType="1" res="-9.9000000000000000e+01" rms="0.0000000000000000e+00" purity="1.6340486705303192e-02" nType="-1"/>\n          </Node>\n        </Node>\n      </Node>\n    </BinaryTree>\n    <BinaryTree type="DecisionTree" boostWeight="5.2190518857133139e-01" itree="1">\n      <Node pos="s" depth="0" NCoef="0" IVar="16" Cut="7.1428573131561279e-01" cType="0" res="-9.9000000000000000e+01" rms="0.0000000000000000e+00" purity="4.7905042767524719e-01" nType="0">\n        <Node pos="l" depth="1" NCoef="0" IVar="14" Cut="7.6524174213409424e-01" cType="0" res="-9.9000000000000000e+01" rms="0.0000000000000000e+00" purity="5.8181309700012207e-01" nType="0">\n          <Node pos="l" depth="2" NCoef="0" IVar="-1" Cut="-9.0476191043853760e-01" cType="0" res="-9.9000000000000000e+01" rms="0.0000000000000000e+00" purity="7.4693697690963745e-01" nType="1"/>\n          <Node pos="r" depth="2" NCoef="0" IVar="-1" Cut="7.5182688236236572e-01" cType="0" res="-9.9000000000000000e+01" rms="0.0000000000000000e+00" purity="1.8872395157814026e-01" nType="-1"/>\n        </Node>\n        <Node pos="r" depth="1" NCoef="0" IVar="14" Cut="7.2776389122009277e-01" cType="0" res="-9.9000000000000000e+01" rms="0.0000000000000000e+00" purity="3.1439512968063354e-01" nType="0">\n          <Node pos="l" depth="2" NCoef="0" IVar="14" Cut="7.6240599155426025e-01" cType="0" res="-9.9000000000000000e+01" rms="0.0000000000000000e+00" purity="3.8272458314895630e-01" nType="0">\n            <Node pos="l" depth="3" NCoef="0" IVar="-1" Cut="0.0000000000000000e+00" cType="1" res="-9.9000000000000000e+01" rms="0.0000000000000000e+00" purity="5.1449334621429443e-01" nType="1"/>\n            <Node pos="r" depth="3" NCoef="0" IVar="-1" Cut="0.0000000000000000e+00" cType="1" res="-9.9000000000000000e+01" rms="0.0000000000000000e+00" purity="1.1847046017646790e-01" nType="-1"/>\n          </Node>\n          <Node pos="r" depth="2" NCoef="0" IVar="-1" Cut="6.3265192508697510e-01" cType="1" res="-9.9000000000000000e+01" rms="0.0000000000000000e+00" purity="2.0968461036682129e-01" nType="-1"/>\n        </Node>\n      </Node>\n    </BinaryTree>\n    <BinaryTree type="DecisionTree" boostWeight="4.5253035627638172e-01" itree="2">\n      <Node pos="s" depth="0" NCoef="0" IVar="16" Cut="7.1428573131561279e-01" cType="0" res="-9.9000000000000000e+01" rms="0.0000000000000000e+00" purity="4.5032879710197449e-01" nType="0">\n        <Node pos="l" depth="1" NCoef="0" IVar="14" Cut="7.4959117174148560e-01" cType="0" res="-9.9000000000000000e+01" rms="0.0000000000000000e+00" purity="5.3437179327011108e-01" nType="0">\n          <Node pos="l" depth="2" NCoef="0" IVar="14" Cut="7.7344238758087158e-01" cType="0" res="-9.9000000000000000e+01" rms="0.0000000000000000e+00" purity="5.9892630577087402e-01" nType="0">\n            <Node pos="l" depth="3" NCoef="0" IVar="-1" Cut="0.0000000000000000e+00" cType="1" res="-9.9000000000000000e+01" rms="0.0000000000000000e+00" purity="7.7936077117919922e-01" nType="1"/>\n            <Node pos="r" depth="3" NCoef="0" IVar="-1" Cut="0.0000000000000000e+00" cType="1" res="-9.9000000000000000e+01" rms="0.0000000000000000e+00" purity="3.9512196183204651e-01" nType="-1"/>\n          </Node>\n          <Node pos="r" depth="2" NCoef="0" IVar="-1" Cut="0.0000000000000000e+00" cType="1" res="-9.9000000000000000e+01" rms="0.0000000000000000e+00" purity="4.6273961663246155e-02" nType="-1"/>\n        </Node>\n        <Node pos="r" depth="1" NCoef="0" IVar="18" Cut="7.3261672258377075e-01" cType="1" res="-9.9000000000000000e+01" rms="0.0000000000000000e+00" purity="3.2091495394706726e-01" nType="0">\n          <Node pos="l" depth="2" NCoef="0" IVar="-1" Cut="0.0000000000000000e+00" cType="1" res="-9.9000000000000000e+01" rms="0.0000000000000000e+00" purity="5.2149111032485962e-01" nType="1"/>\n          <Node pos="r" depth="2" NCoef="0" IVar="-1" Cut="7.5793075561523438e-01" cType="0" res="-9.9000000000000000e+01" rms="0.0000000000000000e+00" purity="2.6608201861381531e-01" nType="-1"/>\n        </Node>\n      </Node>\n    </BinaryTree>\n    <BinaryTree type="DecisionTree" boostWeight="3.3127534200302045e-01" itree="3">\n      <Node pos="s" depth="0" NCoef="0" IVar="16" Cut="7.1428573131561279e-01" cType="0" res="-9.9000000000000000e+01" rms="0.0000000000000000e+00" purity="4.7744905948638916e-01" nType="0">\n        <Node pos="l" depth="1" NCoef="0" IVar="14" Cut="7.4959117174148560e-01" cType="0" res="-9.9000000000000000e+01" rms="0.0000000000000000e+00" purity="5.4604882001876831e-01" nType="0">\n          <Node pos="l" depth="2" NCoef="0" IVar="16" Cut="7.5510472059249878e-01" cType="1" res="-9.9000000000000000e+01" rms="0.0000000000000000e+00" purity="6.0103625059127808e-01" nType="0">\n            <Node pos="l" depth="3" NCoef="0" IVar="-1" Cut="0.0000000000000000e+00" cType="1" res="-9.9000000000000000e+01" rms="0.0000000000000000e+00" purity="6.3534891605377197e-01" nType="1"/>\n            <Node pos="r" depth="3" NCoef="0" IVar="-1" Cut="0.0000000000000000e+00" cType="1" res="-9.9000000000000000e+01" rms="0.0000000000000000e+00" purity="3.1683346629142761e-01" nType="-1"/>\n          </Node>\n          <Node pos="r" depth="2" NCoef="0" IVar="-1" Cut="0.0000000000000000e+00" cType="1" res="-9.9000000000000000e+01" rms="0.0000000000000000e+00" purity="7.0878870785236359e-02" nType="-1"/>\n        </Node>\n        <Node pos="r" depth="1" NCoef="0" IVar="14" Cut="7.2776389122009277e-01" cType="0" res="-9.9000000000000000e+01" rms="0.0000000000000000e+00" purity="3.7381884455680847e-01" nType="0">\n          <Node pos="l" depth="2" NCoef="0" IVar="15" Cut="7.7751296758651733e-01" cType="0" res="-9.9000000000000000e+01" rms="0.0000000000000000e+00" purity="4.2794221639633179e-01" nType="0">\n            <Node pos="l" depth="3" NCoef="0" IVar="-1" Cut="0.0000000000000000e+00" cType="1" res="-9.9000000000000000e+01" rms="0.0000000000000000e+00" purity="5.2244251966476440e-01" nType="1"/>\n            <Node pos="r" depth="3" NCoef="0" IVar="-1" Cut="0.0000000000000000e+00" cType="1" res="-9.9000000000000000e+01" rms="0.0000000000000000e+00" purity="2.7451989054679871e-01" nType="-1"/>\n          </Node>\n          <Node pos="r" depth="2" NCoef="0" IVar="-1" Cut="6.3265192508697510e-01" cType="1" res="-9.9000000000000000e+01" rms="0.0000000000000000e+00" purity="2.7969658374786377e-01" nType="-1"/>\n        </Node>\n      </Node>\n    </BinaryTree>\n    <BinaryTree type="DecisionTree" boostWeight="1.6830067574716912e-01" itree="4">\n      <Node pos="s" depth="0" NCoef="0" IVar="4" Cut="-3.3313748240470886e-01" cType="1" res="-9.9000000000000000e+01" rms="0.0000000000000000e+00" purity="4.5234897732734680e-01" nType="0">\n        <Node pos="l" depth="1" NCoef="0" IVar="4" Cut="-9.0448492765426636e-01" cType="0" res="-9.9000000000000000e+01" rms="0.0000000000000000e+00" purity="4.7675240039825439e-01" nType="0">\n          <Node pos="l" depth="2" NCoef="0" IVar="8" Cut="-6.0142606496810913e-01" cType="0" res="-9.9000000000000000e+01" rms="0.0000000000000000e+00" purity="5.6103342771530151e-01" nType="0">\n            <Node pos="l" depth="3" NCoef="0" IVar="-1" Cut="0.0000000000000000e+00" cType="1" res="-9.9000000000000000e+01" rms="0.0000000000000000e+00" purity="6.5366894006729126e-01" nType="1"/>\n            <Node pos="r" depth="3" NCoef="0" IVar="-1" Cut="0.0000000000000000e+00" cType="1" res="-9.9000000000000000e+01" rms="0.0000000000000000e+00" purity="4.9812254309654236e-01" nType="-1"/>\n          </Node>\n          <Node pos="r" depth="2" NCoef="0" IVar="-1" Cut="7.1428573131561279e-01" cType="0" res="-9.9000000000000000e+01" rms="0.0000000000000000e+00" purity="4.3481844663619995e-01" nType="-1"/>\n        </Node>\n        <Node pos="r" depth="1" NCoef="0" IVar="-1" Cut="-7.7097468078136444e-02" cType="0" res="-9.9000000000000000e+01" rms="0.0000000000000000e+00" purity="2.9630094766616821e-01" nType="-1"/>\n      </Node>\n    </BinaryTree>\n    <BinaryTree type="DecisionTree" boostWeight="2.2385168396711480e-01" itree="5">\n      <Node pos="s" depth="0" NCoef="0" IVar="4" Cut="1.4298304915428162e-01" cType="1" res="-9.9000000000000000e+01" rms="0.0000000000000000e+00" purity="4.8435050249099731e-01" nType="0">\n        <Node pos="l" depth="1" NCoef="0" IVar="16" Cut="7.1428573131561279e-01" cType="0" res="-9.9000000000000000e+01" rms="0.0000000000000000e+00" purity="5.0075417757034302e-01" nType="0">\n          <Node pos="l" depth="2" NCoef="0" IVar="14" Cut="7.4959117174148560e-01" cType="0" res="-9.9000000000000000e+01" rms="0.0000000000000000e+00" purity="5.5033493041992188e-01" nType="0">\n            <Node pos="l" depth="3" NCoef="0" IVar="-1" Cut="0.0000000000000000e+00" cType="1" res="-9.9000000000000000e+01" rms="0.0000000000000000e+00" purity="5.9421396255493164e-01" nType="1"/>\n            <Node pos="r" depth="3" NCoef="0" IVar="-1" Cut="0.0000000000000000e+00" cType="1" res="-9.9000000000000000e+01" rms="0.0000000000000000e+00" purity="1.1756315827369690e-01" nType="-1"/>\n          </Node>\n          <Node pos="r" depth="2" NCoef="0" IVar="-1" Cut="-4.2857143282890320e-01" cType="1" res="-9.9000000000000000e+01" rms="0.0000000000000000e+00" purity="4.2843812704086304e-01" nType="-1"/>\n        </Node>\n        <Node pos="r" depth="1" NCoef="0" IVar="-1" Cut="0.0000000000000000e+00" cType="1" res="-9.9000000000000000e+01" rms="0.0000000000000000e+00" purity="2.6466000080108643e-01" nType="-1"/>\n      </Node>\n    </BinaryTree>\n    <BinaryTree type="DecisionTree" boostWeight="3.7692594284606135e-01" itree="6">\n      <Node pos="s" depth="0" NCoef="0" IVar="4" Cut="-3.3313748240470886e-01" cType="1" res="-9.9000000000000000e+01" rms="0.0000000000000000e+00" purity="4.8381757736206055e-01" nType="0">\n        <Node pos="l" depth="1" NCoef="0" IVar="12" Cut="-9.0476191043853760e-01" cType="1" res="-9.9000000000000000e+01" rms="0.0000000000000000e+00" purity="5.0489997863769531e-01" nType="0">\n          <Node pos="l" depth="2" NCoef="0" IVar="-1" Cut="0.0000000000000000e+00" cType="1" res="-9.9000000000000000e+01" rms="0.0000000000000000e+00" purity="6.9096755981445312e-01" nType="1"/>\n          <Node pos="r" depth="2" NCoef="0" IVar="14" Cut="7.7170634269714355e-01" cType="0" res="-9.9000000000000000e+01" rms="0.0000000000000000e+00" purity="4.8209151625633240e-01" nType="0">\n            <Node pos="l" depth="3" NCoef="0" IVar="-1" Cut="0.0000000000000000e+00" cType="1" res="-9.9000000000000000e+01" rms="0.0000000000000000e+00" purity="7.0135951042175293e-01" nType="1"/>\n            <Node pos="r" depth="3" NCoef="0" IVar="-1" Cut="0.0000000000000000e+00" cType="1" res="-9.9000000000000000e+01" rms="0.0000000000000000e+00" purity="3.3040949702262878e-01" nType="-1"/>\n          </Node>\n        </Node>\n        <Node pos="r" depth="1" NCoef="0" IVar="-1" Cut="-7.7097468078136444e-02" cType="0" res="-9.9000000000000000e+01" rms="0.0000000000000000e+00" purity="3.4319058060646057e-01" nType="-1"/>\n      </Node>\n    </BinaryTree>\n    <BinaryTree type="DecisionTree" boostWeight="1.7791629390802338e-01" itree="7">\n      <Node pos="s" depth="0" NCoef="0" IVar="21" Cut="-9.0476191043853760e-01" cType="1" res="-9.9000000000000000e+01" rms="0.0000000000000000e+00" purity="5.0027906894683838e-01" nType="0">\n        <Node pos="l" depth="1" NCoef="0" IVar="14" Cut="7.1428573131561279e-01" cType="0" res="-9.9000000000000000e+01" rms="0.0000000000000000e+00" purity="5.1284974813461304e-01" nType="0">\n          <Node pos="l" depth="2" NCoef="0" IVar="14" Cut="7.5510257482528687e-01" cType="0" res="-9.9000000000000000e+01" rms="0.0000000000000000e+00" purity="5.3003919124603271e-01" nType="0">\n            <Node pos="l" depth="3" NCoef="0" IVar="-1" Cut="0.0000000000000000e+00" cType="1" res="-9.9000000000000000e+01" rms="0.0000000000000000e+00" purity="5.6166666746139526e-01" nType="1"/>\n            <Node pos="r" depth="3" NCoef="0" IVar="-1" Cut="0.0000000000000000e+00" cType="1" res="-9.9000000000000000e+01" rms="0.0000000000000000e+00" purity="3.4176674485206604e-01" nType="-1"/>\n          </Node>\n          <Node pos="r" depth="2" NCoef="0" IVar="-1" Cut="-9.4099789857864380e-01" cType="1" res="-9.9000000000000000e+01" rms="0.0000000000000000e+00" purity="3.8331830501556396e-01" nType="-1"/>\n        </Node>\n        <Node pos="r" depth="1" NCoef="0" IVar="-1" Cut="0.0000000000000000e+00" cType="1" res="-9.9000000000000000e+01" rms="0.0000000000000000e+00" purity="2.7433231472969055e-01" nType="-1"/>\n      </Node>\n    </BinaryTree>\n    <BinaryTree type="DecisionTree" boostWeight="2.0298443946281883e-01" itree="8">\n      <Node pos="s" depth="0" NCoef="0" IVar="9" Cut="2.3809523880481720e-01" cType="0" res="-9.9000000000000000e+01" rms="0.0000000000000000e+00" purity="4.8081225156784058e-01" nType="0">\n        <Node pos="l" depth="1" NCoef="0" IVar="7" Cut="-3.6842104792594910e-01" cType="1" res="-9.9000000000000000e+01" rms="0.0000000000000000e+00" purity="5.5699288845062256e-01" nType="0">\n          <Node pos="l" depth="2" NCoef="0" IVar="-1" Cut="-5.4532927274703979e-01" cType="0" res="-9.9000000000000000e+01" rms="0.0000000000000000e+00" purity="5.8498466014862061e-01" nType="1"/>\n          <Node pos="r" depth="2" NCoef="0" IVar="-1" Cut="0.0000000000000000e+00" cType="1" res="-9.9000000000000000e+01" rms="0.0000000000000000e+00" purity="4.5315548777580261e-01" nType="-1"/>\n        </Node>\n        <Node pos="r" depth="1" NCoef="0" IVar="13" Cut="-9.0476191043853760e-01" cType="0" res="-9.9000000000000000e+01" rms="0.0000000000000000e+00" purity="4.4840705394744873e-01" nType="0">\n          <Node pos="l" depth="2" NCoef="0" IVar="2" Cut="-2.9430183768272400e-01" cType="0" res="-9.9000000000000000e+01" rms="0.0000000000000000e+00" purity="5.0477051734924316e-01" nType="0">\n            <Node pos="l" depth="3" NCoef="0" IVar="-1" Cut="0.0000000000000000e+00" cType="1" res="-9.9000000000000000e+01" rms="0.0000000000000000e+00" purity="7.0083832740783691e-01" nType="1"/>\n            <Node pos="r" depth="3" NCoef="0" IVar="-1" Cut="0.0000000000000000e+00" cType="1" res="-9.9000000000000000e+01" rms="0.0000000000000000e+00" purity="4.0990072488784790e-01" nType="-1"/>\n          </Node>\n          <Node pos="r" depth="2" NCoef="0" IVar="-1" Cut="-7.1362501382827759e-01" cType="1" res="-9.9000000000000000e+01" rms="0.0000000000000000e+00" purity="4.0303936600685120e-01" nType="-1"/>\n        </Node>\n      </Node>\n    </BinaryTree>\n    <BinaryTree type="DecisionTree" boostWeight="1.7720668603493245e-01" itree="9">\n      <Node pos="s" depth="0" NCoef="0" IVar="12" Cut="-9.0476191043853760e-01" cType="1" res="-9.9000000000000000e+01" rms="0.0000000000000000e+00" purity="4.9723437428474426e-01" nType="0">\n        <Node pos="l" depth="1" NCoef="0" IVar="-1" Cut="0.0000000000000000e+00" cType="1" res="-9.9000000000000000e+01" rms="0.0000000000000000e+00" purity="6.0888135433197021e-01" nType="1"/>\n        <Node pos="r" depth="1" NCoef="0" IVar="14" Cut="7.4887692928314209e-01" cType="0" res="-9.9000000000000000e+01" rms="0.0000000000000000e+00" purity="4.8118147253990173e-01" nType="0">\n          <Node pos="l" depth="2" NCoef="0" IVar="16" Cut="7.4375128746032715e-01" cType="1" res="-9.9000000000000000e+01" rms="0.0000000000000000e+00" purity="5.1971542835235596e-01" nType="0">\n            <Node pos="l" depth="3" NCoef="0" IVar="-1" Cut="0.0000000000000000e+00" cType="1" res="-9.9000000000000000e+01" rms="0.0000000000000000e+00" purity="5.4340881109237671e-01" nType="1"/>\n            <Node pos="r" depth="3" NCoef="0" IVar="-1" Cut="0.0000000000000000e+00" cType="1" res="-9.9000000000000000e+01" rms="0.0000000000000000e+00" purity="3.7902748584747314e-01" nType="-1"/>\n          </Node>\n          <Node pos="r" depth="2" NCoef="0" IVar="-1" Cut="0.0000000000000000e+00" cType="1" res="-9.9000000000000000e+01" rms="0.0000000000000000e+00" purity="1.8216970562934875e-01" nType="-1"/>\n        </Node>\n      </Node>\n    </BinaryTree>\n    <BinaryTree type="DecisionTree" boostWeight="1.0303674905111995e-01" itree="10">\n      <Node pos="s" depth="0" NCoef="0" IVar="19" Cut="-9.0476191043853760e-01" cType="1" res="-9.9000000000000000e+01" rms="0.0000000000000000e+00" purity="4.7128871083259583e-01" nType="0">\n        <Node pos="l" depth="1" NCoef="0" IVar="3" Cut="-3.6507937312126160e-01" cType="0" res="-9.9000000000000000e+01" rms="0.0000000000000000e+00" purity="4.8245915770530701e-01" nType="0">\n          <Node pos="l" depth="2" NCoef="0" IVar="10" Cut="-9.0476191043853760e-01" cType="1" res="-9.9000000000000000e+01" rms="0.0000000000000000e+00" purity="4.9683871865272522e-01" nType="0">\n            <Node pos="l" depth="3" NCoef="0" IVar="-1" Cut="0.0000000000000000e+00" cType="1" res="-9.9000000000000000e+01" rms="0.0000000000000000e+00" purity="5.7752519845962524e-01" nType="1"/>\n            <Node pos="r" depth="3" NCoef="0" IVar="-1" Cut="0.0000000000000000e+00" cType="1" res="-9.9000000000000000e+01" rms="0.0000000000000000e+00" purity="4.7940555214881897e-01" nType="-1"/>\n          </Node>\n          <Node pos="r" depth="2" NCoef="0" IVar="-1" Cut="0.0000000000000000e+00" cType="1" res="-9.9000000000000000e+01" rms="0.0000000000000000e+00" purity="3.6740937829017639e-01" nType="-1"/>\n        </Node>\n        <Node pos="r" depth="1" NCoef="0" IVar="-1" Cut="0.0000000000000000e+00" cType="1" res="-9.9000000000000000e+01" rms="0.0000000000000000e+00" purity="3.3555889129638672e-01" nType="-1"/>\n      </Node>\n    </BinaryTree>\n    <BinaryTree type="DecisionTree" boostWeight="1.7237469348011147e-01" itree="11">\n      <Node pos="s" depth="0" NCoef="0" IVar="3" Cut="2.3809523880481720e-01" cType="0" res="-9.9000000000000000e+01" rms="0.0000000000000000e+00" purity="4.8945829272270203e-01" nType="0">\n        <Node pos="l" depth="1" NCoef="0" IVar="14" Cut="7.5428038835525513e-01" cType="0" res="-9.9000000000000000e+01" rms="0.0000000000000000e+00" purity="5.5061614513397217e-01" nType="0">\n          <Node pos="l" depth="2" NCoef="0" IVar="-1" Cut="-2.3809523880481720e-01" cType="0" res="-9.9000000000000000e+01" rms="0.0000000000000000e+00" purity="6.0020631551742554e-01" nType="1"/>\n          <Node pos="r" depth="2" NCoef="0" IVar="-1" Cut="0.0000000000000000e+00" cType="1" res="-9.9000000000000000e+01" rms="0.0000000000000000e+00" purity="3.3125063776969910e-01" nType="-1"/>\n        </Node>\n        <Node pos="r" depth="1" NCoef="0" IVar="4" Cut="-7.1403390169143677e-01" cType="1" res="-9.9000000000000000e+01" rms="0.0000000000000000e+00" purity="4.6148508787155151e-01" nType="0">\n          <Node pos="l" depth="2" NCoef="0" IVar="11" Cut="-9.0476191043853760e-01" cType="1" res="-9.9000000000000000e+01" rms="0.0000000000000000e+00" purity="4.8912149667739868e-01" nType="0">\n            <Node pos="l" depth="3" NCoef="0" IVar="-1" Cut="0.0000000000000000e+00" cType="1" res="-9.9000000000000000e+01" rms="0.0000000000000000e+00" purity="5.4884958267211914e-01" nType="1"/>\n            <Node pos="r" depth="3" NCoef="0" IVar="-1" Cut="0.0000000000000000e+00" cType="1" res="-9.9000000000000000e+01" rms="0.0000000000000000e+00" purity="4.3300929665565491e-01" nType="-1"/>\n          </Node>\n          <Node pos="r" depth="2" NCoef="0" IVar="3" Cut="2.0408153533935547e-02" cType="0" res="-9.9000000000000000e+01" rms="0.0000000000000000e+00" purity="3.9471107721328735e-01" nType="0">\n            <Node pos="l" depth="3" NCoef="0" IVar="-1" Cut="0.0000000000000000e+00" cType="1" res="-9.9000000000000000e+01" rms="0.0000000000000000e+00" purity="5.0321263074874878e-01" nType="1"/>\n            <Node pos="r" depth="3" NCoef="0" IVar="-1" Cut="0.0000000000000000e+00" cType="1" res="-9.9000000000000000e+01" rms="0.0000000000000000e+00" purity="3.1805449724197388e-01" nType="-1"/>\n          </Node>\n        </Node>\n      </Node>\n    </BinaryTree>\n    <BinaryTree type="DecisionTree" boostWeight="9.9707575570379126e-02" itree="12">\n      <Node pos="s" depth="0" NCoef="0" IVar="21" Cut="-9.0476191043853760e-01" cType="1" res="-9.9000000000000000e+01" rms="0.0000000000000000e+00" purity="4.8282623291015625e-01" nType="0">\n        <Node pos="l" depth="1" NCoef="0" IVar="4" Cut="-1.4268925786018372e-01" cType="1" res="-9.9000000000000000e+01" rms="0.0000000000000000e+00" purity="4.9184188246726990e-01" nType="0">\n          <Node pos="l" depth="2" NCoef="0" IVar="4" Cut="-9.1809594631195068e-01" cType="0" res="-9.9000000000000000e+01" rms="0.0000000000000000e+00" purity="5.0446671247482300e-01" nType="0">\n            <Node pos="l" depth="3" NCoef="0" IVar="-1" Cut="0.0000000000000000e+00" cType="1" res="-9.9000000000000000e+01" rms="0.0000000000000000e+00" purity="5.4642361402511597e-01" nType="1"/>\n            <Node pos="r" depth="3" NCoef="0" IVar="-1" Cut="0.0000000000000000e+00" cType="1" res="-9.9000000000000000e+01" rms="0.0000000000000000e+00" purity="4.7526085376739502e-01" nType="-1"/>\n          </Node>\n          <Node pos="r" depth="2" NCoef="0" IVar="-1" Cut="0.0000000000000000e+00" cType="1" res="-9.9000000000000000e+01" rms="0.0000000000000000e+00" purity="3.7930360436439514e-01" nType="-1"/>\n        </Node>\n        <Node pos="r" depth="1" NCoef="0" IVar="-1" Cut="0.0000000000000000e+00" cType="1" res="-9.9000000000000000e+01" rms="0.0000000000000000e+00" purity="3.1496453285217285e-01" nType="-1"/>\n      </Node>\n    </BinaryTree>\n    <BinaryTree type="DecisionTree" boostWeight="1.1872068043818103e-01" itree="13">\n      <Node pos="s" depth="0" NCoef="0" IVar="21" Cut="-9.0476191043853760e-01" cType="1" res="-9.9000000000000000e+01" rms="0.0000000000000000e+00" purity="4.9023965001106262e-01" nType="0">\n        <Node pos="l" depth="1" NCoef="0" IVar="4" Cut="-6.1880975961685181e-01" cType="1" res="-9.9000000000000000e+01" rms="0.0000000000000000e+00" purity="4.9835976958274841e-01" nType="0">\n          <Node pos="l" depth="2" NCoef="0" IVar="5" Cut="-9.2528712749481201e-01" cType="0" res="-9.9000000000000000e+01" rms="0.0000000000000000e+00" purity="5.1784622669219971e-01" nType="0">\n            <Node pos="l" depth="3" NCoef="0" IVar="-1" Cut="0.0000000000000000e+00" cType="1" res="-9.9000000000000000e+01" rms="0.0000000000000000e+00" purity="5.5285954475402832e-01" nType="1"/>\n            <Node pos="r" depth="3" NCoef="0" IVar="-1" Cut="0.0000000000000000e+00" cType="1" res="-9.9000000000000000e+01" rms="0.0000000000000000e+00" purity="4.7820517420768738e-01" nType="-1"/>\n          </Node>\n          <Node pos="r" depth="2" NCoef="0" IVar="9" Cut="5.4945129901170731e-02" cType="1" res="-9.9000000000000000e+01" rms="0.0000000000000000e+00" purity="4.2370453476905823e-01" nType="0">\n            <Node pos="l" depth="3" NCoef="0" IVar="-1" Cut="0.0000000000000000e+00" cType="1" res="-9.9000000000000000e+01" rms="0.0000000000000000e+00" purity="5.3718096017837524e-01" nType="1"/>\n            <Node pos="r" depth="3" NCoef="0" IVar="-1" Cut="0.0000000000000000e+00" cType="1" res="-9.9000000000000000e+01" rms="0.0000000000000000e+00" purity="3.1815999746322632e-01" nType="-1"/>\n          </Node>\n        </Node>\n        <Node pos="r" depth="1" NCoef="0" IVar="-1" Cut="0.0000000000000000e+00" cType="1" res="-9.9000000000000000e+01" rms="0.0000000000000000e+00" purity="3.3686348795890808e-01" nType="-1"/>\n      </Node>\n    </BinaryTree>\n    <BinaryTree type="DecisionTree" boostWeight="1.0705625065097173e-01" itree="14">\n      <Node pos="s" depth="0" NCoef="0" IVar="4" Cut="-7.1403390169143677e-01" cType="1" res="-9.9000000000000000e+01" rms="0.0000000000000000e+00" purity="4.9049061536788940e-01" nType="0">\n        <Node pos="l" depth="1" NCoef="0" IVar="19" Cut="-9.0476191043853760e-01" cType="1" res="-9.9000000000000000e+01" rms="0.0000000000000000e+00" purity="5.0826287269592285e-01" nType="0">\n          <Node pos="l" depth="2" NCoef="0" IVar="27" Cut="-9.0478754043579102e-01" cType="1" res="-9.9000000000000000e+01" rms="0.0000000000000000e+00" purity="5.1943731307983398e-01" nType="0">\n            <Node pos="l" depth="3" NCoef="0" IVar="-1" Cut="0.0000000000000000e+00" cType="1" res="-9.9000000000000000e+01" rms="0.0000000000000000e+00" purity="5.7921022176742554e-01" nType="1"/>\n            <Node pos="r" depth="3" NCoef="0" IVar="-1" Cut="0.0000000000000000e+00" cType="1" res="-9.9000000000000000e+01" rms="0.0000000000000000e+00" purity="4.9339547753334045e-01" nType="-1"/>\n          </Node>\n          <Node pos="r" depth="2" NCoef="0" IVar="-1" Cut="0.0000000000000000e+00" cType="1" res="-9.9000000000000000e+01" rms="0.0000000000000000e+00" purity="3.6032691597938538e-01" nType="-1"/>\n        </Node>\n        <Node pos="r" depth="1" NCoef="0" IVar="11" Cut="-9.0476191043853760e-01" cType="0" res="-9.9000000000000000e+01" rms="0.0000000000000000e+00" purity="4.3713670969009399e-01" nType="0">\n          <Node pos="l" depth="2" NCoef="0" IVar="-1" Cut="0.0000000000000000e+00" cType="1" res="-9.9000000000000000e+01" rms="0.0000000000000000e+00" purity="5.4758661985397339e-01" nType="1"/>\n          <Node pos="r" depth="2" NCoef="0" IVar="-1" Cut="-9.2549270391464233e-01" cType="1" res="-9.9000000000000000e+01" rms="0.0000000000000000e+00" purity="3.5296159982681274e-01" nType="-1"/>\n        </Node>\n      </Node>\n    </BinaryTree>\n    <BinaryTree type="DecisionTree" boostWeight="1.5919470794167373e-01" itree="15">\n      <Node pos="s" depth="0" NCoef="0" IVar="4" Cut="-7.1403390169143677e-01" cType="1" res="-9.9000000000000000e+01" rms="0.0000000000000000e+00" purity="5.0013220310211182e-01" nType="0">\n        <Node pos="l" depth="1" NCoef="0" IVar="10" Cut="-9.0476191043853760e-01" cType="1" res="-9.9000000000000000e+01" rms="0.0000000000000000e+00" purity="5.1999056339263916e-01" nType="0">\n          <Node pos="l" depth="2" NCoef="0" IVar="3" Cut="-3.6054420471191406e-01" cType="0" res="-9.9000000000000000e+01" rms="0.0000000000000000e+00" purity="5.8456301689147949e-01" nType="0">\n            <Node pos="l" depth="3" NCoef="0" IVar="-1" Cut="0.0000000000000000e+00" cType="1" res="-9.9000000000000000e+01" rms="0.0000000000000000e+00" purity="6.4823925495147705e-01" nType="1"/>\n            <Node pos="r" depth="3" NCoef="0" IVar="-1" Cut="0.0000000000000000e+00" cType="1" res="-9.9000000000000000e+01" rms="0.0000000000000000e+00" purity="4.8297256231307983e-01" nType="-1"/>\n          </Node>\n          <Node pos="r" depth="2" NCoef="0" IVar="14" Cut="7.4887692928314209e-01" cType="0" res="-9.9000000000000000e+01" rms="0.0000000000000000e+00" purity="4.9870535731315613e-01" nType="0">\n            <Node pos="l" depth="3" NCoef="0" IVar="-1" Cut="0.0000000000000000e+00" cType="1" res="-9.9000000000000000e+01" rms="0.0000000000000000e+00" purity="5.4032808542251587e-01" nType="1"/>\n            <Node pos="r" depth="3" NCoef="0" IVar="-1" Cut="0.0000000000000000e+00" cType="1" res="-9.9000000000000000e+01" rms="0.0000000000000000e+00" purity="2.5056421756744385e-01" nType="-1"/>\n          </Node>\n        </Node>\n        <Node pos="r" depth="1" NCoef="0" IVar="3" Cut="6.8027633242309093e-03" cType="0" res="-9.9000000000000000e+01" rms="0.0000000000000000e+00" purity="4.4007980823516846e-01" nType="0">\n          <Node pos="l" depth="2" NCoef="0" IVar="-1" Cut="0.0000000000000000e+00" cType="1" res="-9.9000000000000000e+01" rms="0.0000000000000000e+00" purity="5.2274829149246216e-01" nType="1"/>\n          <Node pos="r" depth="2" NCoef="0" IVar="-1" Cut="-7.0053917169570923e-01" cType="0" res="-9.9000000000000000e+01" rms="0.0000000000000000e+00" purity="3.4416037797927856e-01" nType="-1"/>\n        </Node>\n      </Node>\n    </BinaryTree>\n    <BinaryTree type="DecisionTree" boostWeight="1.8469878521314309e-01" itree="16">\n      <Node pos="s" depth="0" NCoef="0" IVar="10" Cut="-9.0476191043853760e-01" cType="1" res="-9.9000000000000000e+01" rms="0.0000000000000000e+00" purity="4.8147237300872803e-01" nType="0">\n        <Node pos="l" depth="1" NCoef="0" IVar="4" Cut="-8.0882143974304199e-01" cType="1" res="-9.9000000000000000e+01" rms="0.0000000000000000e+00" purity="5.4271858930587769e-01" nType="0">\n          <Node pos="l" depth="2" NCoef="0" IVar="-1" Cut="-9.8108845949172974e-01" cType="0" res="-9.9000000000000000e+01" rms="0.0000000000000000e+00" purity="5.8872789144515991e-01" nType="1"/>\n          <Node pos="r" depth="2" NCoef="0" IVar="-1" Cut="0.0000000000000000e+00" cType="1" res="-9.9000000000000000e+01" rms="0.0000000000000000e+00" purity="4.5444259047508240e-01" nType="-1"/>\n        </Node>\n        <Node pos="r" depth="1" NCoef="0" IVar="14" Cut="7.7170634269714355e-01" cType="0" res="-9.9000000000000000e+01" rms="0.0000000000000000e+00" purity="4.6001523733139038e-01" nType="0">\n          <Node pos="l" depth="2" NCoef="0" IVar="-1" Cut="0.0000000000000000e+00" cType="1" res="-9.9000000000000000e+01" rms="0.0000000000000000e+00" purity="5.4442179203033447e-01" nType="1"/>\n          <Node pos="r" depth="2" NCoef="0" IVar="4" Cut="-9.0449190139770508e-01" cType="0" res="-9.9000000000000000e+01" rms="0.0000000000000000e+00" purity="3.8120758533477783e-01" nType="0">\n            <Node pos="l" depth="3" NCoef="0" IVar="-1" Cut="0.0000000000000000e+00" cType="1" res="-9.9000000000000000e+01" rms="0.0000000000000000e+00" purity="5.3036820888519287e-01" nType="1"/>\n            <Node pos="r" depth="3" NCoef="0" IVar="-1" Cut="0.0000000000000000e+00" cType="1" res="-9.9000000000000000e+01" rms="0.0000000000000000e+00" purity="2.5300171971321106e-01" nType="-1"/>\n          </Node>\n        </Node>\n      </Node>\n    </BinaryTree>\n    <BinaryTree type="DecisionTree" boostWeight="1.7407789593084325e-01" itree="17">\n      <Node pos="s" depth="0" NCoef="0" IVar="10" Cut="-9.0476191043853760e-01" cType="1" res="-9.9000000000000000e+01" rms="0.0000000000000000e+00" purity="4.6194037795066833e-01" nType="0">\n        <Node pos="l" depth="1" NCoef="0" IVar="8" Cut="-8.0780857801437378e-01" cType="0" res="-9.9000000000000000e+01" rms="0.0000000000000000e+00" purity="5.2861583232879639e-01" nType="0">\n          <Node pos="l" depth="2" NCoef="0" IVar="-1" Cut="-9.0402650833129883e-01" cType="1" res="-9.9000000000000000e+01" rms="0.0000000000000000e+00" purity="5.7405364513397217e-01" nType="1"/>\n          <Node pos="r" depth="2" NCoef="0" IVar="-1" Cut="0.0000000000000000e+00" cType="1" res="-9.9000000000000000e+01" rms="0.0000000000000000e+00" purity="4.2529550194740295e-01" nType="-1"/>\n        </Node>\n        <Node pos="r" depth="1" NCoef="0" IVar="14" Cut="7.4887692928314209e-01" cType="0" res="-9.9000000000000000e+01" rms="0.0000000000000000e+00" purity="4.3847835063934326e-01" nType="0">\n          <Node pos="l" depth="2" NCoef="0" IVar="3" Cut="2.7437642216682434e-01" cType="0" res="-9.9000000000000000e+01" rms="0.0000000000000000e+00" purity="4.6585354208946228e-01" nType="0">\n            <Node pos="l" depth="3" NCoef="0" IVar="-1" Cut="0.0000000000000000e+00" cType="1" res="-9.9000000000000000e+01" rms="0.0000000000000000e+00" purity="5.5201739072799683e-01" nType="1"/>\n            <Node pos="r" depth="3" NCoef="0" IVar="-1" Cut="0.0000000000000000e+00" cType="1" res="-9.9000000000000000e+01" rms="0.0000000000000000e+00" purity="4.2633086442947388e-01" nType="-1"/>\n          </Node>\n          <Node pos="r" depth="2" NCoef="0" IVar="-1" Cut="0.0000000000000000e+00" cType="1" res="-9.9000000000000000e+01" rms="0.0000000000000000e+00" purity="2.3455338180065155e-01" nType="-1"/>\n        </Node>\n      </Node>\n    </BinaryTree>\n    <BinaryTree type="DecisionTree" boostWeight="1.3195799612257403e-01" itree="18">\n      <Node pos="s" depth="0" NCoef="0" IVar="19" Cut="-9.0476191043853760e-01" cType="1" res="-9.9000000000000000e+01" rms="0.0000000000000000e+00" purity="4.7142231464385986e-01" nType="0">\n        <Node pos="l" depth="1" NCoef="0" IVar="13" Cut="-9.0476191043853760e-01" cType="0" res="-9.9000000000000000e+01" rms="0.0000000000000000e+00" purity="4.7957581281661987e-01" nType="0">\n          <Node pos="l" depth="2" NCoef="0" IVar="18" Cut="8.4340435266494751e-01" cType="1" res="-9.9000000000000000e+01" rms="0.0000000000000000e+00" purity="5.2166110277175903e-01" nType="0">\n            <Node pos="l" depth="3" NCoef="0" IVar="-1" Cut="0.0000000000000000e+00" cType="1" res="-9.9000000000000000e+01" rms="0.0000000000000000e+00" purity="6.0252249240875244e-01" nType="1"/>\n            <Node pos="r" depth="3" NCoef="0" IVar="-1" Cut="0.0000000000000000e+00" cType="1" res="-9.9000000000000000e+01" rms="0.0000000000000000e+00" purity="4.3243977427482605e-01" nType="-1"/>\n          </Node>\n          <Node pos="r" depth="2" NCoef="0" IVar="-1" Cut="-7.1361225843429565e-01" cType="1" res="-9.9000000000000000e+01" rms="0.0000000000000000e+00" purity="4.5470824837684631e-01" nType="-1"/>\n        </Node>\n        <Node pos="r" depth="1" NCoef="0" IVar="-1" Cut="0.0000000000000000e+00" cType="1" res="-9.9000000000000000e+01" rms="0.0000000000000000e+00" purity="3.6838400363922119e-01" nType="-1"/>\n      </Node>\n    </BinaryTree>\n    <BinaryTree type="DecisionTree" boostWeight="9.8840665145530152e-02" itree="19">\n      <Node pos="s" depth="0" NCoef="0" IVar="6" Cut="-7.7647811174392700e-01" cType="1" res="-9.9000000000000000e+01" rms="0.0000000000000000e+00" purity="4.9240309000015259e-01" nType="0">\n        <Node pos="l" depth="1" NCoef="0" IVar="19" Cut="-9.0476191043853760e-01" cType="1" res="-9.9000000000000000e+01" rms="0.0000000000000000e+00" purity="5.0352472066879272e-01" nType="0">\n          <Node pos="l" depth="2" NCoef="0" IVar="4" Cut="-8.0925798416137695e-01" cType="1" res="-9.9000000000000000e+01" rms="0.0000000000000000e+00" purity="5.1139676570892334e-01" nType="0">\n            <Node pos="l" depth="3" NCoef="0" IVar="-1" Cut="0.0000000000000000e+00" cType="1" res="-9.9000000000000000e+01" rms="0.0000000000000000e+00" purity="5.3418421745300293e-01" nType="1"/>\n            <Node pos="r" depth="3" NCoef="0" IVar="-1" Cut="0.0000000000000000e+00" cType="1" res="-9.9000000000000000e+01" rms="0.0000000000000000e+00" purity="4.5886030793190002e-01" nType="-1"/>\n          </Node>\n          <Node pos="r" depth="2" NCoef="0" IVar="-1" Cut="0.0000000000000000e+00" cType="1" res="-9.9000000000000000e+01" rms="0.0000000000000000e+00" purity="3.9578440785408020e-01" nType="-1"/>\n        </Node>\n        <Node pos="r" depth="1" NCoef="0" IVar="8" Cut="-6.1817806959152222e-01" cType="0" res="-9.9000000000000000e+01" rms="0.0000000000000000e+00" purity="4.1684085130691528e-01" nType="0">\n          <Node pos="l" depth="2" NCoef="0" IVar="-1" Cut="0.0000000000000000e+00" cType="1" res="-9.9000000000000000e+01" rms="0.0000000000000000e+00" purity="5.2437770366668701e-01" nType="1"/>\n          <Node pos="r" depth="2" NCoef="0" IVar="-1" Cut="0.0000000000000000e+00" cType="1" res="-9.9000000000000000e+01" rms="0.0000000000000000e+00" purity="3.2231745123863220e-01" nType="-1"/>\n        </Node>\n      </Node>\n    </BinaryTree>\n    <BinaryTree type="DecisionTree" boostWeight="8.0462465970772487e-02" itree="20">\n      <Node pos="s" depth="0" NCoef="0" IVar="14" Cut="6.1904764175415039e-01" cType="1" res="-9.9000000000000000e+01" rms="0.0000000000000000e+00" purity="4.8608344793319702e-01" nType="0">\n        <Node pos="l" depth="1" NCoef="0" IVar="-1" Cut="0.0000000000000000e+00" cType="1" res="-9.9000000000000000e+01" rms="0.0000000000000000e+00" purity="5.8010822534561157e-01" nType="1"/>\n        <Node pos="r" depth="1" NCoef="0" IVar="14" Cut="7.4606275558471680e-01" cType="0" res="-9.9000000000000000e+01" rms="0.0000000000000000e+00" purity="4.7646859288215637e-01" nType="0">\n          <Node pos="l" depth="2" NCoef="0" IVar="17" Cut="7.9116308689117432e-01" cType="1" res="-9.9000000000000000e+01" rms="0.0000000000000000e+00" purity="4.9444329738616943e-01" nType="0">\n            <Node pos="l" depth="3" NCoef="0" IVar="-1" Cut="0.0000000000000000e+00" cType="1" res="-9.9000000000000000e+01" rms="0.0000000000000000e+00" purity="5.0782525539398193e-01" nType="1"/>\n            <Node pos="r" depth="3" NCoef="0" IVar="-1" Cut="0.0000000000000000e+00" cType="1" res="-9.9000000000000000e+01" rms="0.0000000000000000e+00" purity="3.9827263355255127e-01" nType="-1"/>\n          </Node>\n          <Node pos="r" depth="2" NCoef="0" IVar="-1" Cut="0.0000000000000000e+00" cType="1" res="-9.9000000000000000e+01" rms="0.0000000000000000e+00" purity="2.9071462154388428e-01" nType="-1"/>\n        </Node>\n      </Node>\n    </BinaryTree>\n    <BinaryTree type="DecisionTree" boostWeight="7.6138654289372276e-02" itree="21">\n      <Node pos="s" depth="0" NCoef="0" IVar="14" Cut="6.1904764175415039e-01" cType="1" res="-9.9000000000000000e+01" rms="0.0000000000000000e+00" purity="4.7317337989807129e-01" nType="0">\n        <Node pos="l" depth="1" NCoef="0" IVar="-1" Cut="0.0000000000000000e+00" cType="1" res="-9.9000000000000000e+01" rms="0.0000000000000000e+00" purity="5.6039249897003174e-01" nType="1"/>\n        <Node pos="r" depth="1" NCoef="0" IVar="-1" Cut="7.4606275558471680e-01" cType="0" res="-9.9000000000000000e+01" rms="0.0000000000000000e+00" purity="4.6428614854812622e-01" nType="-1"/>\n      </Node>\n    </BinaryTree>\n    <BinaryTree type="DecisionTree" boostWeight="1.3354126620710774e-01" itree="22">\n      <Node pos="s" depth="0" NCoef="0" IVar="7" Cut="-3.3333334326744080e-01" cType="1" res="-9.9000000000000000e+01" rms="0.0000000000000000e+00" purity="4.8864737153053284e-01" nType="0">\n        <Node pos="l" depth="1" NCoef="0" IVar="30" Cut="-9.0476191043853760e-01" cType="0" res="-9.9000000000000000e+01" rms="0.0000000000000000e+00" purity="5.0207471847534180e-01" nType="0">\n          <Node pos="l" depth="2" NCoef="0" IVar="31" Cut="9.8973965644836426e-01" cType="0" res="-9.9000000000000000e+01" rms="0.0000000000000000e+00" purity="5.2724564075469971e-01" nType="0">\n            <Node pos="l" depth="3" NCoef="0" IVar="-1" Cut="0.0000000000000000e+00" cType="1" res="-9.9000000000000000e+01" rms="0.0000000000000000e+00" purity="5.9095358848571777e-01" nType="1"/>\n            <Node pos="r" depth="3" NCoef="0" IVar="-1" Cut="0.0000000000000000e+00" cType="1" res="-9.9000000000000000e+01" rms="0.0000000000000000e+00" purity="4.4766351580619812e-01" nType="-1"/>\n          </Node>\n          <Node pos="r" depth="2" NCoef="0" IVar="-1" Cut="-4.0678548812866211e-01" cType="1" res="-9.9000000000000000e+01" rms="0.0000000000000000e+00" purity="4.5768687129020691e-01" nType="-1"/>\n        </Node>\n        <Node pos="r" depth="1" NCoef="0" IVar="8" Cut="-6.1817806959152222e-01" cType="0" res="-9.9000000000000000e+01" rms="0.0000000000000000e+00" purity="4.4261446595191956e-01" nType="0">\n          <Node pos="l" depth="2" NCoef="0" IVar="-1" Cut="0.0000000000000000e+00" cType="1" res="-9.9000000000000000e+01" rms="0.0000000000000000e+00" purity="5.2570986747741699e-01" nType="1"/>\n          <Node pos="r" depth="2" NCoef="0" IVar="-1" Cut="-7.4509483575820923e-01" cType="0" res="-9.9000000000000000e+01" rms="0.0000000000000000e+00" purity="3.7725645303726196e-01" nType="-1"/>\n        </Node>\n      </Node>\n    </BinaryTree>\n    <BinaryTree type="DecisionTree" boostWeight="1.4911167863939873e-01" itree="23">\n      <Node pos="s" depth="0" NCoef="0" IVar="10" Cut="-9.0476191043853760e-01" cType="1" res="-9.9000000000000000e+01" rms="0.0000000000000000e+00" purity="4.9703505635261536e-01" nType="0">\n        <Node pos="l" depth="1" NCoef="0" IVar="2" Cut="-4.0678548812866211e-01" cType="1" res="-9.9000000000000000e+01" rms="0.0000000000000000e+00" purity="5.4370534420013428e-01" nType="0">\n          <Node pos="l" depth="2" NCoef="0" IVar="-1" Cut="-2.9670324921607971e-01" cType="1" res="-9.9000000000000000e+01" rms="0.0000000000000000e+00" purity="5.7657241821289062e-01" nType="1"/>\n          <Node pos="r" depth="2" NCoef="0" IVar="-1" Cut="0.0000000000000000e+00" cType="1" res="-9.9000000000000000e+01" rms="0.0000000000000000e+00" purity="4.9179884791374207e-01" nType="-1"/>\n        </Node>\n        <Node pos="r" depth="1" NCoef="0" IVar="14" Cut="7.7170634269714355e-01" cType="0" res="-9.9000000000000000e+01" rms="0.0000000000000000e+00" purity="4.8035269975662231e-01" nType="0">\n          <Node pos="l" depth="2" NCoef="0" IVar="-1" Cut="0.0000000000000000e+00" cType="1" res="-9.9000000000000000e+01" rms="0.0000000000000000e+00" purity="5.4873824119567871e-01" nType="1"/>\n          <Node pos="r" depth="2" NCoef="0" IVar="4" Cut="-9.0449190139770508e-01" cType="0" res="-9.9000000000000000e+01" rms="0.0000000000000000e+00" purity="4.1176685690879822e-01" nType="0">\n            <Node pos="l" depth="3" NCoef="0" IVar="-1" Cut="0.0000000000000000e+00" cType="1" res="-9.9000000000000000e+01" rms="0.0000000000000000e+00" purity="5.2966016530990601e-01" nType="1"/>\n            <Node pos="r" depth="3" NCoef="0" IVar="-1" Cut="0.0000000000000000e+00" cType="1" res="-9.9000000000000000e+01" rms="0.0000000000000000e+00" purity="3.0449277162551880e-01" nType="-1"/>\n          </Node>\n        </Node>\n      </Node>\n    </BinaryTree>\n    <BinaryTree type="DecisionTree" boostWeight="1.1365590955322838e-01" itree="24">\n      <Node pos="s" depth="0" NCoef="0" IVar="10" Cut="-9.0476191043853760e-01" cType="1" res="-9.9000000000000000e+01" rms="0.0000000000000000e+00" purity="4.8155122995376587e-01" nType="0">\n        <Node pos="l" depth="1" NCoef="0" IVar="8" Cut="-8.0780857801437378e-01" cType="0" res="-9.9000000000000000e+01" rms="0.0000000000000000e+00" purity="5.3561389446258545e-01" nType="0">\n          <Node pos="l" depth="2" NCoef="0" IVar="-1" Cut="3.6630686372518539e-03" cType="1" res="-9.9000000000000000e+01" rms="0.0000000000000000e+00" purity="5.6378084421157837e-01" nType="1"/>\n          <Node pos="r" depth="2" NCoef="0" IVar="-1" Cut="0.0000000000000000e+00" cType="1" res="-9.9000000000000000e+01" rms="0.0000000000000000e+00" purity="4.6857273578643799e-01" nType="-1"/>\n        </Node>\n        <Node pos="r" depth="1" NCoef="0" IVar="14" Cut="7.4887692928314209e-01" cType="0" res="-9.9000000000000000e+01" rms="0.0000000000000000e+00" purity="4.6213173866271973e-01" nType="0">\n          <Node pos="l" depth="2" NCoef="0" IVar="14" Cut="7.7279341220855713e-01" cType="0" res="-9.9000000000000000e+01" rms="0.0000000000000000e+00" purity="4.8336717486381531e-01" nType="0">\n            <Node pos="l" depth="3" NCoef="0" IVar="-1" Cut="0.0000000000000000e+00" cType="1" res="-9.9000000000000000e+01" rms="0.0000000000000000e+00" purity="5.2053397893905640e-01" nType="1"/>\n            <Node pos="r" depth="3" NCoef="0" IVar="-1" Cut="0.0000000000000000e+00" cType="1" res="-9.9000000000000000e+01" rms="0.0000000000000000e+00" purity="4.4088575243949890e-01" nType="-1"/>\n          </Node>\n          <Node pos="r" depth="2" NCoef="0" IVar="-1" Cut="0.0000000000000000e+00" cType="1" res="-9.9000000000000000e+01" rms="0.0000000000000000e+00" purity="2.8412780165672302e-01" nType="-1"/>\n        </Node>\n      </Node>\n    </BinaryTree>\n    <BinaryTree type="DecisionTree" boostWeight="1.4146081107685227e-01" itree="25">\n      <Node pos="s" depth="0" NCoef="0" IVar="9" Cut="-1.4285714924335480e-01" cType="1" res="-9.9000000000000000e+01" rms="0.0000000000000000e+00" purity="4.7933652997016907e-01" nType="0">\n        <Node pos="l" depth="1" NCoef="0" IVar="7" Cut="-6.5914785861968994e-01" cType="0" res="-9.9000000000000000e+01" rms="0.0000000000000000e+00" purity="5.3142273426055908e-01" nType="0">\n          <Node pos="l" depth="2" NCoef="0" IVar="9" Cut="-5.1648348569869995e-01" cType="0" res="-9.9000000000000000e+01" rms="0.0000000000000000e+00" purity="5.8690011501312256e-01" nType="0">\n            <Node pos="l" depth="3" NCoef="0" IVar="-1" Cut="0.0000000000000000e+00" cType="1" res="-9.9000000000000000e+01" rms="0.0000000000000000e+00" purity="6.5139991044998169e-01" nType="1"/>\n            <Node pos="r" depth="3" NCoef="0" IVar="-1" Cut="0.0000000000000000e+00" cType="1" res="-9.9000000000000000e+01" rms="0.0000000000000000e+00" purity="4.8450744152069092e-01" nType="-1"/>\n          </Node>\n          <Node pos="r" depth="2" NCoef="0" IVar="6" Cut="-9.4805181026458740e-01" cType="1" res="-9.9000000000000000e+01" rms="0.0000000000000000e+00" purity="4.6908095479011536e-01" nType="0">\n            <Node pos="l" depth="3" NCoef="0" IVar="-1" Cut="0.0000000000000000e+00" cType="1" res="-9.9000000000000000e+01" rms="0.0000000000000000e+00" purity="5.2632653713226318e-01" nType="1"/>\n            <Node pos="r" depth="3" NCoef="0" IVar="-1" Cut="0.0000000000000000e+00" cType="1" res="-9.9000000000000000e+01" rms="0.0000000000000000e+00" purity="3.9388781785964966e-01" nType="-1"/>\n          </Node>\n        </Node>\n        <Node pos="r" depth="1" NCoef="0" IVar="16" Cut="7.1428573131561279e-01" cType="1" res="-9.9000000000000000e+01" rms="0.0000000000000000e+00" purity="4.6199497580528259e-01" nType="0">\n          <Node pos="l" depth="2" NCoef="0" IVar="7" Cut="-3.3333334326744080e-01" cType="1" res="-9.9000000000000000e+01" rms="0.0000000000000000e+00" purity="5.0586932897567749e-01" nType="0">\n            <Node pos="l" depth="3" NCoef="0" IVar="-1" Cut="0.0000000000000000e+00" cType="1" res="-9.9000000000000000e+01" rms="0.0000000000000000e+00" purity="5.3897660970687866e-01" nType="1"/>\n            <Node pos="r" depth="3" NCoef="0" IVar="-1" Cut="0.0000000000000000e+00" cType="1" res="-9.9000000000000000e+01" rms="0.0000000000000000e+00" purity="3.7115827202796936e-01" nType="-1"/>\n          </Node>\n          <Node pos="r" depth="2" NCoef="0" IVar="7" Cut="-9.7744338214397430e-02" cType="0" res="-9.9000000000000000e+01" rms="0.0000000000000000e+00" purity="4.3535563349723816e-01" nType="0">\n            <Node pos="l" depth="3" NCoef="0" IVar="-1" Cut="0.0000000000000000e+00" cType="1" res="-9.9000000000000000e+01" rms="0.0000000000000000e+00" purity="5.2692991495132446e-01" nType="1"/>\n            <Node pos="r" depth="3" NCoef="0" IVar="-1" Cut="0.0000000000000000e+00" cType="1" res="-9.9000000000000000e+01" rms="0.0000000000000000e+00" purity="4.1907751560211182e-01" nType="-1"/>\n          </Node>\n        </Node>\n      </Node>\n    </BinaryTree>\n    <BinaryTree type="DecisionTree" boostWeight="8.9181679605858280e-02" itree="26">\n      <Node pos="s" depth="0" NCoef="0" IVar="6" Cut="-7.7647811174392700e-01" cType="1" res="-9.9000000000000000e+01" rms="0.0000000000000000e+00" purity="4.8299306631088257e-01" nType="0">\n        <Node pos="l" depth="1" NCoef="0" IVar="9" Cut="-4.7619048506021500e-02" cType="1" res="-9.9000000000000000e+01" rms="0.0000000000000000e+00" purity="4.9307754635810852e-01" nType="0">\n          <Node pos="l" depth="2" NCoef="0" IVar="7" Cut="-6.2406015396118164e-01" cType="0" res="-9.9000000000000000e+01" rms="0.0000000000000000e+00" purity="5.3416502475738525e-01" nType="0">\n            <Node pos="l" depth="3" NCoef="0" IVar="-1" Cut="0.0000000000000000e+00" cType="1" res="-9.9000000000000000e+01" rms="0.0000000000000000e+00" purity="6.0028058290481567e-01" nType="1"/>\n            <Node pos="r" depth="3" NCoef="0" IVar="-1" Cut="0.0000000000000000e+00" cType="1" res="-9.9000000000000000e+01" rms="0.0000000000000000e+00" purity="4.6575698256492615e-01" nType="-1"/>\n          </Node>\n          <Node pos="r" depth="2" NCoef="0" IVar="-1" Cut="-9.0476191043853760e-01" cType="0" res="-9.9000000000000000e+01" rms="0.0000000000000000e+00" purity="4.7479301691055298e-01" nType="-1"/>\n        </Node>\n        <Node pos="r" depth="1" NCoef="0" IVar="-1" Cut="-6.1817806959152222e-01" cType="0" res="-9.9000000000000000e+01" rms="0.0000000000000000e+00" purity="4.1275110840797424e-01" nType="-1"/>\n      </Node>\n    </BinaryTree>\n    <BinaryTree type="DecisionTree" boostWeight="7.9387757227405847e-02" itree="27">\n      <Node pos="s" depth="0" NCoef="0" IVar="6" Cut="-7.7647811174392700e-01" cType="1" res="-9.9000000000000000e+01" rms="0.0000000000000000e+00" purity="4.9916791915893555e-01" nType="0">\n        <Node pos="l" depth="1" NCoef="0" IVar="19" Cut="-9.0476191043853760e-01" cType="1" res="-9.9000000000000000e+01" rms="0.0000000000000000e+00" purity="5.0840836763381958e-01" nType="0">\n          <Node pos="l" depth="2" NCoef="0" IVar="6" Cut="-9.6807056665420532e-01" cType="0" res="-9.9000000000000000e+01" rms="0.0000000000000000e+00" purity="5.1493489742279053e-01" nType="0">\n            <Node pos="l" depth="3" NCoef="0" IVar="-1" Cut="0.0000000000000000e+00" cType="1" res="-9.9000000000000000e+01" rms="0.0000000000000000e+00" purity="5.2757120132446289e-01" nType="1"/>\n            <Node pos="r" depth="3" NCoef="0" IVar="-1" Cut="0.0000000000000000e+00" cType="1" res="-9.9000000000000000e+01" rms="0.0000000000000000e+00" purity="4.4071981310844421e-01" nType="-1"/>\n          </Node>\n          <Node pos="r" depth="2" NCoef="0" IVar="-1" Cut="0.0000000000000000e+00" cType="1" res="-9.9000000000000000e+01" rms="0.0000000000000000e+00" purity="4.1694033145904541e-01" nType="-1"/>\n        </Node>\n        <Node pos="r" depth="1" NCoef="0" IVar="8" Cut="-6.1817806959152222e-01" cType="0" res="-9.9000000000000000e+01" rms="0.0000000000000000e+00" purity="4.3452259898185730e-01" nType="0">\n          <Node pos="l" depth="2" NCoef="0" IVar="-1" Cut="0.0000000000000000e+00" cType="1" res="-9.9000000000000000e+01" rms="0.0000000000000000e+00" purity="5.0242221355438232e-01" nType="1"/>\n          <Node pos="r" depth="2" NCoef="0" IVar="-1" Cut="0.0000000000000000e+00" cType="1" res="-9.9000000000000000e+01" rms="0.0000000000000000e+00" purity="3.6889925599098206e-01" nType="-1"/>\n        </Node>\n      </Node>\n    </BinaryTree>\n    <BinaryTree type="DecisionTree" boostWeight="1.1189108169438756e-01" itree="28">\n      <Node pos="s" depth="0" NCoef="0" IVar="10" Cut="-9.0476191043853760e-01" cType="1" res="-9.9000000000000000e+01" rms="0.0000000000000000e+00" purity="4.8884522914886475e-01" nType="0">\n        <Node pos="l" depth="1" NCoef="0" IVar="16" Cut="7.1849763393402100e-01" cType="0" res="-9.9000000000000000e+01" rms="0.0000000000000000e+00" purity="5.3000479936599731e-01" nType="0">\n          <Node pos="l" depth="2" NCoef="0" IVar="-1" Cut="0.0000000000000000e+00" cType="1" res="-9.9000000000000000e+01" rms="0.0000000000000000e+00" purity="5.8987659215927124e-01" nType="1"/>\n          <Node pos="r" depth="2" NCoef="0" IVar="6" Cut="-9.4099789857864380e-01" cType="1" res="-9.9000000000000000e+01" rms="0.0000000000000000e+00" purity="4.8313125967979431e-01" nType="0">\n            <Node pos="l" depth="3" NCoef="0" IVar="-1" Cut="0.0000000000000000e+00" cType="1" res="-9.9000000000000000e+01" rms="0.0000000000000000e+00" purity="5.5256992578506470e-01" nType="1"/>\n            <Node pos="r" depth="3" NCoef="0" IVar="-1" Cut="0.0000000000000000e+00" cType="1" res="-9.9000000000000000e+01" rms="0.0000000000000000e+00" purity="3.8064262270927429e-01" nType="-1"/>\n          </Node>\n        </Node>\n        <Node pos="r" depth="1" NCoef="0" IVar="14" Cut="7.4887692928314209e-01" cType="0" res="-9.9000000000000000e+01" rms="0.0000000000000000e+00" purity="4.7378358244895935e-01" nType="0">\n          <Node pos="l" depth="2" NCoef="0" IVar="18" Cut="8.2978361845016479e-01" cType="1" res="-9.9000000000000000e+01" rms="0.0000000000000000e+00" purity="4.9478417634963989e-01" nType="0">\n            <Node pos="l" depth="3" NCoef="0" IVar="-1" Cut="0.0000000000000000e+00" cType="1" res="-9.9000000000000000e+01" rms="0.0000000000000000e+00" purity="5.5969351530075073e-01" nType="1"/>\n            <Node pos="r" depth="3" NCoef="0" IVar="-1" Cut="0.0000000000000000e+00" cType="1" res="-9.9000000000000000e+01" rms="0.0000000000000000e+00" purity="4.8070716857910156e-01" nType="-1"/>\n          </Node>\n          <Node pos="r" depth="2" NCoef="0" IVar="-1" Cut="0.0000000000000000e+00" cType="1" res="-9.9000000000000000e+01" rms="0.0000000000000000e+00" purity="2.8803643584251404e-01" nType="-1"/>\n        </Node>\n      </Node>\n    </BinaryTree>\n    <BinaryTree type="DecisionTree" boostWeight="9.5819028850226348e-02" itree="29">\n      <Node pos="s" depth="0" NCoef="0" IVar="30" Cut="-9.0476191043853760e-01" cType="0" res="-9.9000000000000000e+01" rms="0.0000000000000000e+00" purity="4.9864867329597473e-01" nType="0">\n        <Node pos="l" depth="1" NCoef="0" IVar="31" Cut="9.9275738000869751e-01" cType="0" res="-9.9000000000000000e+01" rms="0.0000000000000000e+00" purity="5.1122844219207764e-01" nType="0">\n          <Node pos="l" depth="2" NCoef="0" IVar="-1" Cut="0.0000000000000000e+00" cType="1" res="-9.9000000000000000e+01" rms="0.0000000000000000e+00" purity="6.7943686246871948e-01" nType="1"/>\n          <Node pos="r" depth="2" NCoef="0" IVar="-1" Cut="-7.1428573131561279e-01" cType="0" res="-9.9000000000000000e+01" rms="0.0000000000000000e+00" purity="4.8360681533813477e-01" nType="-1"/>\n        </Node>\n        <Node pos="r" depth="1" NCoef="0" IVar="7" Cut="-7.1929824352264404e-01" cType="1" res="-9.9000000000000000e+01" rms="0.0000000000000000e+00" purity="4.6765655279159546e-01" nType="0">\n          <Node pos="l" depth="2" NCoef="0" IVar="-1" Cut="-4.7252744436264038e-01" cType="1" res="-9.9000000000000000e+01" rms="0.0000000000000000e+00" purity="5.1653146743774414e-01" nType="1"/>\n          <Node pos="r" depth="2" NCoef="0" IVar="-1" Cut="0.0000000000000000e+00" cType="1" res="-9.9000000000000000e+01" rms="0.0000000000000000e+00" purity="3.9456465840339661e-01" nType="-1"/>\n        </Node>\n      </Node>\n    </BinaryTree>\n    <BinaryTree type="DecisionTree" boostWeight="7.8715843982474415e-02" itree="30">\n      <Node pos="s" depth="0" NCoef="0" IVar="3" Cut="-5.2380955219268799e-01" cType="0" res="-9.9000000000000000e+01" rms="0.0000000000000000e+00" purity="5.1454085111618042e-01" nType="0">\n        <Node pos="l" depth="1" NCoef="0" IVar="0" Cut="-9.4103598594665527e-01" cType="1" res="-9.9000000000000000e+01" rms="0.0000000000000000e+00" purity="5.1738655567169189e-01" nType="0">\n          <Node pos="l" depth="2" NCoef="0" IVar="14" Cut="7.1428573131561279e-01" cType="0" res="-9.9000000000000000e+01" rms="0.0000000000000000e+00" purity="5.2538001537322998e-01" nType="0">\n            <Node pos="l" depth="3" NCoef="0" IVar="-1" Cut="0.0000000000000000e+00" cType="1" res="-9.9000000000000000e+01" rms="0.0000000000000000e+00" purity="5.3426259756088257e-01" nType="1"/>\n            <Node pos="r" depth="3" NCoef="0" IVar="-1" Cut="0.0000000000000000e+00" cType="1" res="-9.9000000000000000e+01" rms="0.0000000000000000e+00" purity="4.5611909031867981e-01" nType="-1"/>\n          </Node>\n          <Node pos="r" depth="2" NCoef="0" IVar="-1" Cut="0.0000000000000000e+00" cType="1" res="-9.9000000000000000e+01" rms="0.0000000000000000e+00" purity="4.0618619322776794e-01" nType="-1"/>\n        </Node>\n        <Node pos="r" depth="1" NCoef="0" IVar="-1" Cut="0.0000000000000000e+00" cType="1" res="-9.9000000000000000e+01" rms="0.0000000000000000e+00" purity="4.6071177721023560e-01" nType="-1"/>\n      </Node>\n    </BinaryTree>\n    <BinaryTree type="DecisionTree" boostWeight="5.3514782185240917e-02" itree="31">\n      <Node pos="s" depth="0" NCoef="0" IVar="6" Cut="-7.7647811174392700e-01" cType="1" res="-9.9000000000000000e+01" rms="0.0000000000000000e+00" purity="5.0332534313201904e-01" nType="0">\n        <Node pos="l" depth="1" NCoef="0" IVar="2" Cut="4.7529689967632294e-02" cType="0" res="-9.9000000000000000e+01" rms="0.0000000000000000e+00" purity="5.1098072528839111e-01" nType="0">\n          <Node pos="l" depth="2" NCoef="0" IVar="-1" Cut="0.0000000000000000e+00" cType="1" res="-9.9000000000000000e+01" rms="0.0000000000000000e+00" purity="5.7111370563507080e-01" nType="1"/>\n          <Node pos="r" depth="2" NCoef="0" IVar="8" Cut="-8.7160474061965942e-01" cType="1" res="-9.9000000000000000e+01" rms="0.0000000000000000e+00" purity="5.0446420907974243e-01" nType="0">\n            <Node pos="l" depth="3" NCoef="0" IVar="-1" Cut="0.0000000000000000e+00" cType="1" res="-9.9000000000000000e+01" rms="0.0000000000000000e+00" purity="5.9713900089263916e-01" nType="1"/>\n            <Node pos="r" depth="3" NCoef="0" IVar="-1" Cut="0.0000000000000000e+00" cType="1" res="-9.9000000000000000e+01" rms="0.0000000000000000e+00" purity="4.9311643838882446e-01" nType="-1"/>\n          </Node>\n        </Node>\n        <Node pos="r" depth="1" NCoef="0" IVar="3" Cut="2.9251700639724731e-01" cType="0" res="-9.9000000000000000e+01" rms="0.0000000000000000e+00" purity="4.4897896051406860e-01" nType="0">\n          <Node pos="l" depth="2" NCoef="0" IVar="-1" Cut="0.0000000000000000e+00" cType="1" res="-9.9000000000000000e+01" rms="0.0000000000000000e+00" purity="5.0938153266906738e-01" nType="1"/>\n          <Node pos="r" depth="2" NCoef="0" IVar="-1" Cut="0.0000000000000000e+00" cType="1" res="-9.9000000000000000e+01" rms="0.0000000000000000e+00" purity="3.9364761114120483e-01" nType="-1"/>\n        </Node>\n      </Node>\n    </BinaryTree>\n    <BinaryTree type="DecisionTree" boostWeight="5.9804736222925391e-02" itree="32">\n      <Node pos="s" depth="0" NCoef="0" IVar="6" Cut="-7.7647811174392700e-01" cType="1" res="-9.9000000000000000e+01" rms="0.0000000000000000e+00" purity="5.1053637266159058e-01" nType="0">\n        <Node pos="l" depth="1" NCoef="0" IVar="3" Cut="-4.9659863114356995e-01" cType="0" res="-9.9000000000000000e+01" rms="0.0000000000000000e+00" purity="5.1913040876388550e-01" nType="0">\n          <Node pos="l" depth="2" NCoef="0" IVar="-1" Cut="-1.2568561732769012e-01" cType="0" res="-9.9000000000000000e+01" rms="0.0000000000000000e+00" purity="5.2459818124771118e-01" nType="1"/>\n          <Node pos="r" depth="2" NCoef="0" IVar="-1" Cut="0.0000000000000000e+00" cType="1" res="-9.9000000000000000e+01" rms="0.0000000000000000e+00" purity="4.3819999694824219e-01" nType="-1"/>\n        </Node>\n        <Node pos="r" depth="1" NCoef="0" IVar="-1" Cut="2.9251700639724731e-01" cType="0" res="-9.9000000000000000e+01" rms="0.0000000000000000e+00" purity="4.4940263032913208e-01" nType="-1"/>\n      </Node>\n    </BinaryTree>\n    <BinaryTree type="DecisionTree" boostWeight="7.7163040679343445e-02" itree="33">\n      <Node pos="s" depth="0" NCoef="0" IVar="14" Cut="6.1904764175415039e-01" cType="1" res="-9.9000000000000000e+01" rms="0.0000000000000000e+00" purity="5.0093436241149902e-01" nType="0">\n        <Node pos="l" depth="1" NCoef="0" IVar="-1" Cut="0.0000000000000000e+00" cType="1" res="-9.9000000000000000e+01" rms="0.0000000000000000e+00" purity="5.5969202518463135e-01" nType="1"/>\n        <Node pos="r" depth="1" NCoef="0" IVar="14" Cut="7.4606275558471680e-01" cType="0" res="-9.9000000000000000e+01" rms="0.0000000000000000e+00" purity="4.9478122591972351e-01" nType="0">\n          <Node pos="l" depth="2" NCoef="0" IVar="15" Cut="7.7565324306488037e-01" cType="1" res="-9.9000000000000000e+01" rms="0.0000000000000000e+00" purity="5.0878369808197021e-01" nType="0">\n            <Node pos="l" depth="3" NCoef="0" IVar="-1" Cut="0.0000000000000000e+00" cType="1" res="-9.9000000000000000e+01" rms="0.0000000000000000e+00" purity="5.6369382143020630e-01" nType="1"/>\n            <Node pos="r" depth="3" NCoef="0" IVar="-1" Cut="0.0000000000000000e+00" cType="1" res="-9.9000000000000000e+01" rms="0.0000000000000000e+00" purity="4.8911675810813904e-01" nType="-1"/>\n          </Node>\n          <Node pos="r" depth="2" NCoef="0" IVar="-1" Cut="0.0000000000000000e+00" cType="1" res="-9.9000000000000000e+01" rms="0.0000000000000000e+00" purity="3.2257577776908875e-01" nType="-1"/>\n        </Node>\n      </Node>\n    </BinaryTree>\n    <BinaryTree type="DecisionTree" boostWeight="1.2964439910493911e-01" itree="34">\n      <Node pos="s" depth="0" NCoef="0" IVar="4" Cut="-7.1403390169143677e-01" cType="1" res="-9.9000000000000000e+01" rms="0.0000000000000000e+00" purity="5.0807082653045654e-01" nType="0">\n        <Node pos="l" depth="1" NCoef="0" IVar="11" Cut="-9.0476191043853760e-01" cType="1" res="-9.9000000000000000e+01" rms="0.0000000000000000e+00" purity="5.2005803585052490e-01" nType="0">\n          <Node pos="l" depth="2" NCoef="0" IVar="-1" Cut="-8.0718672275543213e-01" cType="1" res="-9.9000000000000000e+01" rms="0.0000000000000000e+00" purity="5.5311530828475952e-01" nType="1"/>\n          <Node pos="r" depth="2" NCoef="0" IVar="14" Cut="7.6561307907104492e-01" cType="0" res="-9.9000000000000000e+01" rms="0.0000000000000000e+00" purity="4.8176246881484985e-01" nType="0">\n            <Node pos="l" depth="3" NCoef="0" IVar="-1" Cut="0.0000000000000000e+00" cType="1" res="-9.9000000000000000e+01" rms="0.0000000000000000e+00" purity="5.3285133838653564e-01" nType="1"/>\n            <Node pos="r" depth="3" NCoef="0" IVar="-1" Cut="0.0000000000000000e+00" cType="1" res="-9.9000000000000000e+01" rms="0.0000000000000000e+00" purity="3.6476796865463257e-01" nType="-1"/>\n          </Node>\n        </Node>\n        <Node pos="r" depth="1" NCoef="0" IVar="11" Cut="-9.0476191043853760e-01" cType="0" res="-9.9000000000000000e+01" rms="0.0000000000000000e+00" purity="4.7278749942779541e-01" nType="0">\n          <Node pos="l" depth="2" NCoef="0" IVar="-1" Cut="0.0000000000000000e+00" cType="1" res="-9.9000000000000000e+01" rms="0.0000000000000000e+00" purity="5.6542235612869263e-01" nType="1"/>\n          <Node pos="r" depth="2" NCoef="0" IVar="-1" Cut="-9.2549270391464233e-01" cType="1" res="-9.9000000000000000e+01" rms="0.0000000000000000e+00" purity="4.0381446480751038e-01" nType="-1"/>\n        </Node>\n      </Node>\n    </BinaryTree>\n    <BinaryTree type="DecisionTree" boostWeight="1.0662653881537858e-01" itree="35">\n      <Node pos="s" depth="0" NCoef="0" IVar="7" Cut="-3.3333334326744080e-01" cType="1" res="-9.9000000000000000e+01" rms="0.0000000000000000e+00" purity="4.9185010790824890e-01" nType="0">\n        <Node pos="l" depth="1" NCoef="0" IVar="30" Cut="-9.0476191043853760e-01" cType="0" res="-9.9000000000000000e+01" rms="0.0000000000000000e+00" purity="5.0224572420120239e-01" nType="0">\n          <Node pos="l" depth="2" NCoef="0" IVar="7" Cut="-7.5939851999282837e-01" cType="0" res="-9.9000000000000000e+01" rms="0.0000000000000000e+00" purity="5.2242141962051392e-01" nType="0">\n            <Node pos="l" depth="3" NCoef="0" IVar="-1" Cut="0.0000000000000000e+00" cType="1" res="-9.9000000000000000e+01" rms="0.0000000000000000e+00" purity="5.4668974876403809e-01" nType="1"/>\n            <Node pos="r" depth="3" NCoef="0" IVar="-1" Cut="0.0000000000000000e+00" cType="1" res="-9.9000000000000000e+01" rms="0.0000000000000000e+00" purity="3.8013076782226562e-01" nType="-1"/>\n          </Node>\n          <Node pos="r" depth="2" NCoef="0" IVar="7" Cut="-7.5939851999282837e-01" cType="1" res="-9.9000000000000000e+01" rms="0.0000000000000000e+00" purity="4.6741804480552673e-01" nType="0">\n            <Node pos="l" depth="3" NCoef="0" IVar="-1" Cut="0.0000000000000000e+00" cType="1" res="-9.9000000000000000e+01" rms="0.0000000000000000e+00" purity="5.0952541828155518e-01" nType="1"/>\n            <Node pos="r" depth="3" NCoef="0" IVar="-1" Cut="0.0000000000000000e+00" cType="1" res="-9.9000000000000000e+01" rms="0.0000000000000000e+00" purity="4.0370538830757141e-01" nType="-1"/>\n          </Node>\n        </Node>\n        <Node pos="r" depth="1" NCoef="0" IVar="-1" Cut="-7.1336501836776733e-01" cType="0" res="-9.9000000000000000e+01" rms="0.0000000000000000e+00" purity="4.5552602410316467e-01" nType="-1"/>\n      </Node>\n    </BinaryTree>\n    <BinaryTree type="DecisionTree" boostWeight="8.2766824665084712e-02" itree="36">\n      <Node pos="s" depth="0" NCoef="0" IVar="3" Cut="-3.3333334326744080e-01" cType="0" res="-9.9000000000000000e+01" rms="0.0000000000000000e+00" purity="4.8267811536788940e-01" nType="0">\n        <Node pos="l" depth="1" NCoef="0" IVar="3" Cut="-2.0634919404983521e-01" cType="1" res="-9.9000000000000000e+01" rms="0.0000000000000000e+00" purity="4.8933991789817810e-01" nType="0">\n          <Node pos="l" depth="2" NCoef="0" IVar="-1" Cut="0.0000000000000000e+00" cType="1" res="-9.9000000000000000e+01" rms="0.0000000000000000e+00" purity="5.8338260650634766e-01" nType="1"/>\n          <Node pos="r" depth="2" NCoef="0" IVar="2" Cut="-2.9901900887489319e-01" cType="0" res="-9.9000000000000000e+01" rms="0.0000000000000000e+00" purity="4.7907713055610657e-01" nType="0">\n            <Node pos="l" depth="3" NCoef="0" IVar="-1" Cut="0.0000000000000000e+00" cType="1" res="-9.9000000000000000e+01" rms="0.0000000000000000e+00" purity="5.2228039503097534e-01" nType="1"/>\n            <Node pos="r" depth="3" NCoef="0" IVar="-1" Cut="0.0000000000000000e+00" cType="1" res="-9.9000000000000000e+01" rms="0.0000000000000000e+00" purity="4.6376574039459229e-01" nType="-1"/>\n          </Node>\n        </Node>\n        <Node pos="r" depth="1" NCoef="0" IVar="-1" Cut="-4.9886620044708252e-01" cType="0" res="-9.9000000000000000e+01" rms="0.0000000000000000e+00" purity="4.2862501740455627e-01" nType="-1"/>\n      </Node>\n    </BinaryTree>\n    <BinaryTree type="DecisionTree" boostWeight="6.7745644631151777e-02" itree="37">\n      <Node pos="s" depth="0" NCoef="0" IVar="4" Cut="-7.1403390169143677e-01" cType="1" res="-9.9000000000000000e+01" rms="0.0000000000000000e+00" purity="4.9101737141609192e-01" nType="0">\n        <Node pos="l" depth="1" NCoef="0" IVar="4" Cut="-8.5007625818252563e-01" cType="1" res="-9.9000000000000000e+01" rms="0.0000000000000000e+00" purity="5.0243067741394043e-01" nType="0">\n          <Node pos="l" depth="2" NCoef="0" IVar="4" Cut="-9.0710335969924927e-01" cType="0" res="-9.9000000000000000e+01" rms="0.0000000000000000e+00" purity="5.1351761817932129e-01" nType="0">\n            <Node pos="l" depth="3" NCoef="0" IVar="-1" Cut="0.0000000000000000e+00" cType="1" res="-9.9000000000000000e+01" rms="0.0000000000000000e+00" purity="5.9192007780075073e-01" nType="1"/>\n            <Node pos="r" depth="3" NCoef="0" IVar="-1" Cut="0.0000000000000000e+00" cType="1" res="-9.9000000000000000e+01" rms="0.0000000000000000e+00" purity="4.9735835194587708e-01" nType="-1"/>\n          </Node>\n          <Node pos="r" depth="2" NCoef="0" IVar="-1" Cut="0.0000000000000000e+00" cType="1" res="-9.9000000000000000e+01" rms="0.0000000000000000e+00" purity="4.2757409811019897e-01" nType="-1"/>\n        </Node>\n        <Node pos="r" depth="1" NCoef="0" IVar="11" Cut="-9.0476191043853760e-01" cType="0" res="-9.9000000000000000e+01" rms="0.0000000000000000e+00" purity="4.5715293288230896e-01" nType="0">\n          <Node pos="l" depth="2" NCoef="0" IVar="-1" Cut="0.0000000000000000e+00" cType="1" res="-9.9000000000000000e+01" rms="0.0000000000000000e+00" purity="5.0995570421218872e-01" nType="1"/>\n          <Node pos="r" depth="2" NCoef="0" IVar="6" Cut="-9.2549270391464233e-01" cType="1" res="-9.9000000000000000e+01" rms="0.0000000000000000e+00" purity="4.1806921362876892e-01" nType="0">\n            <Node pos="l" depth="3" NCoef="0" IVar="-1" Cut="0.0000000000000000e+00" cType="1" res="-9.9000000000000000e+01" rms="0.0000000000000000e+00" purity="5.1510649919509888e-01" nType="1"/>\n            <Node pos="r" depth="3" NCoef="0" IVar="-1" Cut="0.0000000000000000e+00" cType="1" res="-9.9000000000000000e+01" rms="0.0000000000000000e+00" purity="3.1651073694229126e-01" nType="-1"/>\n          </Node>\n        </Node>\n      </Node>\n    </BinaryTree>\n    <BinaryTree type="DecisionTree" boostWeight="7.2717798666581901e-02" itree="38">\n      <Node pos="s" depth="0" NCoef="0" IVar="4" Cut="-7.1403390169143677e-01" cType="1" res="-9.9000000000000000e+01" rms="0.0000000000000000e+00" purity="4.9803480505943298e-01" nType="0">\n        <Node pos="l" depth="1" NCoef="0" IVar="4" Cut="-8.7728166580200195e-01" cType="1" res="-9.9000000000000000e+01" rms="0.0000000000000000e+00" purity="5.1434510946273804e-01" nType="0">\n          <Node pos="l" depth="2" NCoef="0" IVar="-1" Cut="-9.1808992624282837e-01" cType="0" res="-9.9000000000000000e+01" rms="0.0000000000000000e+00" purity="5.2799105644226074e-01" nType="1"/>\n          <Node pos="r" depth="2" NCoef="0" IVar="-1" Cut="0.0000000000000000e+00" cType="1" res="-9.9000000000000000e+01" rms="0.0000000000000000e+00" purity="4.5242822170257568e-01" nType="-1"/>\n        </Node>\n        <Node pos="r" depth="1" NCoef="0" IVar="-1" Cut="-9.6088051795959473e-02" cType="0" res="-9.9000000000000000e+01" rms="0.0000000000000000e+00" purity="4.4952461123466492e-01" nType="-1"/>\n      </Node>\n    </BinaryTree>\n    <BinaryTree type="DecisionTree" boostWeight="7.9399370364162100e-02" itree="39">\n      <Node pos="s" depth="0" NCoef="0" IVar="12" Cut="-9.0476191043853760e-01" cType="1" res="-9.9000000000000000e+01" rms="0.0000000000000000e+00" purity="4.9390369653701782e-01" nType="0">\n        <Node pos="l" depth="1" NCoef="0" IVar="-1" Cut="0.0000000000000000e+00" cType="1" res="-9.9000000000000000e+01" rms="0.0000000000000000e+00" purity="5.4259830713272095e-01" nType="1"/>\n        <Node pos="r" depth="1" NCoef="0" IVar="14" Cut="7.4887692928314209e-01" cType="0" res="-9.9000000000000000e+01" rms="0.0000000000000000e+00" purity="4.8674264550209045e-01" nType="0">\n          <Node pos="l" depth="2" NCoef="0" IVar="14" Cut="7.7279341220855713e-01" cType="0" res="-9.9000000000000000e+01" rms="0.0000000000000000e+00" purity="5.0277519226074219e-01" nType="0">\n            <Node pos="l" depth="3" NCoef="0" IVar="-1" Cut="0.0000000000000000e+00" cType="1" res="-9.9000000000000000e+01" rms="0.0000000000000000e+00" purity="5.3000217676162720e-01" nType="1"/>\n            <Node pos="r" depth="3" NCoef="0" IVar="-1" Cut="0.0000000000000000e+00" cType="1" res="-9.9000000000000000e+01" rms="0.0000000000000000e+00" purity="4.7887718677520752e-01" nType="-1"/>\n          </Node>\n          <Node pos="r" depth="2" NCoef="0" IVar="-1" Cut="0.0000000000000000e+00" cType="1" res="-9.9000000000000000e+01" rms="0.0000000000000000e+00" purity="2.9145509004592896e-01" nType="-1"/>\n        </Node>\n      </Node>\n    </BinaryTree>\n    <BinaryTree type="DecisionTree" boostWeight="7.1240570812563506e-02" itree="40">\n      <Node pos="s" depth="0" NCoef="0" IVar="19" Cut="-9.0476191043853760e-01" cType="1" res="-9.9000000000000000e+01" rms="0.0000000000000000e+00" purity="4.9369332194328308e-01" nType="0">\n        <Node pos="l" depth="1" NCoef="0" IVar="30" Cut="-9.0476191043853760e-01" cType="0" res="-9.9000000000000000e+01" rms="0.0000000000000000e+00" purity="4.9831780791282654e-01" nType="0">\n          <Node pos="l" depth="2" NCoef="0" IVar="31" Cut="9.9275738000869751e-01" cType="0" res="-9.9000000000000000e+01" rms="0.0000000000000000e+00" purity="5.1567488908767700e-01" nType="0">\n            <Node pos="l" depth="3" NCoef="0" IVar="-1" Cut="0.0000000000000000e+00" cType="1" res="-9.9000000000000000e+01" rms="0.0000000000000000e+00" purity="6.3920271396636963e-01" nType="1"/>\n            <Node pos="r" depth="3" NCoef="0" IVar="-1" Cut="0.0000000000000000e+00" cType="1" res="-9.9000000000000000e+01" rms="0.0000000000000000e+00" purity="4.9611794948577881e-01" nType="-1"/>\n          </Node>\n          <Node pos="r" depth="2" NCoef="0" IVar="13" Cut="-9.0476191043853760e-01" cType="0" res="-9.9000000000000000e+01" rms="0.0000000000000000e+00" purity="4.5417037606239319e-01" nType="0">\n            <Node pos="l" depth="3" NCoef="0" IVar="-1" Cut="0.0000000000000000e+00" cType="1" res="-9.9000000000000000e+01" rms="0.0000000000000000e+00" purity="5.1737737655639648e-01" nType="1"/>\n            <Node pos="r" depth="3" NCoef="0" IVar="-1" Cut="0.0000000000000000e+00" cType="1" res="-9.9000000000000000e+01" rms="0.0000000000000000e+00" purity="4.0793666243553162e-01" nType="-1"/>\n          </Node>\n        </Node>\n        <Node pos="r" depth="1" NCoef="0" IVar="-1" Cut="0.0000000000000000e+00" cType="1" res="-9.9000000000000000e+01" rms="0.0000000000000000e+00" purity="4.3230792880058289e-01" nType="-1"/>\n      </Node>\n    </BinaryTree>\n    <BinaryTree type="DecisionTree" boostWeight="4.9616580733135247e-02" itree="41">\n      <Node pos="s" depth="0" NCoef="0" IVar="3" Cut="-3.3333334326744080e-01" cType="0" res="-9.9000000000000000e+01" rms="0.0000000000000000e+00" purity="5.0431096553802490e-01" nType="0">\n        <Node pos="l" depth="1" NCoef="0" IVar="7" Cut="-8.0952382087707520e-01" cType="0" res="-9.9000000000000000e+01" rms="0.0000000000000000e+00" purity="5.1072359085083008e-01" nType="0">\n          <Node pos="l" depth="2" NCoef="0" IVar="-1" Cut="-2.0634919404983521e-01" cType="1" res="-9.9000000000000000e+01" rms="0.0000000000000000e+00" purity="5.1740276813507080e-01" nType="1"/>\n          <Node pos="r" depth="2" NCoef="0" IVar="-1" Cut="0.0000000000000000e+00" cType="1" res="-9.9000000000000000e+01" rms="0.0000000000000000e+00" purity="4.0907955169677734e-01" nType="-1"/>\n        </Node>\n        <Node pos="r" depth="1" NCoef="0" IVar="-1" Cut="-4.9886620044708252e-01" cType="0" res="-9.9000000000000000e+01" rms="0.0000000000000000e+00" purity="4.5190188288688660e-01" nType="-1"/>\n      </Node>\n    </BinaryTree>\n    <BinaryTree type="DecisionTree" boostWeight="7.6704144496742413e-02" itree="42">\n      <Node pos="s" depth="0" NCoef="0" IVar="7" Cut="-4.7619048506021500e-02" cType="1" res="-9.9000000000000000e+01" rms="0.0000000000000000e+00" purity="4.9597105383872986e-01" nType="0">\n        <Node pos="l" depth="1" NCoef="0" IVar="3" Cut="2.0634920895099640e-01" cType="0" res="-9.9000000000000000e+01" rms="0.0000000000000000e+00" purity="5.0015485286712646e-01" nType="0">\n          <Node pos="l" depth="2" NCoef="0" IVar="8" Cut="-6.0167938470840454e-01" cType="0" res="-9.9000000000000000e+01" rms="0.0000000000000000e+00" purity="5.3032815456390381e-01" nType="0">\n            <Node pos="l" depth="3" NCoef="0" IVar="-1" Cut="0.0000000000000000e+00" cType="1" res="-9.9000000000000000e+01" rms="0.0000000000000000e+00" purity="5.8833324909210205e-01" nType="1"/>\n            <Node pos="r" depth="3" NCoef="0" IVar="-1" Cut="0.0000000000000000e+00" cType="1" res="-9.9000000000000000e+01" rms="0.0000000000000000e+00" purity="4.7135883569717407e-01" nType="-1"/>\n          </Node>\n          <Node pos="r" depth="2" NCoef="0" IVar="2" Cut="-4.2862015962600708e-01" cType="1" res="-9.9000000000000000e+01" rms="0.0000000000000000e+00" purity="4.8909494280815125e-01" nType="0">\n            <Node pos="l" depth="3" NCoef="0" IVar="-1" Cut="0.0000000000000000e+00" cType="1" res="-9.9000000000000000e+01" rms="0.0000000000000000e+00" purity="5.1498270034790039e-01" nType="1"/>\n            <Node pos="r" depth="3" NCoef="0" IVar="-1" Cut="0.0000000000000000e+00" cType="1" res="-9.9000000000000000e+01" rms="0.0000000000000000e+00" purity="4.5327445864677429e-01" nType="-1"/>\n          </Node>\n        </Node>\n        <Node pos="r" depth="1" NCoef="0" IVar="-1" Cut="0.0000000000000000e+00" cType="1" res="-9.9000000000000000e+01" rms="0.0000000000000000e+00" purity="4.3549877405166626e-01" nType="-1"/>\n      </Node>\n    </BinaryTree>\n    <BinaryTree type="DecisionTree" boostWeight="7.6064631761916038e-02" itree="43">\n      <Node pos="s" depth="0" NCoef="0" IVar="3" Cut="2.3809523880481720e-01" cType="0" res="-9.9000000000000000e+01" rms="0.0000000000000000e+00" purity="4.9504560232162476e-01" nType="0">\n        <Node pos="l" depth="1" NCoef="0" IVar="5" Cut="-9.0811425447463989e-01" cType="0" res="-9.9000000000000000e+01" rms="0.0000000000000000e+00" purity="5.2211195230484009e-01" nType="0">\n          <Node pos="l" depth="2" NCoef="0" IVar="-1" Cut="7.1428573131561279e-01" cType="1" res="-9.9000000000000000e+01" rms="0.0000000000000000e+00" purity="5.5846530199050903e-01" nType="1"/>\n          <Node pos="r" depth="2" NCoef="0" IVar="11" Cut="-9.0476191043853760e-01" cType="1" res="-9.9000000000000000e+01" rms="0.0000000000000000e+00" purity="4.8789149522781372e-01" nType="0">\n            <Node pos="l" depth="3" NCoef="0" IVar="-1" Cut="0.0000000000000000e+00" cType="1" res="-9.9000000000000000e+01" rms="0.0000000000000000e+00" purity="5.3288078308105469e-01" nType="1"/>\n            <Node pos="r" depth="3" NCoef="0" IVar="-1" Cut="0.0000000000000000e+00" cType="1" res="-9.9000000000000000e+01" rms="0.0000000000000000e+00" purity="3.9903837442398071e-01" nType="-1"/>\n          </Node>\n        </Node>\n        <Node pos="r" depth="1" NCoef="0" IVar="7" Cut="-5.4887217283248901e-01" cType="1" res="-9.9000000000000000e+01" rms="0.0000000000000000e+00" purity="4.8300379514694214e-01" nType="0">\n          <Node pos="l" depth="2" NCoef="0" IVar="4" Cut="4.7758948057889938e-02" cType="0" res="-9.9000000000000000e+01" rms="0.0000000000000000e+00" purity="4.9936670064926147e-01" nType="0">\n            <Node pos="l" depth="3" NCoef="0" IVar="-1" Cut="0.0000000000000000e+00" cType="1" res="-9.9000000000000000e+01" rms="0.0000000000000000e+00" purity="5.6626182794570923e-01" nType="1"/>\n            <Node pos="r" depth="3" NCoef="0" IVar="-1" Cut="0.0000000000000000e+00" cType="1" res="-9.9000000000000000e+01" rms="0.0000000000000000e+00" purity="4.9042066931724548e-01" nType="-1"/>\n          </Node>\n          <Node pos="r" depth="2" NCoef="0" IVar="-1" Cut="-9.0476191043853760e-01" cType="0" res="-9.9000000000000000e+01" rms="0.0000000000000000e+00" purity="4.1876909136772156e-01" nType="-1"/>\n        </Node>\n      </Node>\n    </BinaryTree>\n    <BinaryTree type="DecisionTree" boostWeight="7.5501046571187086e-02" itree="44">\n      <Node pos="s" depth="0" NCoef="0" IVar="10" Cut="-9.0476191043853760e-01" cType="1" res="-9.9000000000000000e+01" rms="0.0000000000000000e+00" purity="5.0190651416778564e-01" nType="0">\n        <Node pos="l" depth="1" NCoef="0" IVar="-1" Cut="-5.0055980682373047e-01" cType="0" res="-9.9000000000000000e+01" rms="0.0000000000000000e+00" purity="5.3090840578079224e-01" nType="1"/>\n        <Node pos="r" depth="1" NCoef="0" IVar="14" Cut="7.4887692928314209e-01" cType="0" res="-9.9000000000000000e+01" rms="0.0000000000000000e+00" purity="4.9116250872612000e-01" nType="0">\n          <Node pos="l" depth="2" NCoef="0" IVar="23" Cut="-9.0476191043853760e-01" cType="1" res="-9.9000000000000000e+01" rms="0.0000000000000000e+00" purity="5.1125240325927734e-01" nType="0">\n            <Node pos="l" depth="3" NCoef="0" IVar="-1" Cut="0.0000000000000000e+00" cType="1" res="-9.9000000000000000e+01" rms="0.0000000000000000e+00" purity="5.5597025156021118e-01" nType="1"/>\n            <Node pos="r" depth="3" NCoef="0" IVar="-1" Cut="0.0000000000000000e+00" cType="1" res="-9.9000000000000000e+01" rms="0.0000000000000000e+00" purity="4.9473810195922852e-01" nType="-1"/>\n          </Node>\n          <Node pos="r" depth="2" NCoef="0" IVar="-1" Cut="0.0000000000000000e+00" cType="1" res="-9.9000000000000000e+01" rms="0.0000000000000000e+00" purity="2.8865608572959900e-01" nType="-1"/>\n        </Node>\n      </Node>\n    </BinaryTree>\n    <BinaryTree type="DecisionTree" boostWeight="8.9909967483797065e-02" itree="45">\n      <Node pos="s" depth="0" NCoef="0" IVar="30" Cut="-9.0476191043853760e-01" cType="0" res="-9.9000000000000000e+01" rms="0.0000000000000000e+00" purity="5.0799816846847534e-01" nType="0">\n        <Node pos="l" depth="1" NCoef="0" IVar="31" Cut="9.9275738000869751e-01" cType="0" res="-9.9000000000000000e+01" rms="0.0000000000000000e+00" purity="5.1786631345748901e-01" nType="0">\n          <Node pos="l" depth="2" NCoef="0" IVar="-1" Cut="0.0000000000000000e+00" cType="1" res="-9.9000000000000000e+01" rms="0.0000000000000000e+00" purity="6.1957770586013794e-01" nType="1"/>\n          <Node pos="r" depth="2" NCoef="0" IVar="5" Cut="-9.0820270776748657e-01" cType="0" res="-9.9000000000000000e+01" rms="0.0000000000000000e+00" purity="5.0209903717041016e-01" nType="0">\n            <Node pos="l" depth="3" NCoef="0" IVar="-1" Cut="0.0000000000000000e+00" cType="1" res="-9.9000000000000000e+01" rms="0.0000000000000000e+00" purity="5.2783250808715820e-01" nType="1"/>\n            <Node pos="r" depth="3" NCoef="0" IVar="-1" Cut="0.0000000000000000e+00" cType="1" res="-9.9000000000000000e+01" rms="0.0000000000000000e+00" purity="4.7403961420059204e-01" nType="-1"/>\n          </Node>\n        </Node>\n        <Node pos="r" depth="1" NCoef="0" IVar="18" Cut="8.4811842441558838e-01" cType="1" res="-9.9000000000000000e+01" rms="0.0000000000000000e+00" purity="4.8395559191703796e-01" nType="0">\n          <Node pos="l" depth="2" NCoef="0" IVar="2" Cut="-4.7272023558616638e-01" cType="1" res="-9.9000000000000000e+01" rms="0.0000000000000000e+00" purity="5.2345257997512817e-01" nType="0">\n            <Node pos="l" depth="3" NCoef="0" IVar="-1" Cut="0.0000000000000000e+00" cType="1" res="-9.9000000000000000e+01" rms="0.0000000000000000e+00" purity="5.7052975893020630e-01" nType="1"/>\n            <Node pos="r" depth="3" NCoef="0" IVar="-1" Cut="0.0000000000000000e+00" cType="1" res="-9.9000000000000000e+01" rms="0.0000000000000000e+00" purity="4.6257126331329346e-01" nType="-1"/>\n          </Node>\n          <Node pos="r" depth="2" NCoef="0" IVar="-1" Cut="0.0000000000000000e+00" cType="1" res="-9.9000000000000000e+01" rms="0.0000000000000000e+00" purity="4.3954932689666748e-01" nType="-1"/>\n        </Node>\n      </Node>\n    </BinaryTree>\n    <BinaryTree type="DecisionTree" boostWeight="1.0075590176050513e-01" itree="46">\n      <Node pos="s" depth="0" NCoef="0" IVar="4" Cut="-7.1403390169143677e-01" cType="1" res="-9.9000000000000000e+01" rms="0.0000000000000000e+00" purity="5.0793117284774780e-01" nType="0">\n        <Node pos="l" depth="1" NCoef="0" IVar="3" Cut="-8.8435374200344086e-02" cType="1" res="-9.9000000000000000e+01" rms="0.0000000000000000e+00" purity="5.1831525564193726e-01" nType="0">\n          <Node pos="l" depth="2" NCoef="0" IVar="4" Cut="-9.7229427099227905e-01" cType="0" res="-9.9000000000000000e+01" rms="0.0000000000000000e+00" purity="5.5662608146667480e-01" nType="0">\n            <Node pos="l" depth="3" NCoef="0" IVar="-1" Cut="0.0000000000000000e+00" cType="1" res="-9.9000000000000000e+01" rms="0.0000000000000000e+00" purity="6.2522065639495850e-01" nType="1"/>\n            <Node pos="r" depth="3" NCoef="0" IVar="-1" Cut="0.0000000000000000e+00" cType="1" res="-9.9000000000000000e+01" rms="0.0000000000000000e+00" purity="4.7027829289436340e-01" nType="-1"/>\n          </Node>\n          <Node pos="r" depth="2" NCoef="0" IVar="9" Cut="8.4249079227447510e-02" cType="0" res="-9.9000000000000000e+01" rms="0.0000000000000000e+00" purity="5.0350952148437500e-01" nType="0">\n            <Node pos="l" depth="3" NCoef="0" IVar="-1" Cut="0.0000000000000000e+00" cType="1" res="-9.9000000000000000e+01" rms="0.0000000000000000e+00" purity="5.2154409885406494e-01" nType="1"/>\n            <Node pos="r" depth="3" NCoef="0" IVar="-1" Cut="0.0000000000000000e+00" cType="1" res="-9.9000000000000000e+01" rms="0.0000000000000000e+00" purity="4.2772981524467468e-01" nType="-1"/>\n          </Node>\n        </Node>\n        <Node pos="r" depth="1" NCoef="0" IVar="11" Cut="-9.0476191043853760e-01" cType="0" res="-9.9000000000000000e+01" rms="0.0000000000000000e+00" purity="4.7717773914337158e-01" nType="0">\n          <Node pos="l" depth="2" NCoef="0" IVar="-1" Cut="0.0000000000000000e+00" cType="1" res="-9.9000000000000000e+01" rms="0.0000000000000000e+00" purity="5.4246836900711060e-01" nType="1"/>\n          <Node pos="r" depth="2" NCoef="0" IVar="6" Cut="-9.2549270391464233e-01" cType="1" res="-9.9000000000000000e+01" rms="0.0000000000000000e+00" purity="4.2780071496963501e-01" nType="0">\n            <Node pos="l" depth="3" NCoef="0" IVar="-1" Cut="0.0000000000000000e+00" cType="1" res="-9.9000000000000000e+01" rms="0.0000000000000000e+00" purity="5.0716531276702881e-01" nType="1"/>\n            <Node pos="r" depth="3" NCoef="0" IVar="-1" Cut="0.0000000000000000e+00" cType="1" res="-9.9000000000000000e+01" rms="0.0000000000000000e+00" purity="3.4412589669227600e-01" nType="-1"/>\n          </Node>\n        </Node>\n      </Node>\n    </BinaryTree>\n    <BinaryTree type="DecisionTree" boostWeight="5.8569982142408793e-02" itree="47">\n      <Node pos="s" depth="0" NCoef="0" IVar="4" Cut="-7.1403390169143677e-01" cType="1" res="-9.9000000000000000e+01" rms="0.0000000000000000e+00" purity="4.9612650275230408e-01" nType="0">\n        <Node pos="l" depth="1" NCoef="0" IVar="3" Cut="-8.8435374200344086e-02" cType="1" res="-9.9000000000000000e+01" rms="0.0000000000000000e+00" purity="5.0636738538742065e-01" nType="0">\n          <Node pos="l" depth="2" NCoef="0" IVar="-1" Cut="-6.7418545484542847e-01" cType="0" res="-9.9000000000000000e+01" rms="0.0000000000000000e+00" purity="5.5419492721557617e-01" nType="1"/>\n          <Node pos="r" depth="2" NCoef="0" IVar="-1" Cut="-7.1428573131561279e-01" cType="0" res="-9.9000000000000000e+01" rms="0.0000000000000000e+00" purity="4.8798030614852905e-01" nType="-1"/>\n        </Node>\n        <Node pos="r" depth="1" NCoef="0" IVar="2" Cut="-9.6088051795959473e-02" cType="0" res="-9.9000000000000000e+01" rms="0.0000000000000000e+00" purity="4.6574214100837708e-01" nType="0">\n          <Node pos="l" depth="2" NCoef="0" IVar="-1" Cut="0.0000000000000000e+00" cType="1" res="-9.9000000000000000e+01" rms="0.0000000000000000e+00" purity="5.1129323244094849e-01" nType="1"/>\n          <Node pos="r" depth="2" NCoef="0" IVar="-1" Cut="-3.0595409870147705e-01" cType="0" res="-9.9000000000000000e+01" rms="0.0000000000000000e+00" purity="4.1955080628395081e-01" nType="-1"/>\n        </Node>\n      </Node>\n    </BinaryTree>\n    <BinaryTree type="DecisionTree" boostWeight="7.0563446845211847e-02" itree="48">\n      <Node pos="s" depth="0" NCoef="0" IVar="4" Cut="-7.1403390169143677e-01" cType="1" res="-9.9000000000000000e+01" rms="0.0000000000000000e+00" purity="5.0097024440765381e-01" nType="0">\n        <Node pos="l" depth="1" NCoef="0" IVar="8" Cut="-8.6709254980087280e-01" cType="1" res="-9.9000000000000000e+01" rms="0.0000000000000000e+00" purity="5.1289385557174683e-01" nType="0">\n          <Node pos="l" depth="2" NCoef="0" IVar="-1" Cut="0.0000000000000000e+00" cType="1" res="-9.9000000000000000e+01" rms="0.0000000000000000e+00" purity="5.7222425937652588e-01" nType="1"/>\n          <Node pos="r" depth="2" NCoef="0" IVar="14" Cut="7.1428573131561279e-01" cType="0" res="-9.9000000000000000e+01" rms="0.0000000000000000e+00" purity="5.0549030303955078e-01" nType="0">\n            <Node pos="l" depth="3" NCoef="0" IVar="-1" Cut="0.0000000000000000e+00" cType="1" res="-9.9000000000000000e+01" rms="0.0000000000000000e+00" purity="5.1710599660873413e-01" nType="1"/>\n            <Node pos="r" depth="3" NCoef="0" IVar="-1" Cut="0.0000000000000000e+00" cType="1" res="-9.9000000000000000e+01" rms="0.0000000000000000e+00" purity="3.9213085174560547e-01" nType="-1"/>\n          </Node>\n        </Node>\n        <Node pos="r" depth="1" NCoef="0" IVar="11" Cut="-9.0476191043853760e-01" cType="0" res="-9.9000000000000000e+01" rms="0.0000000000000000e+00" purity="4.6554794907569885e-01" nType="0">\n          <Node pos="l" depth="2" NCoef="0" IVar="-1" Cut="0.0000000000000000e+00" cType="1" res="-9.9000000000000000e+01" rms="0.0000000000000000e+00" purity="5.1638352870941162e-01" nType="1"/>\n          <Node pos="r" depth="2" NCoef="0" IVar="-1" Cut="-9.2549270391464233e-01" cType="1" res="-9.9000000000000000e+01" rms="0.0000000000000000e+00" purity="4.2692545056343079e-01" nType="-1"/>\n        </Node>\n      </Node>\n    </BinaryTree>\n    <BinaryTree type="DecisionTree" boostWeight="5.9372595012445815e-02" itree="49">\n      <Node pos="s" depth="0" NCoef="0" IVar="14" Cut="6.1904764175415039e-01" cType="1" res="-9.9000000000000000e+01" rms="0.0000000000000000e+00" purity="4.9054062366485596e-01" nType="0">\n        <Node pos="l" depth="1" NCoef="0" IVar="-1" Cut="0.0000000000000000e+00" cType="1" res="-9.9000000000000000e+01" rms="0.0000000000000000e+00" purity="5.4052120447158813e-01" nType="1"/>\n        <Node pos="r" depth="1" NCoef="0" IVar="14" Cut="7.4606275558471680e-01" cType="0" res="-9.9000000000000000e+01" rms="0.0000000000000000e+00" purity="4.8520857095718384e-01" nType="0">\n          <Node pos="l" depth="2" NCoef="0" IVar="14" Cut="7.5815594196319580e-01" cType="0" res="-9.9000000000000000e+01" rms="0.0000000000000000e+00" purity="4.9906843900680542e-01" nType="0">\n            <Node pos="l" depth="3" NCoef="0" IVar="-1" Cut="0.0000000000000000e+00" cType="1" res="-9.9000000000000000e+01" rms="0.0000000000000000e+00" purity="5.0789594650268555e-01" nType="1"/>\n            <Node pos="r" depth="3" NCoef="0" IVar="-1" Cut="0.0000000000000000e+00" cType="1" res="-9.9000000000000000e+01" rms="0.0000000000000000e+00" purity="3.8255441188812256e-01" nType="-1"/>\n          </Node>\n          <Node pos="r" depth="2" NCoef="0" IVar="-1" Cut="0.0000000000000000e+00" cType="1" res="-9.9000000000000000e+01" rms="0.0000000000000000e+00" purity="2.9129964113235474e-01" nType="-1"/>\n        </Node>\n      </Node>\n    </BinaryTree>\n  </Weights>\n</MethodSetup>\n'
p82
sb.