ccopy_reg
_reconstructor
p0
(crep.estimators.tmva
TMVAClassifier
p1
c__builtin__
object
p2
Ntp3
Rp4
(dp5
S'classes_'
p6
cnumpy.core.multiarray
_reconstruct
p7
(cnumpy
ndarray
p8
(I0
tp9
S'b'
p10
tp11
Rp12
(I1
(I2
tp13
cnumpy
dtype
p14
(S'i4'
p15
I0
I1
tp16
Rp17
(I3
S'<'
p18
NNNI-1
I-1
I0
tp19
bI00
S'\x00\x00\x00\x00\x01\x00\x00\x00'
p20
tp21
bsS'features'
p22
(lp23
S'Feature_0'
p24
aS'Feature_1'
p25
aS'Feature_2'
p26
aS'Feature_3'
p27
aS'Feature_4'
p28
aS'Feature_5'
p29
aS'Feature_6'
p30
aS'Feature_7'
p31
aS'Feature_8'
p32
aS'Feature_9'
p33
aS'Feature_10'
p34
aS'Feature_11'
p35
aS'Feature_12'
p36
aS'Feature_13'
p37
aS'Feature_14'
p38
aS'Feature_15'
p39
aS'Feature_16'
p40
aS'Feature_17'
p41
aS'Feature_18'
p42
aS'Feature_19'
p43
aS'Feature_20'
p44
aS'Feature_21'
p45
aS'Feature_22'
p46
aS'Feature_23'
p47
aS'Feature_24'
p48
aS'Feature_25'
p49
aS'Feature_26'
p50
aS'Feature_27'
p51
aS'Feature_28'
p52
aS'Feature_29'
p53
aS'Feature_30'
p54
aS'Feature_31'
p55
asS'n_classes_'
p56
I2
sS'sigmoid_function'
p57
S'bdt'
p58
sS'_method_name'
p59
S'REP_Estimator'
p60
sS'method_parameters'
p61
(dp62
S'VarTransform'
p63
S'Norm'
p64
sS'PruningValFraction'
p65
F0.3
sS'NTrees'
p66
I50
sS'PruneStrength'
p67
I-1
sS'H'
p68
S'false'
p69
sS'PruneMethod'
p70
S'CostComplexity'
p71
sS'MaxDepth'
p72
I3
sS'V'
p73
S'true'
p74
sS'BoostType'
p75
S'AdaBoost'
p76
ssS'factory_options'
p77
S'V:!Silent:!Color:!DrawProgressBar:AnalysisType=Classification:AnalysisType=Classification:AnalysisType=Classification:AnalysisType=Classification:AnalysisType=Classification'
p78
sS'method'
p79
S'kBDT'
p80
sS'formula_xml'
p81
S'<?xml version="1.0"?>\n<MethodSetup Method="BDT::REP_Estimator">\n  <GeneralInfo>\n    <Info name="TMVA Release" value="4.2.0 [262656]"/>\n    <Info name="ROOT Release" value="5.34/32 [336416]"/>\n    <Info name="Creator" value="root"/>\n    <Info name="Date" value="Thu Feb 25 16:05:47 2016"/>\n    <Info name="Host" value="Linux localhost.localdomain 2.6.32-431.1.2.el6.x86_64 #1 SMP Thu Dec 12 13:59:19 CST 2013 x86_64 x86_64 x86_64 GNU/Linux"/>\n    <Info name="Dir" value="/notebooks/PID/sergey_korolev/tmpdFwLos"/>\n    <Info name="Training events" value="120000"/>\n    <Info name="TrainingTime" value="1.01890349e+01"/>\n    <Info name="AnalysisType" value="Classification"/>\n  </GeneralInfo>\n  <Options>\n    <Option name="V" modified="Yes">True</Option>\n    <Option name="VerbosityLevel" modified="No">Verbose</Option>\n    <Option name="VarTransform" modified="Yes">Norm</Option>\n    <Option name="H" modified="Yes">False</Option>\n    <Option name="CreateMVAPdfs" modified="No">False</Option>\n    <Option name="IgnoreNegWeightsInTraining" modified="No">False</Option>\n    <Option name="NTrees" modified="Yes">50</Option>\n    <Option name="MaxDepth" modified="Yes">3</Option>\n    <Option name="MinNodeSize" modified="No">5%</Option>\n    <Option name="nCuts" modified="No">20</Option>\n    <Option name="BoostType" modified="Yes">AdaBoost</Option>\n    <Option name="AdaBoostR2Loss" modified="No">quadratic</Option>\n    <Option name="UseBaggedBoost" modified="No">False</Option>\n    <Option name="Shrinkage" modified="No">1.000000e+00</Option>\n    <Option name="AdaBoostBeta" modified="No">5.000000e-01</Option>\n    <Option name="UseRandomisedTrees" modified="No">False</Option>\n    <Option name="UseNvars" modified="No">6</Option>\n    <Option name="UsePoissonNvars" modified="No">True</Option>\n    <Option name="BaggedSampleFraction" modified="No">6.000000e-01</Option>\n    <Option name="UseYesNoLeaf" modified="No">True</Option>\n    <Option name="NegWeightTreatment" modified="No">inverseboostnegweights</Option>\n    <Option name="Css" modified="No">1.000000e+00</Option>\n    <Option name="Cts_sb" modified="No">1.000000e+00</Option>\n    <Option name="Ctb_ss" modified="No">1.000000e+00</Option>\n    <Option name="Cbb" modified="No">1.000000e+00</Option>\n    <Option name="NodePurityLimit" modified="No">5.000000e-01</Option>\n    <Option name="SeparationType" modified="No">giniindex</Option>\n    <Option name="DoBoostMonitor" modified="No">False</Option>\n    <Option name="UseFisherCuts" modified="No">False</Option>\n    <Option name="MinLinCorrForFisher" modified="No">8.000000e-01</Option>\n    <Option name="UseExclusiveVars" modified="No">False</Option>\n    <Option name="DoPreselection" modified="No">False</Option>\n    <Option name="SigToBkgFraction" modified="No">1.000000e+00</Option>\n    <Option name="PruneMethod" modified="Yes">costcomplexity</Option>\n    <Option name="PruneStrength" modified="Yes">-1.000000e+00</Option>\n    <Option name="PruningValFraction" modified="Yes">3.000000e-01</Option>\n    <Option name="nEventsMin" modified="No">0</Option>\n    <Option name="UseBaggedGrad" modified="No">False</Option>\n    <Option name="GradBaggingFraction" modified="No">6.000000e-01</Option>\n    <Option name="UseNTrainEvents" modified="No">0</Option>\n    <Option name="NNodesMax" modified="No">0</Option>\n  </Options>\n  <Variables NVar="32">\n    <Variable VarIndex="0" Expression="Feature_0" Label="Feature_0" Title="Feature_0" Unit="" Internal="Feature_0" Type="F" Min="1.15967004e+03" Max="1.13558638e+06"/>\n    <Variable VarIndex="1" Expression="Feature_1" Label="Feature_1" Title="Feature_1" Unit="" Internal="Feature_1" Type="F" Min="6.90499830e+00" Max="6.83289922e+04"/>\n    <Variable VarIndex="2" Expression="Feature_2" Label="Feature_2" Title="Feature_2" Unit="" Internal="Feature_2" Type="F" Min="1.24249414e-01" Max="3.99916315e+00"/>\n    <Variable VarIndex="3" Expression="Feature_3" Label="Feature_3" Title="Feature_3" Unit="" Internal="Feature_3" Type="F" Min="7.00000000e+00" Max="4.90000000e+01"/>\n    <Variable VarIndex="4" Expression="Feature_4" Label="Feature_4" Title="Feature_4" Unit="" Internal="Feature_4" Type="F" Min="1.54159404e-03" Max="3.99982750e-01"/>\n    <Variable VarIndex="5" Expression="Feature_5" Label="Feature_5" Title="Feature_5" Unit="" Internal="Feature_5" Type="F" Min="9.10696853e-03" Max="1.20970528e+02"/>\n    <Variable VarIndex="6" Expression="Feature_6" Label="Feature_6" Title="Feature_6" Unit="" Internal="Feature_6" Type="F" Min="1.97511457e-04" Max="9.81467972e+01"/>\n    <Variable VarIndex="7" Expression="Feature_7" Label="Feature_7" Title="Feature_7" Unit="" Internal="Feature_7" Type="F" Min="1.00000000e+00" Max="2.00000000e+01"/>\n    <Variable VarIndex="8" Expression="Feature_8" Label="Feature_8" Title="Feature_8" Unit="" Internal="Feature_8" Type="F" Min="1.41289094e-02" Max="9.80159302e+01"/>\n    <Variable VarIndex="9" Expression="Feature_9" Label="Feature_9" Title="Feature_9" Unit="" Internal="Feature_9" Type="F" Min="1.00000000e+00" Max="2.70000000e+01"/>\n    <Variable VarIndex="10" Expression="Feature_10" Label="Feature_10" Title="Feature_10" Unit="" Internal="Feature_10" Type="F" Min="0.00000000e+00" Max="1.00000000e+00"/>\n    <Variable VarIndex="11" Expression="Feature_11" Label="Feature_11" Title="Feature_11" Unit="" Internal="Feature_11" Type="F" Min="0.00000000e+00" Max="1.00000000e+00"/>\n    <Variable VarIndex="12" Expression="Feature_12" Label="Feature_12" Title="Feature_12" Unit="" Internal="Feature_12" Type="F" Min="0.00000000e+00" Max="1.00000000e+00"/>\n    <Variable VarIndex="13" Expression="Feature_13" Label="Feature_13" Title="Feature_13" Unit="" Internal="Feature_13" Type="F" Min="0.00000000e+00" Max="1.00000000e+00"/>\n    <Variable VarIndex="14" Expression="Feature_14" Label="Feature_14" Title="Feature_14" Unit="" Internal="Feature_14" Type="F" Min="0.00000000e+00" Max="1.00000000e+00"/>\n    <Variable VarIndex="15" Expression="Feature_15" Label="Feature_15" Title="Feature_15" Unit="" Internal="Feature_15" Type="F" Min="-9.99000000e+02" Max="1.31175797e+02"/>\n    <Variable VarIndex="16" Expression="Feature_16" Label="Feature_16" Title="Feature_16" Unit="" Internal="Feature_16" Type="F" Min="-9.99000000e+02" Max="1.24875801e+02"/>\n    <Variable VarIndex="17" Expression="Feature_17" Label="Feature_17" Title="Feature_17" Unit="" Internal="Feature_17" Type="F" Min="-9.99000000e+02" Max="1.58692993e+02"/>\n    <Variable VarIndex="18" Expression="Feature_18" Label="Feature_18" Title="Feature_18" Unit="" Internal="Feature_18" Type="F" Min="-9.99000000e+02" Max="1.29497803e+02"/>\n    <Variable VarIndex="19" Expression="Feature_19" Label="Feature_19" Title="Feature_19" Unit="" Internal="Feature_19" Type="F" Min="-9.99000000e+02" Max="7.35431976e+01"/>\n    <Variable VarIndex="20" Expression="Feature_20" Label="Feature_20" Title="Feature_20" Unit="" Internal="Feature_20" Type="F" Min="-9.99000000e+02" Max="9.60000046e-03"/>\n    <Variable VarIndex="21" Expression="Feature_21" Label="Feature_21" Title="Feature_21" Unit="" Internal="Feature_21" Type="F" Min="-9.99000000e+02" Max="0.00000000e+00"/>\n    <Variable VarIndex="22" Expression="Feature_22" Label="Feature_22" Title="Feature_22" Unit="" Internal="Feature_22" Type="F" Min="0.00000000e+00" Max="1.00000000e+00"/>\n    <Variable VarIndex="23" Expression="Feature_23" Label="Feature_23" Title="Feature_23" Unit="" Internal="Feature_23" Type="F" Min="0.00000000e+00" Max="3.30000000e+01"/>\n    <Variable VarIndex="24" Expression="Feature_24" Label="Feature_24" Title="Feature_24" Unit="" Internal="Feature_24" Type="F" Min="0.00000000e+00" Max="1.00000000e+00"/>\n    <Variable VarIndex="25" Expression="Feature_25" Label="Feature_25" Title="Feature_25" Unit="" Internal="Feature_25" Type="F" Min="0.00000000e+00" Max="1.00000000e+00"/>\n    <Variable VarIndex="26" Expression="Feature_26" Label="Feature_26" Title="Feature_26" Unit="" Internal="Feature_26" Type="F" Min="-9.99000000e+02" Max="4.05479050e+00"/>\n    <Variable VarIndex="27" Expression="Feature_27" Label="Feature_27" Title="Feature_27" Unit="" Internal="Feature_27" Type="F" Min="-9.99000000e+02" Max="2.15297604e+00"/>\n    <Variable VarIndex="28" Expression="Feature_28" Label="Feature_28" Title="Feature_28" Unit="" Internal="Feature_28" Type="F" Min="-9.99000000e+02" Max="2.72250462e+00"/>\n    <Variable VarIndex="29" Expression="Feature_29" Label="Feature_29" Title="Feature_29" Unit="" Internal="Feature_29" Type="F" Min="-9.99000000e+02" Max="2.87338901e+00"/>\n    <Variable VarIndex="30" Expression="Feature_30" Label="Feature_30" Title="Feature_30" Unit="" Internal="Feature_30" Type="F" Min="-9.99000000e+02" Max="2.80579987e+02"/>\n    <Variable VarIndex="31" Expression="Feature_31" Label="Feature_31" Title="Feature_31" Unit="" Internal="Feature_31" Type="F" Min="-9.99000000e+02" Max="3.39547467e+00"/>\n  </Variables>\n  <Spectators NSpec="0"/>\n  <Classes NClass="2">\n    <Class Name="Background" Index="0"/>\n    <Class Name="Signal" Index="1"/>\n  </Classes>\n  <Transformations NTransformations="1">\n    <Transform Name="Normalize">\n      <Selection>\n        <Input NInputs="32">\n          <Input Type="Variable" Label="Feature_0" Expression="Feature_0"/>\n          <Input Type="Variable" Label="Feature_1" Expression="Feature_1"/>\n          <Input Type="Variable" Label="Feature_2" Expression="Feature_2"/>\n          <Input Type="Variable" Label="Feature_3" Expression="Feature_3"/>\n          <Input Type="Variable" Label="Feature_4" Expression="Feature_4"/>\n          <Input Type="Variable" Label="Feature_5" Expression="Feature_5"/>\n          <Input Type="Variable" Label="Feature_6" Expression="Feature_6"/>\n          <Input Type="Variable" Label="Feature_7" Expression="Feature_7"/>\n          <Input Type="Variable" Label="Feature_8" Expression="Feature_8"/>\n          <Input Type="Variable" Label="Feature_9" Expression="Feature_9"/>\n          <Input Type="Variable" Label="Feature_10" Expression="Feature_10"/>\n          <Input Type="Variable" Label="Feature_11" Expression="Feature_11"/>\n          <Input Type="Variable" Label="Feature_12" Expression="Feature_12"/>\n          <Input Type="Variable" Label="Feature_13" Expression="Feature_13"/>\n          <Input Type="Variable" Label="Feature_14" Expression="Feature_14"/>\n          <Input Type="Variable" Label="Feature_15" Expression="Feature_15"/>\n          <Input Type="Variable" Label="Feature_16" Expression="Feature_16"/>\n          <Input Type="Variable" Label="Feature_17" Expression="Feature_17"/>\n          <Input Type="Variable" Label="Feature_18" Expression="Feature_18"/>\n          <Input Type="Variable" Label="Feature_19" Expression="Feature_19"/>\n          <Input Type="Variable" Label="Feature_20" Expression="Feature_20"/>\n          <Input Type="Variable" Label="Feature_21" Expression="Feature_21"/>\n          <Input Type="Variable" Label="Feature_22" Expression="Feature_22"/>\n          <Input Type="Variable" Label="Feature_23" Expression="Feature_23"/>\n          <Input Type="Variable" Label="Feature_24" Expression="Feature_24"/>\n          <Input Type="Variable" Label="Feature_25" Expression="Feature_25"/>\n          <Input Type="Variable" Label="Feature_26" Expression="Feature_26"/>\n          <Input Type="Variable" Label="Feature_27" Expression="Feature_27"/>\n          <Input Type="Variable" Label="Feature_28" Expression="Feature_28"/>\n          <Input Type="Variable" Label="Feature_29" Expression="Feature_29"/>\n          <Input Type="Variable" Label="Feature_30" Expression="Feature_30"/>\n          <Input Type="Variable" Label="Feature_31" Expression="Feature_31"/>\n        </Input>\n        <Output NOutputs="32">\n          <Output Type="Variable" Label="Feature_0" Expression="Feature_0"/>\n          <Output Type="Variable" Label="Feature_1" Expression="Feature_1"/>\n          <Output Type="Variable" Label="Feature_2" Expression="Feature_2"/>\n          <Output Type="Variable" Label="Feature_3" Expression="Feature_3"/>\n          <Output Type="Variable" Label="Feature_4" Expression="Feature_4"/>\n          <Output Type="Variable" Label="Feature_5" Expression="Feature_5"/>\n          <Output Type="Variable" Label="Feature_6" Expression="Feature_6"/>\n          <Output Type="Variable" Label="Feature_7" Expression="Feature_7"/>\n          <Output Type="Variable" Label="Feature_8" Expression="Feature_8"/>\n          <Output Type="Variable" Label="Feature_9" Expression="Feature_9"/>\n          <Output Type="Variable" Label="Feature_10" Expression="Feature_10"/>\n          <Output Type="Variable" Label="Feature_11" Expression="Feature_11"/>\n          <Output Type="Variable" Label="Feature_12" Expression="Feature_12"/>\n          <Output Type="Variable" Label="Feature_13" Expression="Feature_13"/>\n          <Output Type="Variable" Label="Feature_14" Expression="Feature_14"/>\n          <Output Type="Variable" Label="Feature_15" Expression="Feature_15"/>\n          <Output Type="Variable" Label="Feature_16" Expression="Feature_16"/>\n          <Output Type="Variable" Label="Feature_17" Expression="Feature_17"/>\n          <Output Type="Variable" Label="Feature_18" Expression="Feature_18"/>\n          <Output Type="Variable" Label="Feature_19" Expression="Feature_19"/>\n          <Output Type="Variable" Label="Feature_20" Expression="Feature_20"/>\n          <Output Type="Variable" Label="Feature_21" Expression="Feature_21"/>\n          <Output Type="Variable" Label="Feature_22" Expression="Feature_22"/>\n          <Output Type="Variable" Label="Feature_23" Expression="Feature_23"/>\n          <Output Type="Variable" Label="Feature_24" Expression="Feature_24"/>\n          <Output Type="Variable" Label="Feature_25" Expression="Feature_25"/>\n          <Output Type="Variable" Label="Feature_26" Expression="Feature_26"/>\n          <Output Type="Variable" Label="Feature_27" Expression="Feature_27"/>\n          <Output Type="Variable" Label="Feature_28" Expression="Feature_28"/>\n          <Output Type="Variable" Label="Feature_29" Expression="Feature_29"/>\n          <Output Type="Variable" Label="Feature_30" Expression="Feature_30"/>\n          <Output Type="Variable" Label="Feature_31" Expression="Feature_31"/>\n        </Output>\n      </Selection>\n      <Class ClassIndex="0">\n        <Ranges>\n          <Range Index="0" Min="1.1596700439453125e+03" Max="1.1355863750000000e+06"/>\n          <Range Index="1" Min="6.9049983024597168e+00" Max="6.8328992187500000e+04"/>\n          <Range Index="2" Min="1.2424941360950470e-01" Max="3.9991631507873535e+00"/>\n          <Range Index="3" Min="7.0000000000000000e+00" Max="4.9000000000000000e+01"/>\n          <Range Index="4" Min="1.5415940433740616e-03" Max="3.9998275041580200e-01"/>\n          <Range Index="5" Min="9.1069685295224190e-03" Max="1.2097052764892578e+02"/>\n          <Range Index="6" Min="1.9751145737245679e-04" Max="9.8146797180175781e+01"/>\n          <Range Index="7" Min="1.0000000000000000e+00" Max="2.0000000000000000e+01"/>\n          <Range Index="8" Min="1.4128909446299076e-02" Max="9.8015930175781250e+01"/>\n          <Range Index="9" Min="1.0000000000000000e+00" Max="2.7000000000000000e+01"/>\n          <Range Index="10" Min="0.0000000000000000e+00" Max="1.0000000000000000e+00"/>\n          <Range Index="11" Min="0.0000000000000000e+00" Max="1.0000000000000000e+00"/>\n          <Range Index="12" Min="0.0000000000000000e+00" Max="1.0000000000000000e+00"/>\n          <Range Index="13" Min="0.0000000000000000e+00" Max="1.0000000000000000e+00"/>\n          <Range Index="14" Min="0.0000000000000000e+00" Max="1.0000000000000000e+00"/>\n          <Range Index="15" Min="-9.9900000000000000e+02" Max="1.3117579650878906e+02"/>\n          <Range Index="16" Min="-9.9900000000000000e+02" Max="1.2487580108642578e+02"/>\n          <Range Index="17" Min="-9.9900000000000000e+02" Max="1.5869299316406250e+02"/>\n          <Range Index="18" Min="-9.9900000000000000e+02" Max="8.5176300048828125e+01"/>\n          <Range Index="19" Min="-9.9900000000000000e+02" Max="7.0496902465820312e+01"/>\n          <Range Index="20" Min="-9.9900000000000000e+02" Max="9.6000004559755325e-03"/>\n          <Range Index="21" Min="-9.9900000000000000e+02" Max="0.0000000000000000e+00"/>\n          <Range Index="22" Min="0.0000000000000000e+00" Max="1.0000000000000000e+00"/>\n          <Range Index="23" Min="0.0000000000000000e+00" Max="3.3000000000000000e+01"/>\n          <Range Index="24" Min="0.0000000000000000e+00" Max="1.0000000000000000e+00"/>\n          <Range Index="25" Min="0.0000000000000000e+00" Max="1.0000000000000000e+00"/>\n          <Range Index="26" Min="-9.9900000000000000e+02" Max="4.0547904968261719e+00"/>\n          <Range Index="27" Min="-9.9900000000000000e+02" Max="2.1529760360717773e+00"/>\n          <Range Index="28" Min="-9.9900000000000000e+02" Max="2.7225046157836914e+00"/>\n          <Range Index="29" Min="-9.9900000000000000e+02" Max="2.8733890056610107e+00"/>\n          <Range Index="30" Min="-9.9900000000000000e+02" Max="2.8057998657226562e+02"/>\n          <Range Index="31" Min="-9.9900000000000000e+02" Max="3.3954746723175049e+00"/>\n        </Ranges>\n      </Class>\n      <Class ClassIndex="1">\n        <Ranges>\n          <Range Index="0" Min="1.2436999511718750e+03" Max="1.0630282500000000e+06"/>\n          <Range Index="1" Min="3.3165794372558594e+01" Max="1.7145919921875000e+04"/>\n          <Range Index="2" Min="3.1504279375076294e-01" Max="3.9694437980651855e+00"/>\n          <Range Index="3" Min="9.0000000000000000e+00" Max="4.4000000000000000e+01"/>\n          <Range Index="4" Min="1.6847355291247368e-03" Max="3.9522334933280945e-01"/>\n          <Range Index="5" Min="1.2679569423198700e-01" Max="9.4505325317382812e+01"/>\n          <Range Index="6" Min="3.8306734059005976e-03" Max="4.7053634643554688e+01"/>\n          <Range Index="7" Min="1.0000000000000000e+00" Max="1.8000000000000000e+01"/>\n          <Range Index="8" Min="1.2767636775970459e-01" Max="7.8493110656738281e+01"/>\n          <Range Index="9" Min="1.0000000000000000e+00" Max="2.6000000000000000e+01"/>\n          <Range Index="10" Min="0.0000000000000000e+00" Max="1.0000000000000000e+00"/>\n          <Range Index="11" Min="0.0000000000000000e+00" Max="1.0000000000000000e+00"/>\n          <Range Index="12" Min="0.0000000000000000e+00" Max="1.0000000000000000e+00"/>\n          <Range Index="13" Min="0.0000000000000000e+00" Max="1.0000000000000000e+00"/>\n          <Range Index="14" Min="0.0000000000000000e+00" Max="1.0000000000000000e+00"/>\n          <Range Index="15" Min="-9.9900000000000000e+02" Max="6.2736801147460938e+01"/>\n          <Range Index="16" Min="-9.9900000000000000e+02" Max="3.5318901062011719e+01"/>\n          <Range Index="17" Min="-9.9900000000000000e+02" Max="5.5114498138427734e+01"/>\n          <Range Index="18" Min="-9.9900000000000000e+02" Max="1.2949780273437500e+02"/>\n          <Range Index="19" Min="-9.9900000000000000e+02" Max="7.3543197631835938e+01"/>\n          <Range Index="20" Min="-9.9900000000000000e+02" Max="1.2000000569969416e-03"/>\n          <Range Index="21" Min="-9.9900000000000000e+02" Max="0.0000000000000000e+00"/>\n          <Range Index="22" Min="0.0000000000000000e+00" Max="1.0000000000000000e+00"/>\n          <Range Index="23" Min="0.0000000000000000e+00" Max="2.1000000000000000e+01"/>\n          <Range Index="24" Min="0.0000000000000000e+00" Max="1.0000000000000000e+00"/>\n          <Range Index="25" Min="0.0000000000000000e+00" Max="1.0000000000000000e+00"/>\n          <Range Index="26" Min="-9.9900000000000000e+02" Max="3.9375019073486328e+00"/>\n          <Range Index="27" Min="-9.9900000000000000e+02" Max="2.1529760360717773e+00"/>\n          <Range Index="28" Min="-9.9900000000000000e+02" Max="2.0164070129394531e+00"/>\n          <Range Index="29" Min="-9.9900000000000000e+02" Max="2.8733890056610107e+00"/>\n          <Range Index="30" Min="-9.9900000000000000e+02" Max="1.9857275390625000e+02"/>\n          <Range Index="31" Min="-9.9900000000000000e+02" Max="3.1131386756896973e+00"/>\n        </Ranges>\n      </Class>\n      <Class ClassIndex="2">\n        <Ranges>\n          <Range Index="0" Min="1.1596700439453125e+03" Max="1.1355863750000000e+06"/>\n          <Range Index="1" Min="6.9049983024597168e+00" Max="6.8328992187500000e+04"/>\n          <Range Index="2" Min="1.2424941360950470e-01" Max="3.9991631507873535e+00"/>\n          <Range Index="3" Min="7.0000000000000000e+00" Max="4.9000000000000000e+01"/>\n          <Range Index="4" Min="1.5415940433740616e-03" Max="3.9998275041580200e-01"/>\n          <Range Index="5" Min="9.1069685295224190e-03" Max="1.2097052764892578e+02"/>\n          <Range Index="6" Min="1.9751145737245679e-04" Max="9.8146797180175781e+01"/>\n          <Range Index="7" Min="1.0000000000000000e+00" Max="2.0000000000000000e+01"/>\n          <Range Index="8" Min="1.4128909446299076e-02" Max="9.8015930175781250e+01"/>\n          <Range Index="9" Min="1.0000000000000000e+00" Max="2.7000000000000000e+01"/>\n          <Range Index="10" Min="0.0000000000000000e+00" Max="1.0000000000000000e+00"/>\n          <Range Index="11" Min="0.0000000000000000e+00" Max="1.0000000000000000e+00"/>\n          <Range Index="12" Min="0.0000000000000000e+00" Max="1.0000000000000000e+00"/>\n          <Range Index="13" Min="0.0000000000000000e+00" Max="1.0000000000000000e+00"/>\n          <Range Index="14" Min="0.0000000000000000e+00" Max="1.0000000000000000e+00"/>\n          <Range Index="15" Min="-9.9900000000000000e+02" Max="1.3117579650878906e+02"/>\n          <Range Index="16" Min="-9.9900000000000000e+02" Max="1.2487580108642578e+02"/>\n          <Range Index="17" Min="-9.9900000000000000e+02" Max="1.5869299316406250e+02"/>\n          <Range Index="18" Min="-9.9900000000000000e+02" Max="1.2949780273437500e+02"/>\n          <Range Index="19" Min="-9.9900000000000000e+02" Max="7.3543197631835938e+01"/>\n          <Range Index="20" Min="-9.9900000000000000e+02" Max="9.6000004559755325e-03"/>\n          <Range Index="21" Min="-9.9900000000000000e+02" Max="0.0000000000000000e+00"/>\n          <Range Index="22" Min="0.0000000000000000e+00" Max="1.0000000000000000e+00"/>\n          <Range Index="23" Min="0.0000000000000000e+00" Max="3.3000000000000000e+01"/>\n          <Range Index="24" Min="0.0000000000000000e+00" Max="1.0000000000000000e+00"/>\n          <Range Index="25" Min="0.0000000000000000e+00" Max="1.0000000000000000e+00"/>\n          <Range Index="26" Min="-9.9900000000000000e+02" Max="4.0547904968261719e+00"/>\n          <Range Index="27" Min="-9.9900000000000000e+02" Max="2.1529760360717773e+00"/>\n          <Range Index="28" Min="-9.9900000000000000e+02" Max="2.7225046157836914e+00"/>\n          <Range Index="29" Min="-9.9900000000000000e+02" Max="2.8733890056610107e+00"/>\n          <Range Index="30" Min="-9.9900000000000000e+02" Max="2.8057998657226562e+02"/>\n          <Range Index="31" Min="-9.9900000000000000e+02" Max="3.3954746723175049e+00"/>\n        </Ranges>\n      </Class>\n    </Transform>\n  </Transformations>\n  <MVAPdfs/>\n  <Weights NTrees="50" AnalysisType="0">\n    <BinaryTree type="DecisionTree" boostWeight="7.3025897821703134e-01" itree="0">\n      <Node pos="s" depth="0" NCoef="0" IVar="18" Cut="7.6082575321197510e-01" cType="0" res="-9.9000000000000000e+01" rms="0.0000000000000000e+00" purity="5.0000000000000000e-01" nType="0">\n        <Node pos="l" depth="1" NCoef="0" IVar="18" Cut="7.7847880125045776e-01" cType="0" res="-9.9000000000000000e+01" rms="0.0000000000000000e+00" purity="6.6991555690765381e-01" nType="0">\n          <Node pos="l" depth="2" NCoef="0" IVar="-1" Cut="7.8646534681320190e-01" cType="0" res="-9.9000000000000000e+01" rms="0.0000000000000000e+00" purity="8.4226417541503906e-01" nType="1"/>\n          <Node pos="r" depth="2" NCoef="0" IVar="18" Cut="7.7175408601760864e-01" cType="0" res="-9.9000000000000000e+01" rms="0.0000000000000000e+00" purity="3.6531874537467957e-01" nType="0">\n            <Node pos="l" depth="3" NCoef="0" IVar="-1" Cut="0.0000000000000000e+00" cType="1" res="-9.9000000000000000e+01" rms="0.0000000000000000e+00" purity="5.0691956281661987e-01" nType="1"/>\n            <Node pos="r" depth="3" NCoef="0" IVar="-1" Cut="0.0000000000000000e+00" cType="1" res="-9.9000000000000000e+01" rms="0.0000000000000000e+00" purity="3.0075988173484802e-01" nType="-1"/>\n          </Node>\n        </Node>\n        <Node pos="r" depth="1" NCoef="0" IVar="-1" Cut="-5.4887217283248901e-01" cType="1" res="-9.9000000000000000e+01" rms="0.0000000000000000e+00" purity="8.3488672971725464e-02" nType="-1"/>\n      </Node>\n    </BinaryTree>\n    <BinaryTree type="DecisionTree" boostWeight="4.3659825832617932e-01" itree="1">\n      <Node pos="s" depth="0" NCoef="0" IVar="18" Cut="7.6082575321197510e-01" cType="0" res="-9.9000000000000000e+01" rms="0.0000000000000000e+00" purity="4.8480960726737976e-01" nType="0">\n        <Node pos="l" depth="1" NCoef="0" IVar="18" Cut="7.8730493783950806e-01" cType="0" res="-9.9000000000000000e+01" rms="0.0000000000000000e+00" purity="6.0080951452255249e-01" nType="0">\n          <Node pos="l" depth="2" NCoef="0" IVar="-1" Cut="7.5943189859390259e-01" cType="1" res="-9.9000000000000000e+01" rms="0.0000000000000000e+00" purity="7.7339416742324829e-01" nType="1"/>\n          <Node pos="r" depth="2" NCoef="0" IVar="-1" Cut="-4.2792600393295288e-01" cType="1" res="-9.9000000000000000e+01" rms="0.0000000000000000e+00" purity="4.4668394327163696e-01" nType="-1"/>\n        </Node>\n        <Node pos="r" depth="1" NCoef="0" IVar="-1" Cut="-5.4887217283248901e-01" cType="1" res="-9.9000000000000000e+01" rms="0.0000000000000000e+00" purity="1.5901109576225281e-01" nType="-1"/>\n      </Node>\n    </BinaryTree>\n    <BinaryTree type="DecisionTree" boostWeight="3.8956625032088926e-01" itree="2">\n      <Node pos="s" depth="0" NCoef="0" IVar="18" Cut="7.6082575321197510e-01" cType="0" res="-9.9000000000000000e+01" rms="0.0000000000000000e+00" purity="5.1919275522232056e-01" nType="0">\n        <Node pos="l" depth="1" NCoef="0" IVar="4" Cut="-4.2831799387931824e-01" cType="1" res="-9.9000000000000000e+01" rms="0.0000000000000000e+00" purity="6.1462146043777466e-01" nType="0">\n          <Node pos="l" depth="2" NCoef="0" IVar="-1" Cut="7.7847880125045776e-01" cType="0" res="-9.9000000000000000e+01" rms="0.0000000000000000e+00" purity="6.5208196640014648e-01" nType="1"/>\n          <Node pos="r" depth="2" NCoef="0" IVar="-1" Cut="0.0000000000000000e+00" cType="1" res="-9.9000000000000000e+01" rms="0.0000000000000000e+00" purity="3.0444395542144775e-01" nType="-1"/>\n        </Node>\n        <Node pos="r" depth="1" NCoef="0" IVar="-1" Cut="-5.4887217283248901e-01" cType="1" res="-9.9000000000000000e+01" rms="0.0000000000000000e+00" purity="2.2635541856288910e-01" nType="-1"/>\n      </Node>\n    </BinaryTree>\n    <BinaryTree type="DecisionTree" boostWeight="1.8532275798004422e-01" itree="3">\n      <Node pos="s" depth="0" NCoef="0" IVar="17" Cut="6.9447720050811768e-01" cType="0" res="-9.9000000000000000e+01" rms="0.0000000000000000e+00" purity="4.8484393954277039e-01" nType="0">\n        <Node pos="l" depth="1" NCoef="0" IVar="18" Cut="7.9105168581008911e-01" cType="0" res="-9.9000000000000000e+01" rms="0.0000000000000000e+00" purity="5.2511370182037354e-01" nType="0">\n          <Node pos="l" depth="2" NCoef="0" IVar="-1" Cut="-9.0476191043853760e-01" cType="0" res="-9.9000000000000000e+01" rms="0.0000000000000000e+00" purity="6.2999612092971802e-01" nType="1"/>\n          <Node pos="r" depth="2" NCoef="0" IVar="-1" Cut="-2.3787558078765869e-01" cType="1" res="-9.9000000000000000e+01" rms="0.0000000000000000e+00" purity="4.7213563323020935e-01" nType="-1"/>\n        </Node>\n        <Node pos="r" depth="1" NCoef="0" IVar="-1" Cut="-5.4887217283248901e-01" cType="1" res="-9.9000000000000000e+01" rms="0.0000000000000000e+00" purity="1.9961205124855042e-01" nType="-1"/>\n      </Node>\n    </BinaryTree>\n    <BinaryTree type="DecisionTree" boostWeight="2.1179185292679228e-01" itree="4">\n      <Node pos="s" depth="0" NCoef="0" IVar="17" Cut="6.9447720050811768e-01" cType="0" res="-9.9000000000000000e+01" rms="0.0000000000000000e+00" purity="5.0393688678741455e-01" nType="0">\n        <Node pos="l" depth="1" NCoef="0" IVar="4" Cut="-1.4265438914299011e-01" cType="1" res="-9.9000000000000000e+01" rms="0.0000000000000000e+00" purity="5.4077190160751343e-01" nType="0">\n          <Node pos="l" depth="2" NCoef="0" IVar="17" Cut="7.0792907476425171e-01" cType="0" res="-9.9000000000000000e+01" rms="0.0000000000000000e+00" purity="5.5632007122039795e-01" nType="0">\n            <Node pos="l" depth="3" NCoef="0" IVar="-1" Cut="0.0000000000000000e+00" cType="1" res="-9.9000000000000000e+01" rms="0.0000000000000000e+00" purity="5.7016205787658691e-01" nType="1"/>\n            <Node pos="r" depth="3" NCoef="0" IVar="-1" Cut="0.0000000000000000e+00" cType="1" res="-9.9000000000000000e+01" rms="0.0000000000000000e+00" purity="3.4828516840934753e-01" nType="-1"/>\n          </Node>\n          <Node pos="r" depth="2" NCoef="0" IVar="-1" Cut="0.0000000000000000e+00" cType="1" res="-9.9000000000000000e+01" rms="0.0000000000000000e+00" purity="3.2082024216651917e-01" nType="-1"/>\n        </Node>\n        <Node pos="r" depth="1" NCoef="0" IVar="-1" Cut="8.1632688641548157e-02" cType="1" res="-9.9000000000000000e+01" rms="0.0000000000000000e+00" purity="2.3087127506732941e-01" nType="-1"/>\n      </Node>\n    </BinaryTree>\n    <BinaryTree type="DecisionTree" boostWeight="1.3737368743853121e-01" itree="5">\n      <Node pos="s" depth="0" NCoef="0" IVar="17" Cut="6.9447720050811768e-01" cType="0" res="-9.9000000000000000e+01" rms="0.0000000000000000e+00" purity="4.7472363710403442e-01" nType="0">\n        <Node pos="l" depth="1" NCoef="0" IVar="14" Cut="-9.0476191043853760e-01" cType="0" res="-9.9000000000000000e+01" rms="0.0000000000000000e+00" purity="5.0115376710891724e-01" nType="0">\n          <Node pos="l" depth="2" NCoef="0" IVar="-1" Cut="-3.2966963946819305e-02" cType="1" res="-9.9000000000000000e+01" rms="0.0000000000000000e+00" purity="6.1258304119110107e-01" nType="1"/>\n          <Node pos="r" depth="2" NCoef="0" IVar="1" Cut="-9.9244803190231323e-01" cType="0" res="-9.9000000000000000e+01" rms="0.0000000000000000e+00" purity="4.7641208767890930e-01" nType="0">\n            <Node pos="l" depth="3" NCoef="0" IVar="-1" Cut="0.0000000000000000e+00" cType="1" res="-9.9000000000000000e+01" rms="0.0000000000000000e+00" purity="5.0531613826751709e-01" nType="1"/>\n            <Node pos="r" depth="3" NCoef="0" IVar="-1" Cut="0.0000000000000000e+00" cType="1" res="-9.9000000000000000e+01" rms="0.0000000000000000e+00" purity="3.8479021191596985e-01" nType="-1"/>\n          </Node>\n        </Node>\n        <Node pos="r" depth="1" NCoef="0" IVar="16" Cut="7.3057049512863159e-01" cType="1" res="-9.9000000000000000e+01" rms="0.0000000000000000e+00" purity="2.7059495449066162e-01" nType="0">\n          <Node pos="l" depth="2" NCoef="0" IVar="-1" Cut="0.0000000000000000e+00" cType="1" res="-9.9000000000000000e+01" rms="0.0000000000000000e+00" purity="5.0897538661956787e-01" nType="1"/>\n          <Node pos="r" depth="2" NCoef="0" IVar="-1" Cut="0.0000000000000000e+00" cType="1" res="-9.9000000000000000e+01" rms="0.0000000000000000e+00" purity="8.3765298128128052e-02" nType="-1"/>\n        </Node>\n      </Node>\n    </BinaryTree>\n    <BinaryTree type="DecisionTree" boostWeight="2.0387509478110910e-01" itree="6">\n      <Node pos="s" depth="0" NCoef="0" IVar="17" Cut="6.9447720050811768e-01" cType="0" res="-9.9000000000000000e+01" rms="0.0000000000000000e+00" purity="4.5634809136390686e-01" nType="0">\n        <Node pos="l" depth="1" NCoef="0" IVar="17" Cut="7.6172071695327759e-01" cType="1" res="-9.9000000000000000e+01" rms="0.0000000000000000e+00" purity="4.8019635677337646e-01" nType="0">\n          <Node pos="l" depth="2" NCoef="0" IVar="13" Cut="-9.0476191043853760e-01" cType="0" res="-9.9000000000000000e+01" rms="0.0000000000000000e+00" purity="5.0053501129150391e-01" nType="0">\n            <Node pos="l" depth="3" NCoef="0" IVar="-1" Cut="0.0000000000000000e+00" cType="1" res="-9.9000000000000000e+01" rms="0.0000000000000000e+00" purity="6.0571634769439697e-01" nType="1"/>\n            <Node pos="r" depth="3" NCoef="0" IVar="-1" Cut="0.0000000000000000e+00" cType="1" res="-9.9000000000000000e+01" rms="0.0000000000000000e+00" purity="4.4139483571052551e-01" nType="-1"/>\n          </Node>\n          <Node pos="r" depth="2" NCoef="0" IVar="-1" Cut="0.0000000000000000e+00" cType="1" res="-9.9000000000000000e+01" rms="0.0000000000000000e+00" purity="3.7184745073318481e-01" nType="-1"/>\n        </Node>\n        <Node pos="r" depth="1" NCoef="0" IVar="-1" Cut="7.3057049512863159e-01" cType="1" res="-9.9000000000000000e+01" rms="0.0000000000000000e+00" purity="2.6717442274093628e-01" nType="-1"/>\n      </Node>\n    </BinaryTree>\n    <BinaryTree type="DecisionTree" boostWeight="1.3250621969413540e-01" itree="7">\n      <Node pos="s" depth="0" NCoef="0" IVar="17" Cut="6.9447720050811768e-01" cType="0" res="-9.9000000000000000e+01" rms="0.0000000000000000e+00" purity="4.7938320040702820e-01" nType="0">\n        <Node pos="l" depth="1" NCoef="0" IVar="18" Cut="8.0828768014907837e-01" cType="0" res="-9.9000000000000000e+01" rms="0.0000000000000000e+00" purity="5.0021004676818848e-01" nType="0">\n          <Node pos="l" depth="2" NCoef="0" IVar="-1" Cut="0.0000000000000000e+00" cType="1" res="-9.9000000000000000e+01" rms="0.0000000000000000e+00" purity="5.8058929443359375e-01" nType="1"/>\n          <Node pos="r" depth="2" NCoef="0" IVar="12" Cut="-9.0476191043853760e-01" cType="1" res="-9.9000000000000000e+01" rms="0.0000000000000000e+00" purity="4.8361268639564514e-01" nType="0">\n            <Node pos="l" depth="3" NCoef="0" IVar="-1" Cut="0.0000000000000000e+00" cType="1" res="-9.9000000000000000e+01" rms="0.0000000000000000e+00" purity="5.8888053894042969e-01" nType="1"/>\n            <Node pos="r" depth="3" NCoef="0" IVar="-1" Cut="0.0000000000000000e+00" cType="1" res="-9.9000000000000000e+01" rms="0.0000000000000000e+00" purity="4.6685469150543213e-01" nType="-1"/>\n          </Node>\n        </Node>\n        <Node pos="r" depth="1" NCoef="0" IVar="16" Cut="7.3057049512863159e-01" cType="1" res="-9.9000000000000000e+01" rms="0.0000000000000000e+00" purity="3.0892905592918396e-01" nType="0">\n          <Node pos="l" depth="2" NCoef="0" IVar="-1" Cut="0.0000000000000000e+00" cType="1" res="-9.9000000000000000e+01" rms="0.0000000000000000e+00" purity="5.2557933330535889e-01" nType="1"/>\n          <Node pos="r" depth="2" NCoef="0" IVar="-1" Cut="0.0000000000000000e+00" cType="1" res="-9.9000000000000000e+01" rms="0.0000000000000000e+00" purity="1.1395087838172913e-01" nType="-1"/>\n        </Node>\n      </Node>\n    </BinaryTree>\n    <BinaryTree type="DecisionTree" boostWeight="1.2485182642749325e-01" itree="8">\n      <Node pos="s" depth="0" NCoef="0" IVar="17" Cut="6.9447720050811768e-01" cType="0" res="-9.9000000000000000e+01" rms="0.0000000000000000e+00" purity="4.9218109250068665e-01" nType="0">\n        <Node pos="l" depth="1" NCoef="0" IVar="17" Cut="7.6172071695327759e-01" cType="1" res="-9.9000000000000000e+01" rms="0.0000000000000000e+00" purity="5.1452672481536865e-01" nType="0">\n          <Node pos="l" depth="2" NCoef="0" IVar="-1" Cut="-9.0476191043853760e-01" cType="0" res="-9.9000000000000000e+01" rms="0.0000000000000000e+00" purity="5.3602719306945801e-01" nType="1"/>\n          <Node pos="r" depth="2" NCoef="0" IVar="-1" Cut="0.0000000000000000e+00" cType="1" res="-9.9000000000000000e+01" rms="0.0000000000000000e+00" purity="3.9874851703643799e-01" nType="-1"/>\n        </Node>\n        <Node pos="r" depth="1" NCoef="0" IVar="-1" Cut="7.3057049512863159e-01" cType="1" res="-9.9000000000000000e+01" rms="0.0000000000000000e+00" purity="3.0511891841888428e-01" nType="-1"/>\n      </Node>\n    </BinaryTree>\n    <BinaryTree type="DecisionTree" boostWeight="1.2629583216569623e-01" itree="9">\n      <Node pos="s" depth="0" NCoef="0" IVar="17" Cut="6.9447720050811768e-01" cType="0" res="-9.9000000000000000e+01" rms="0.0000000000000000e+00" purity="4.7619950771331787e-01" nType="0">\n        <Node pos="l" depth="1" NCoef="0" IVar="4" Cut="-7.1398156881332397e-01" cType="1" res="-9.9000000000000000e+01" rms="0.0000000000000000e+00" purity="4.9307873845100403e-01" nType="0">\n          <Node pos="l" depth="2" NCoef="0" IVar="18" Cut="7.7889174222946167e-01" cType="0" res="-9.9000000000000000e+01" rms="0.0000000000000000e+00" purity="5.0960189104080200e-01" nType="0">\n            <Node pos="l" depth="3" NCoef="0" IVar="-1" Cut="0.0000000000000000e+00" cType="1" res="-9.9000000000000000e+01" rms="0.0000000000000000e+00" purity="5.4958260059356689e-01" nType="1"/>\n            <Node pos="r" depth="3" NCoef="0" IVar="-1" Cut="0.0000000000000000e+00" cType="1" res="-9.9000000000000000e+01" rms="0.0000000000000000e+00" purity="4.7045946121215820e-01" nType="-1"/>\n          </Node>\n          <Node pos="r" depth="2" NCoef="0" IVar="-1" Cut="7.5302273035049438e-01" cType="1" res="-9.9000000000000000e+01" rms="0.0000000000000000e+00" purity="4.1112497448921204e-01" nType="-1"/>\n        </Node>\n        <Node pos="r" depth="1" NCoef="0" IVar="16" Cut="7.3057049512863159e-01" cType="1" res="-9.9000000000000000e+01" rms="0.0000000000000000e+00" purity="3.3221426606178284e-01" nType="0">\n          <Node pos="l" depth="2" NCoef="0" IVar="-1" Cut="0.0000000000000000e+00" cType="1" res="-9.9000000000000000e+01" rms="0.0000000000000000e+00" purity="5.2367037534713745e-01" nType="1"/>\n          <Node pos="r" depth="2" NCoef="0" IVar="-1" Cut="0.0000000000000000e+00" cType="1" res="-9.9000000000000000e+01" rms="0.0000000000000000e+00" purity="1.4262618124485016e-01" nType="-1"/>\n        </Node>\n      </Node>\n    </BinaryTree>\n    <BinaryTree type="DecisionTree" boostWeight="9.9115490967540520e-02" itree="10">\n      <Node pos="s" depth="0" NCoef="0" IVar="17" Cut="6.9447720050811768e-01" cType="0" res="-9.9000000000000000e+01" rms="0.0000000000000000e+00" purity="4.8104995489120483e-01" nType="0">\n        <Node pos="l" depth="1" NCoef="0" IVar="17" Cut="7.6172071695327759e-01" cType="1" res="-9.9000000000000000e+01" rms="0.0000000000000000e+00" purity="4.9863922595977783e-01" nType="0">\n          <Node pos="l" depth="2" NCoef="0" IVar="14" Cut="-9.0476191043853760e-01" cType="0" res="-9.9000000000000000e+01" rms="0.0000000000000000e+00" purity="5.1605689525604248e-01" nType="0">\n            <Node pos="l" depth="3" NCoef="0" IVar="-1" Cut="0.0000000000000000e+00" cType="1" res="-9.9000000000000000e+01" rms="0.0000000000000000e+00" purity="6.1698579788208008e-01" nType="1"/>\n            <Node pos="r" depth="3" NCoef="0" IVar="-1" Cut="0.0000000000000000e+00" cType="1" res="-9.9000000000000000e+01" rms="0.0000000000000000e+00" purity="4.9506285786628723e-01" nType="-1"/>\n          </Node>\n          <Node pos="r" depth="2" NCoef="0" IVar="-1" Cut="0.0000000000000000e+00" cType="1" res="-9.9000000000000000e+01" rms="0.0000000000000000e+00" purity="4.0533310174942017e-01" nType="-1"/>\n        </Node>\n        <Node pos="r" depth="1" NCoef="0" IVar="-1" Cut="7.3057049512863159e-01" cType="1" res="-9.9000000000000000e+01" rms="0.0000000000000000e+00" purity="3.2822328805923462e-01" nType="-1"/>\n      </Node>\n    </BinaryTree>\n    <BinaryTree type="DecisionTree" boostWeight="1.2319560958833656e-01" itree="11">\n      <Node pos="s" depth="0" NCoef="0" IVar="17" Cut="6.9447720050811768e-01" cType="0" res="-9.9000000000000000e+01" rms="0.0000000000000000e+00" purity="4.9936190247535706e-01" nType="0">\n        <Node pos="l" depth="1" NCoef="0" IVar="17" Cut="7.6172071695327759e-01" cType="1" res="-9.9000000000000000e+01" rms="0.0000000000000000e+00" purity="5.1626962423324585e-01" nType="0">\n          <Node pos="l" depth="2" NCoef="0" IVar="-1" Cut="-7.1315377950668335e-01" cType="1" res="-9.9000000000000000e+01" rms="0.0000000000000000e+00" purity="5.3236675262451172e-01" nType="1"/>\n          <Node pos="r" depth="2" NCoef="0" IVar="-1" Cut="0.0000000000000000e+00" cType="1" res="-9.9000000000000000e+01" rms="0.0000000000000000e+00" purity="4.2943012714385986e-01" nType="-1"/>\n        </Node>\n        <Node pos="r" depth="1" NCoef="0" IVar="-1" Cut="0.0000000000000000e+00" cType="1" res="-9.9000000000000000e+01" rms="0.0000000000000000e+00" purity="3.5043755173683167e-01" nType="-1"/>\n      </Node>\n    </BinaryTree>\n    <BinaryTree type="DecisionTree" boostWeight="1.3094979891899353e-01" itree="12">\n      <Node pos="s" depth="0" NCoef="0" IVar="12" Cut="-9.0476191043853760e-01" cType="1" res="-9.9000000000000000e+01" rms="0.0000000000000000e+00" purity="4.8817318677902222e-01" nType="0">\n        <Node pos="l" depth="1" NCoef="0" IVar="-1" Cut="-9.9356311559677124e-01" cType="0" res="-9.9000000000000000e+01" rms="0.0000000000000000e+00" purity="6.0465788841247559e-01" nType="1"/>\n        <Node pos="r" depth="1" NCoef="0" IVar="18" Cut="7.4168831110000610e-01" cType="0" res="-9.9000000000000000e+01" rms="0.0000000000000000e+00" purity="4.6865573525428772e-01" nType="0">\n          <Node pos="l" depth="2" NCoef="0" IVar="18" Cut="8.0985093116760254e-01" cType="0" res="-9.9000000000000000e+01" rms="0.0000000000000000e+00" purity="4.9857243895530701e-01" nType="0">\n            <Node pos="l" depth="3" NCoef="0" IVar="-1" Cut="0.0000000000000000e+00" cType="1" res="-9.9000000000000000e+01" rms="0.0000000000000000e+00" purity="5.8301895856857300e-01" nType="1"/>\n            <Node pos="r" depth="3" NCoef="0" IVar="-1" Cut="0.0000000000000000e+00" cType="1" res="-9.9000000000000000e+01" rms="0.0000000000000000e+00" purity="4.8024585843086243e-01" nType="-1"/>\n          </Node>\n          <Node pos="r" depth="2" NCoef="0" IVar="-1" Cut="0.0000000000000000e+00" cType="1" res="-9.9000000000000000e+01" rms="0.0000000000000000e+00" purity="1.4091680943965912e-01" nType="-1"/>\n        </Node>\n      </Node>\n    </BinaryTree>\n    <BinaryTree type="DecisionTree" boostWeight="9.5881116594790067e-02" itree="13">\n      <Node pos="s" depth="0" NCoef="0" IVar="7" Cut="-3.6842104792594910e-01" cType="1" res="-9.9000000000000000e+01" rms="0.0000000000000000e+00" purity="5.0235068798065186e-01" nType="0">\n        <Node pos="l" depth="1" NCoef="0" IVar="4" Cut="-2.3809523880481720e-01" cType="1" res="-9.9000000000000000e+01" rms="0.0000000000000000e+00" purity="5.2882730960845947e-01" nType="0">\n          <Node pos="l" depth="2" NCoef="0" IVar="-1" Cut="4.9886669963598251e-02" cType="1" res="-9.9000000000000000e+01" rms="0.0000000000000000e+00" purity="5.3751599788665771e-01" nType="1"/>\n          <Node pos="r" depth="2" NCoef="0" IVar="-1" Cut="0.0000000000000000e+00" cType="1" res="-9.9000000000000000e+01" rms="0.0000000000000000e+00" purity="4.2870390415191650e-01" nType="-1"/>\n        </Node>\n        <Node pos="r" depth="1" NCoef="0" IVar="18" Cut="7.7010387182235718e-01" cType="0" res="-9.9000000000000000e+01" rms="0.0000000000000000e+00" purity="4.3244957923889160e-01" nType="0">\n          <Node pos="l" depth="2" NCoef="0" IVar="7" Cut="-1.5288220345973969e-01" cType="1" res="-9.9000000000000000e+01" rms="0.0000000000000000e+00" purity="4.7234067320823669e-01" nType="0">\n            <Node pos="l" depth="3" NCoef="0" IVar="-1" Cut="0.0000000000000000e+00" cType="1" res="-9.9000000000000000e+01" rms="0.0000000000000000e+00" purity="5.0030273199081421e-01" nType="1"/>\n            <Node pos="r" depth="3" NCoef="0" IVar="-1" Cut="0.0000000000000000e+00" cType="1" res="-9.9000000000000000e+01" rms="0.0000000000000000e+00" purity="4.3715435266494751e-01" nType="-1"/>\n          </Node>\n          <Node pos="r" depth="2" NCoef="0" IVar="-1" Cut="0.0000000000000000e+00" cType="1" res="-9.9000000000000000e+01" rms="0.0000000000000000e+00" purity="3.0274048447608948e-01" nType="-1"/>\n        </Node>\n      </Node>\n    </BinaryTree>\n    <BinaryTree type="DecisionTree" boostWeight="8.8868865538411890e-02" itree="14">\n      <Node pos="s" depth="0" NCoef="0" IVar="17" Cut="6.9447720050811768e-01" cType="0" res="-9.9000000000000000e+01" rms="0.0000000000000000e+00" purity="4.8867315053939819e-01" nType="0">\n        <Node pos="l" depth="1" NCoef="0" IVar="17" Cut="7.4827265739440918e-01" cType="1" res="-9.9000000000000000e+01" rms="0.0000000000000000e+00" purity="5.0173503160476685e-01" nType="0">\n          <Node pos="l" depth="2" NCoef="0" IVar="18" Cut="7.8375089168548584e-01" cType="0" res="-9.9000000000000000e+01" rms="0.0000000000000000e+00" purity="5.2208793163299561e-01" nType="0">\n            <Node pos="l" depth="3" NCoef="0" IVar="-1" Cut="0.0000000000000000e+00" cType="1" res="-9.9000000000000000e+01" rms="0.0000000000000000e+00" purity="6.2120831012725830e-01" nType="1"/>\n            <Node pos="r" depth="3" NCoef="0" IVar="-1" Cut="0.0000000000000000e+00" cType="1" res="-9.9000000000000000e+01" rms="0.0000000000000000e+00" purity="4.9620148539543152e-01" nType="-1"/>\n          </Node>\n          <Node pos="r" depth="2" NCoef="0" IVar="-1" Cut="-6.8498504161834717e-01" cType="0" res="-9.9000000000000000e+01" rms="0.0000000000000000e+00" purity="4.4727379083633423e-01" nType="-1"/>\n        </Node>\n        <Node pos="r" depth="1" NCoef="0" IVar="-1" Cut="0.0000000000000000e+00" cType="1" res="-9.9000000000000000e+01" rms="0.0000000000000000e+00" purity="3.6735722422599792e-01" nType="-1"/>\n      </Node>\n    </BinaryTree>\n    <BinaryTree type="DecisionTree" boostWeight="9.9741726479640844e-02" itree="15">\n      <Node pos="s" depth="0" NCoef="0" IVar="17" Cut="6.9447720050811768e-01" cType="0" res="-9.9000000000000000e+01" rms="0.0000000000000000e+00" purity="5.0485163927078247e-01" nType="0">\n        <Node pos="l" depth="1" NCoef="0" IVar="17" Cut="7.6172071695327759e-01" cType="1" res="-9.9000000000000000e+01" rms="0.0000000000000000e+00" purity="5.1729732751846313e-01" nType="0">\n          <Node pos="l" depth="2" NCoef="0" IVar="-1" Cut="7.0728427171707153e-01" cType="0" res="-9.9000000000000000e+01" rms="0.0000000000000000e+00" purity="5.3014475107192993e-01" nType="1"/>\n          <Node pos="r" depth="2" NCoef="0" IVar="-1" Cut="0.0000000000000000e+00" cType="1" res="-9.9000000000000000e+01" rms="0.0000000000000000e+00" purity="4.4791725277900696e-01" nType="-1"/>\n        </Node>\n        <Node pos="r" depth="1" NCoef="0" IVar="-1" Cut="0.0000000000000000e+00" cType="1" res="-9.9000000000000000e+01" rms="0.0000000000000000e+00" purity="3.8824331760406494e-01" nType="-1"/>\n      </Node>\n    </BinaryTree>\n    <BinaryTree type="DecisionTree" boostWeight="1.0892674441549305e-01" itree="16">\n      <Node pos="s" depth="0" NCoef="0" IVar="7" Cut="-5.4887217283248901e-01" cType="1" res="-9.9000000000000000e+01" rms="0.0000000000000000e+00" purity="4.9427095055580139e-01" nType="0">\n        <Node pos="l" depth="1" NCoef="0" IVar="12" Cut="-9.0476191043853760e-01" cType="1" res="-9.9000000000000000e+01" rms="0.0000000000000000e+00" purity="5.2747398614883423e-01" nType="0">\n          <Node pos="l" depth="2" NCoef="0" IVar="-1" Cut="0.0000000000000000e+00" cType="1" res="-9.9000000000000000e+01" rms="0.0000000000000000e+00" purity="5.9490758180618286e-01" nType="1"/>\n          <Node pos="r" depth="2" NCoef="0" IVar="15" Cut="7.3836797475814819e-01" cType="0" res="-9.9000000000000000e+01" rms="0.0000000000000000e+00" purity="5.1295679807662964e-01" nType="0">\n            <Node pos="l" depth="3" NCoef="0" IVar="-1" Cut="0.0000000000000000e+00" cType="1" res="-9.9000000000000000e+01" rms="0.0000000000000000e+00" purity="5.2988010644912720e-01" nType="1"/>\n            <Node pos="r" depth="3" NCoef="0" IVar="-1" Cut="0.0000000000000000e+00" cType="1" res="-9.9000000000000000e+01" rms="0.0000000000000000e+00" purity="4.0415921807289124e-01" nType="-1"/>\n          </Node>\n        </Node>\n        <Node pos="r" depth="1" NCoef="0" IVar="18" Cut="7.6082575321197510e-01" cType="0" res="-9.9000000000000000e+01" rms="0.0000000000000000e+00" purity="4.5734336972236633e-01" nType="0">\n          <Node pos="l" depth="2" NCoef="0" IVar="18" Cut="7.9613465070724487e-01" cType="0" res="-9.9000000000000000e+01" rms="0.0000000000000000e+00" purity="4.8374474048614502e-01" nType="0">\n            <Node pos="l" depth="3" NCoef="0" IVar="-1" Cut="0.0000000000000000e+00" cType="1" res="-9.9000000000000000e+01" rms="0.0000000000000000e+00" purity="5.2833414077758789e-01" nType="1"/>\n            <Node pos="r" depth="3" NCoef="0" IVar="-1" Cut="0.0000000000000000e+00" cType="1" res="-9.9000000000000000e+01" rms="0.0000000000000000e+00" purity="4.5753923058509827e-01" nType="-1"/>\n          </Node>\n          <Node pos="r" depth="2" NCoef="0" IVar="-1" Cut="0.0000000000000000e+00" cType="1" res="-9.9000000000000000e+01" rms="0.0000000000000000e+00" purity="3.1169021129608154e-01" nType="-1"/>\n        </Node>\n      </Node>\n    </BinaryTree>\n    <BinaryTree type="DecisionTree" boostWeight="9.7118718715255556e-02" itree="17">\n      <Node pos="s" depth="0" NCoef="0" IVar="4" Cut="-4.7619048506021500e-02" cType="1" res="-9.9000000000000000e+01" rms="0.0000000000000000e+00" purity="4.8785567283630371e-01" nType="0">\n        <Node pos="l" depth="1" NCoef="0" IVar="12" Cut="-9.0476191043853760e-01" cType="1" res="-9.9000000000000000e+01" rms="0.0000000000000000e+00" purity="4.9535542726516724e-01" nType="0">\n          <Node pos="l" depth="2" NCoef="0" IVar="2" Cut="-5.2397406101226807e-01" cType="0" res="-9.9000000000000000e+01" rms="0.0000000000000000e+00" purity="5.8257853984832764e-01" nType="0">\n            <Node pos="l" depth="3" NCoef="0" IVar="-1" Cut="0.0000000000000000e+00" cType="1" res="-9.9000000000000000e+01" rms="0.0000000000000000e+00" purity="6.8243950605392456e-01" nType="1"/>\n            <Node pos="r" depth="3" NCoef="0" IVar="-1" Cut="0.0000000000000000e+00" cType="1" res="-9.9000000000000000e+01" rms="0.0000000000000000e+00" purity="4.6165746450424194e-01" nType="-1"/>\n          </Node>\n          <Node pos="r" depth="2" NCoef="0" IVar="18" Cut="7.4168831110000610e-01" cType="0" res="-9.9000000000000000e+01" rms="0.0000000000000000e+00" purity="4.8115676641464233e-01" nType="0">\n            <Node pos="l" depth="3" NCoef="0" IVar="-1" Cut="0.0000000000000000e+00" cType="1" res="-9.9000000000000000e+01" rms="0.0000000000000000e+00" purity="5.0647383928298950e-01" nType="1"/>\n            <Node pos="r" depth="3" NCoef="0" IVar="-1" Cut="0.0000000000000000e+00" cType="1" res="-9.9000000000000000e+01" rms="0.0000000000000000e+00" purity="1.8120718002319336e-01" nType="-1"/>\n          </Node>\n        </Node>\n        <Node pos="r" depth="1" NCoef="0" IVar="-1" Cut="0.0000000000000000e+00" cType="1" res="-9.9000000000000000e+01" rms="0.0000000000000000e+00" purity="3.5067817568778992e-01" nType="-1"/>\n      </Node>\n    </BinaryTree>\n    <BinaryTree type="DecisionTree" boostWeight="1.0140565033633714e-01" itree="18">\n      <Node pos="s" depth="0" NCoef="0" IVar="12" Cut="-9.0476191043853760e-01" cType="1" res="-9.9000000000000000e+01" rms="0.0000000000000000e+00" purity="4.7197133302688599e-01" nType="0">\n        <Node pos="l" depth="1" NCoef="0" IVar="16" Cut="7.6425504684448242e-01" cType="1" res="-9.9000000000000000e+01" rms="0.0000000000000000e+00" purity="5.6090354919433594e-01" nType="0">\n          <Node pos="l" depth="2" NCoef="0" IVar="-1" Cut="0.0000000000000000e+00" cType="1" res="-9.9000000000000000e+01" rms="0.0000000000000000e+00" purity="6.7701476812362671e-01" nType="1"/>\n          <Node pos="r" depth="2" NCoef="0" IVar="-1" Cut="0.0000000000000000e+00" cType="1" res="-9.9000000000000000e+01" rms="0.0000000000000000e+00" purity="4.9089843034744263e-01" nType="-1"/>\n        </Node>\n        <Node pos="r" depth="1" NCoef="0" IVar="18" Cut="7.4168831110000610e-01" cType="0" res="-9.9000000000000000e+01" rms="0.0000000000000000e+00" purity="4.5707362890243530e-01" nType="0">\n          <Node pos="l" depth="2" NCoef="0" IVar="17" Cut="7.4054104089736938e-01" cType="1" res="-9.9000000000000000e+01" rms="0.0000000000000000e+00" purity="4.7807776927947998e-01" nType="0">\n            <Node pos="l" depth="3" NCoef="0" IVar="-1" Cut="0.0000000000000000e+00" cType="1" res="-9.9000000000000000e+01" rms="0.0000000000000000e+00" purity="5.0365215539932251e-01" nType="1"/>\n            <Node pos="r" depth="3" NCoef="0" IVar="-1" Cut="0.0000000000000000e+00" cType="1" res="-9.9000000000000000e+01" rms="0.0000000000000000e+00" purity="4.4193136692047119e-01" nType="-1"/>\n          </Node>\n          <Node pos="r" depth="2" NCoef="0" IVar="-1" Cut="0.0000000000000000e+00" cType="1" res="-9.9000000000000000e+01" rms="0.0000000000000000e+00" purity="1.9239550828933716e-01" nType="-1"/>\n        </Node>\n      </Node>\n    </BinaryTree>\n    <BinaryTree type="DecisionTree" boostWeight="1.2850168455100983e-01" itree="19">\n      <Node pos="s" depth="0" NCoef="0" IVar="12" Cut="-9.0476191043853760e-01" cType="1" res="-9.9000000000000000e+01" rms="0.0000000000000000e+00" purity="4.7087469696998596e-01" nType="0">\n        <Node pos="l" depth="1" NCoef="0" IVar="1" Cut="-9.9356311559677124e-01" cType="0" res="-9.9000000000000000e+01" rms="0.0000000000000000e+00" purity="5.6767386198043823e-01" nType="0">\n          <Node pos="l" depth="2" NCoef="0" IVar="-1" Cut="0.0000000000000000e+00" cType="1" res="-9.9000000000000000e+01" rms="0.0000000000000000e+00" purity="6.3478964567184448e-01" nType="1"/>\n          <Node pos="r" depth="2" NCoef="0" IVar="-1" Cut="0.0000000000000000e+00" cType="1" res="-9.9000000000000000e+01" rms="0.0000000000000000e+00" purity="4.7186192870140076e-01" nType="-1"/>\n        </Node>\n        <Node pos="r" depth="1" NCoef="0" IVar="18" Cut="7.4168831110000610e-01" cType="0" res="-9.9000000000000000e+01" rms="0.0000000000000000e+00" purity="4.5470100641250610e-01" nType="0">\n          <Node pos="l" depth="2" NCoef="0" IVar="18" Cut="8.0985093116760254e-01" cType="0" res="-9.9000000000000000e+01" rms="0.0000000000000000e+00" purity="4.7366917133331299e-01" nType="0">\n            <Node pos="l" depth="3" NCoef="0" IVar="-1" Cut="0.0000000000000000e+00" cType="1" res="-9.9000000000000000e+01" rms="0.0000000000000000e+00" purity="5.4325973987579346e-01" nType="1"/>\n            <Node pos="r" depth="3" NCoef="0" IVar="-1" Cut="0.0000000000000000e+00" cType="1" res="-9.9000000000000000e+01" rms="0.0000000000000000e+00" purity="4.5885759592056274e-01" nType="-1"/>\n          </Node>\n          <Node pos="r" depth="2" NCoef="0" IVar="-1" Cut="0.0000000000000000e+00" cType="1" res="-9.9000000000000000e+01" rms="0.0000000000000000e+00" purity="2.0864479243755341e-01" nType="-1"/>\n        </Node>\n      </Node>\n    </BinaryTree>\n    <BinaryTree type="DecisionTree" boostWeight="8.6366829755845767e-02" itree="20">\n      <Node pos="s" depth="0" NCoef="0" IVar="12" Cut="-9.0476191043853760e-01" cType="1" res="-9.9000000000000000e+01" rms="0.0000000000000000e+00" purity="4.8850259184837341e-01" nType="0">\n        <Node pos="l" depth="1" NCoef="0" IVar="-1" Cut="7.6425504684448242e-01" cType="1" res="-9.9000000000000000e+01" rms="0.0000000000000000e+00" purity="5.6275510787963867e-01" nType="1"/>\n        <Node pos="r" depth="1" NCoef="0" IVar="18" Cut="7.4168831110000610e-01" cType="0" res="-9.9000000000000000e+01" rms="0.0000000000000000e+00" purity="4.7614657878875732e-01" nType="0">\n          <Node pos="l" depth="2" NCoef="0" IVar="17" Cut="7.5629764795303345e-01" cType="1" res="-9.9000000000000000e+01" rms="0.0000000000000000e+00" purity="4.9446117877960205e-01" nType="0">\n            <Node pos="l" depth="3" NCoef="0" IVar="-1" Cut="0.0000000000000000e+00" cType="1" res="-9.9000000000000000e+01" rms="0.0000000000000000e+00" purity="5.1109242439270020e-01" nType="1"/>\n            <Node pos="r" depth="3" NCoef="0" IVar="-1" Cut="0.0000000000000000e+00" cType="1" res="-9.9000000000000000e+01" rms="0.0000000000000000e+00" purity="4.3798372149467468e-01" nType="-1"/>\n          </Node>\n          <Node pos="r" depth="2" NCoef="0" IVar="-1" Cut="0.0000000000000000e+00" cType="1" res="-9.9000000000000000e+01" rms="0.0000000000000000e+00" purity="2.3065578937530518e-01" nType="-1"/>\n        </Node>\n      </Node>\n    </BinaryTree>\n    <BinaryTree type="DecisionTree" boostWeight="9.7584831857139231e-02" itree="21">\n      <Node pos="s" depth="0" NCoef="0" IVar="12" Cut="-9.0476191043853760e-01" cType="1" res="-9.9000000000000000e+01" rms="0.0000000000000000e+00" purity="4.7724097967147827e-01" nType="0">\n        <Node pos="l" depth="1" NCoef="0" IVar="16" Cut="7.6425504684448242e-01" cType="1" res="-9.9000000000000000e+01" rms="0.0000000000000000e+00" purity="5.4140108823776245e-01" nType="0">\n          <Node pos="l" depth="2" NCoef="0" IVar="-1" Cut="0.0000000000000000e+00" cType="1" res="-9.9000000000000000e+01" rms="0.0000000000000000e+00" purity="6.3839161396026611e-01" nType="1"/>\n          <Node pos="r" depth="2" NCoef="0" IVar="-1" Cut="0.0000000000000000e+00" cType="1" res="-9.9000000000000000e+01" rms="0.0000000000000000e+00" purity="4.8464676737785339e-01" nType="-1"/>\n        </Node>\n        <Node pos="r" depth="1" NCoef="0" IVar="18" Cut="7.4168831110000610e-01" cType="0" res="-9.9000000000000000e+01" rms="0.0000000000000000e+00" purity="4.6658557653427124e-01" nType="0">\n          <Node pos="l" depth="2" NCoef="0" IVar="18" Cut="8.0011343955993652e-01" cType="0" res="-9.9000000000000000e+01" rms="0.0000000000000000e+00" purity="4.8266652226448059e-01" nType="0">\n            <Node pos="l" depth="3" NCoef="0" IVar="-1" Cut="0.0000000000000000e+00" cType="1" res="-9.9000000000000000e+01" rms="0.0000000000000000e+00" purity="5.2704989910125732e-01" nType="1"/>\n            <Node pos="r" depth="3" NCoef="0" IVar="-1" Cut="0.0000000000000000e+00" cType="1" res="-9.9000000000000000e+01" rms="0.0000000000000000e+00" purity="4.6691164374351501e-01" nType="-1"/>\n          </Node>\n          <Node pos="r" depth="2" NCoef="0" IVar="-1" Cut="0.0000000000000000e+00" cType="1" res="-9.9000000000000000e+01" rms="0.0000000000000000e+00" purity="2.4633695185184479e-01" nType="-1"/>\n        </Node>\n      </Node>\n    </BinaryTree>\n    <BinaryTree type="DecisionTree" boostWeight="6.3114169639785209e-02" itree="22">\n      <Node pos="s" depth="0" NCoef="0" IVar="8" Cut="-4.6606138348579407e-01" cType="0" res="-9.9000000000000000e+01" rms="0.0000000000000000e+00" purity="4.8879346251487732e-01" nType="0">\n        <Node pos="l" depth="1" NCoef="0" IVar="-1" Cut="0.0000000000000000e+00" cType="1" res="-9.9000000000000000e+01" rms="0.0000000000000000e+00" purity="5.6627911329269409e-01" nType="1"/>\n        <Node pos="r" depth="1" NCoef="0" IVar="7" Cut="-3.6842104792594910e-01" cType="1" res="-9.9000000000000000e+01" rms="0.0000000000000000e+00" purity="4.8016354441642761e-01" nType="0">\n          <Node pos="l" depth="2" NCoef="0" IVar="9" Cut="-4.7252744436264038e-01" cType="1" res="-9.9000000000000000e+01" rms="0.0000000000000000e+00" purity="4.9448907375335693e-01" nType="0">\n            <Node pos="l" depth="3" NCoef="0" IVar="-1" Cut="0.0000000000000000e+00" cType="1" res="-9.9000000000000000e+01" rms="0.0000000000000000e+00" purity="5.2943271398544312e-01" nType="1"/>\n            <Node pos="r" depth="3" NCoef="0" IVar="-1" Cut="0.0000000000000000e+00" cType="1" res="-9.9000000000000000e+01" rms="0.0000000000000000e+00" purity="4.8672786355018616e-01" nType="-1"/>\n          </Node>\n          <Node pos="r" depth="2" NCoef="0" IVar="-1" Cut="-9.0476191043853760e-01" cType="1" res="-9.9000000000000000e+01" rms="0.0000000000000000e+00" purity="4.4148015975952148e-01" nType="-1"/>\n        </Node>\n      </Node>\n    </BinaryTree>\n    <BinaryTree type="DecisionTree" boostWeight="9.6614360736540505e-02" itree="23">\n      <Node pos="s" depth="0" NCoef="0" IVar="11" Cut="-9.0476191043853760e-01" cType="1" res="-9.9000000000000000e+01" rms="0.0000000000000000e+00" purity="4.9763613939285278e-01" nType="0">\n        <Node pos="l" depth="1" NCoef="0" IVar="2" Cut="-5.2388906478881836e-01" cType="0" res="-9.9000000000000000e+01" rms="0.0000000000000000e+00" purity="5.2220076322555542e-01" nType="0">\n          <Node pos="l" depth="2" NCoef="0" IVar="4" Cut="-7.1281498670578003e-01" cType="1" res="-9.9000000000000000e+01" rms="0.0000000000000000e+00" purity="5.5778092145919800e-01" nType="0">\n            <Node pos="l" depth="3" NCoef="0" IVar="-1" Cut="0.0000000000000000e+00" cType="1" res="-9.9000000000000000e+01" rms="0.0000000000000000e+00" purity="5.8669948577880859e-01" nType="1"/>\n            <Node pos="r" depth="3" NCoef="0" IVar="-1" Cut="0.0000000000000000e+00" cType="1" res="-9.9000000000000000e+01" rms="0.0000000000000000e+00" purity="4.9958100914955139e-01" nType="-1"/>\n          </Node>\n          <Node pos="r" depth="2" NCoef="0" IVar="-1" Cut="2.3076932132244110e-01" cType="1" res="-9.9000000000000000e+01" rms="0.0000000000000000e+00" purity="4.8324179649353027e-01" nType="-1"/>\n        </Node>\n        <Node pos="r" depth="1" NCoef="0" IVar="15" Cut="7.4699008464813232e-01" cType="0" res="-9.9000000000000000e+01" rms="0.0000000000000000e+00" purity="4.7153630852699280e-01" nType="0">\n          <Node pos="l" depth="2" NCoef="0" IVar="19" Cut="8.6411511898040771e-01" cType="1" res="-9.9000000000000000e+01" rms="0.0000000000000000e+00" purity="4.9137926101684570e-01" nType="0">\n            <Node pos="l" depth="3" NCoef="0" IVar="-1" Cut="0.0000000000000000e+00" cType="1" res="-9.9000000000000000e+01" rms="0.0000000000000000e+00" purity="5.3640419244766235e-01" nType="1"/>\n            <Node pos="r" depth="3" NCoef="0" IVar="-1" Cut="0.0000000000000000e+00" cType="1" res="-9.9000000000000000e+01" rms="0.0000000000000000e+00" purity="4.6858289837837219e-01" nType="-1"/>\n          </Node>\n          <Node pos="r" depth="2" NCoef="0" IVar="-1" Cut="0.0000000000000000e+00" cType="1" res="-9.9000000000000000e+01" rms="0.0000000000000000e+00" purity="3.0270981788635254e-01" nType="-1"/>\n        </Node>\n      </Node>\n    </BinaryTree>\n    <BinaryTree type="DecisionTree" boostWeight="6.3316614776950705e-02" itree="24">\n      <Node pos="s" depth="0" NCoef="0" IVar="20" Cut="-9.0476191043853760e-01" cType="1" res="-9.9000000000000000e+01" rms="0.0000000000000000e+00" purity="4.9817466735839844e-01" nType="0">\n        <Node pos="l" depth="1" NCoef="0" IVar="8" Cut="-5.5505114793777466e-01" cType="0" res="-9.9000000000000000e+01" rms="0.0000000000000000e+00" purity="5.0431573390960693e-01" nType="0">\n          <Node pos="l" depth="2" NCoef="0" IVar="13" Cut="-9.0476191043853760e-01" cType="1" res="-9.9000000000000000e+01" rms="0.0000000000000000e+00" purity="5.4814445972442627e-01" nType="0">\n            <Node pos="l" depth="3" NCoef="0" IVar="-1" Cut="0.0000000000000000e+00" cType="1" res="-9.9000000000000000e+01" rms="0.0000000000000000e+00" purity="5.8712840080261230e-01" nType="1"/>\n            <Node pos="r" depth="3" NCoef="0" IVar="-1" Cut="0.0000000000000000e+00" cType="1" res="-9.9000000000000000e+01" rms="0.0000000000000000e+00" purity="4.5514208078384399e-01" nType="-1"/>\n          </Node>\n          <Node pos="r" depth="2" NCoef="0" IVar="7" Cut="-4.5864659547805786e-01" cType="1" res="-9.9000000000000000e+01" rms="0.0000000000000000e+00" purity="4.9284538626670837e-01" nType="0">\n            <Node pos="l" depth="3" NCoef="0" IVar="-1" Cut="0.0000000000000000e+00" cType="1" res="-9.9000000000000000e+01" rms="0.0000000000000000e+00" purity="5.0647592544555664e-01" nType="1"/>\n            <Node pos="r" depth="3" NCoef="0" IVar="-1" Cut="0.0000000000000000e+00" cType="1" res="-9.9000000000000000e+01" rms="0.0000000000000000e+00" purity="4.6864235401153564e-01" nType="-1"/>\n          </Node>\n        </Node>\n        <Node pos="r" depth="1" NCoef="0" IVar="-1" Cut="0.0000000000000000e+00" cType="1" res="-9.9000000000000000e+01" rms="0.0000000000000000e+00" purity="4.1669514775276184e-01" nType="-1"/>\n      </Node>\n    </BinaryTree>\n    <BinaryTree type="DecisionTree" boostWeight="6.7724777886826890e-02" itree="25">\n      <Node pos="s" depth="0" NCoef="0" IVar="4" Cut="-4.7619048506021500e-02" cType="1" res="-9.9000000000000000e+01" rms="0.0000000000000000e+00" purity="4.9476498365402222e-01" nType="0">\n        <Node pos="l" depth="1" NCoef="0" IVar="12" Cut="-9.0476191043853760e-01" cType="1" res="-9.9000000000000000e+01" rms="0.0000000000000000e+00" purity="4.9965903162956238e-01" nType="0">\n          <Node pos="l" depth="2" NCoef="0" IVar="2" Cut="-5.2397406101226807e-01" cType="0" res="-9.9000000000000000e+01" rms="0.0000000000000000e+00" purity="5.6086498498916626e-01" nType="0">\n            <Node pos="l" depth="3" NCoef="0" IVar="-1" Cut="0.0000000000000000e+00" cType="1" res="-9.9000000000000000e+01" rms="0.0000000000000000e+00" purity="6.3505971431732178e-01" nType="1"/>\n            <Node pos="r" depth="3" NCoef="0" IVar="-1" Cut="0.0000000000000000e+00" cType="1" res="-9.9000000000000000e+01" rms="0.0000000000000000e+00" purity="4.7224664688110352e-01" nType="-1"/>\n          </Node>\n          <Node pos="r" depth="2" NCoef="0" IVar="18" Cut="7.4168831110000610e-01" cType="0" res="-9.9000000000000000e+01" rms="0.0000000000000000e+00" purity="4.9000835418701172e-01" nType="0">\n            <Node pos="l" depth="3" NCoef="0" IVar="-1" Cut="0.0000000000000000e+00" cType="1" res="-9.9000000000000000e+01" rms="0.0000000000000000e+00" purity="5.0627505779266357e-01" nType="1"/>\n            <Node pos="r" depth="3" NCoef="0" IVar="-1" Cut="0.0000000000000000e+00" cType="1" res="-9.9000000000000000e+01" rms="0.0000000000000000e+00" purity="2.6842033863067627e-01" nType="-1"/>\n          </Node>\n        </Node>\n        <Node pos="r" depth="1" NCoef="0" IVar="-1" Cut="0.0000000000000000e+00" cType="1" res="-9.9000000000000000e+01" rms="0.0000000000000000e+00" purity="4.0445390343666077e-01" nType="-1"/>\n      </Node>\n    </BinaryTree>\n    <BinaryTree type="DecisionTree" boostWeight="5.9567315972023527e-02" itree="26">\n      <Node pos="s" depth="0" NCoef="0" IVar="12" Cut="-9.0476191043853760e-01" cType="1" res="-9.9000000000000000e+01" rms="0.0000000000000000e+00" purity="4.8343217372894287e-01" nType="0">\n        <Node pos="l" depth="1" NCoef="0" IVar="3" Cut="-2.9478453099727631e-02" cType="1" res="-9.9000000000000000e+01" rms="0.0000000000000000e+00" purity="5.4342079162597656e-01" nType="0">\n          <Node pos="l" depth="2" NCoef="0" IVar="-1" Cut="0.0000000000000000e+00" cType="1" res="-9.9000000000000000e+01" rms="0.0000000000000000e+00" purity="6.2155330181121826e-01" nType="1"/>\n          <Node pos="r" depth="2" NCoef="0" IVar="-1" Cut="0.0000000000000000e+00" cType="1" res="-9.9000000000000000e+01" rms="0.0000000000000000e+00" purity="4.9431750178337097e-01" nType="-1"/>\n        </Node>\n        <Node pos="r" depth="1" NCoef="0" IVar="-1" Cut="7.4168831110000610e-01" cType="0" res="-9.9000000000000000e+01" rms="0.0000000000000000e+00" purity="4.7362703084945679e-01" nType="-1"/>\n      </Node>\n    </BinaryTree>\n    <BinaryTree type="DecisionTree" boostWeight="7.2569629046555020e-02" itree="27">\n      <Node pos="s" depth="0" NCoef="0" IVar="12" Cut="-9.0476191043853760e-01" cType="1" res="-9.9000000000000000e+01" rms="0.0000000000000000e+00" purity="4.9669942259788513e-01" nType="0">\n        <Node pos="l" depth="1" NCoef="0" IVar="-1" Cut="-6.3064551353454590e-01" cType="0" res="-9.9000000000000000e+01" rms="0.0000000000000000e+00" purity="5.4695838689804077e-01" nType="1"/>\n        <Node pos="r" depth="1" NCoef="0" IVar="18" Cut="7.4168831110000610e-01" cType="0" res="-9.9000000000000000e+01" rms="0.0000000000000000e+00" purity="4.8849636316299438e-01" nType="0">\n          <Node pos="l" depth="2" NCoef="0" IVar="10" Cut="-9.0476191043853760e-01" cType="0" res="-9.9000000000000000e+01" rms="0.0000000000000000e+00" purity="5.0225740671157837e-01" nType="0">\n            <Node pos="l" depth="3" NCoef="0" IVar="-1" Cut="0.0000000000000000e+00" cType="1" res="-9.9000000000000000e+01" rms="0.0000000000000000e+00" purity="5.1478284597396851e-01" nType="1"/>\n            <Node pos="r" depth="3" NCoef="0" IVar="-1" Cut="0.0000000000000000e+00" cType="1" res="-9.9000000000000000e+01" rms="0.0000000000000000e+00" purity="4.4091817736625671e-01" nType="-1"/>\n          </Node>\n          <Node pos="r" depth="2" NCoef="0" IVar="-1" Cut="0.0000000000000000e+00" cType="1" res="-9.9000000000000000e+01" rms="0.0000000000000000e+00" purity="2.8936082124710083e-01" nType="-1"/>\n        </Node>\n      </Node>\n    </BinaryTree>\n    <BinaryTree type="DecisionTree" boostWeight="6.0426307311805649e-02" itree="28">\n      <Node pos="s" depth="0" NCoef="0" IVar="12" Cut="-9.0476191043853760e-01" cType="1" res="-9.9000000000000000e+01" rms="0.0000000000000000e+00" purity="4.8548772931098938e-01" nType="0">\n        <Node pos="l" depth="1" NCoef="0" IVar="8" Cut="-6.3064551353454590e-01" cType="0" res="-9.9000000000000000e+01" rms="0.0000000000000000e+00" purity="5.2892237901687622e-01" nType="0">\n          <Node pos="l" depth="2" NCoef="0" IVar="-1" Cut="0.0000000000000000e+00" cType="1" res="-9.9000000000000000e+01" rms="0.0000000000000000e+00" purity="5.8989715576171875e-01" nType="1"/>\n          <Node pos="r" depth="2" NCoef="0" IVar="-1" Cut="0.0000000000000000e+00" cType="1" res="-9.9000000000000000e+01" rms="0.0000000000000000e+00" purity="4.8280867934226990e-01" nType="-1"/>\n        </Node>\n        <Node pos="r" depth="1" NCoef="0" IVar="18" Cut="7.4168831110000610e-01" cType="0" res="-9.9000000000000000e+01" rms="0.0000000000000000e+00" purity="4.7840490937232971e-01" nType="0">\n          <Node pos="l" depth="2" NCoef="0" IVar="17" Cut="7.5629764795303345e-01" cType="1" res="-9.9000000000000000e+01" rms="0.0000000000000000e+00" purity="4.9025741219520569e-01" nType="0">\n            <Node pos="l" depth="3" NCoef="0" IVar="-1" Cut="0.0000000000000000e+00" cType="1" res="-9.9000000000000000e+01" rms="0.0000000000000000e+00" purity="5.0386488437652588e-01" nType="1"/>\n            <Node pos="r" depth="3" NCoef="0" IVar="-1" Cut="0.0000000000000000e+00" cType="1" res="-9.9000000000000000e+01" rms="0.0000000000000000e+00" purity="4.4393751025199890e-01" nType="-1"/>\n          </Node>\n          <Node pos="r" depth="2" NCoef="0" IVar="-1" Cut="0.0000000000000000e+00" cType="1" res="-9.9000000000000000e+01" rms="0.0000000000000000e+00" purity="3.0450829863548279e-01" nType="-1"/>\n        </Node>\n      </Node>\n    </BinaryTree>\n    <BinaryTree type="DecisionTree" boostWeight="6.2430693679356566e-02" itree="29">\n      <Node pos="s" depth="0" NCoef="0" IVar="12" Cut="-9.0476191043853760e-01" cType="1" res="-9.9000000000000000e+01" rms="0.0000000000000000e+00" purity="4.7993794083595276e-01" nType="0">\n        <Node pos="l" depth="1" NCoef="0" IVar="9" Cut="9.8901137709617615e-02" cType="1" res="-9.9000000000000000e+01" rms="0.0000000000000000e+00" purity="5.3110933303833008e-01" nType="0">\n          <Node pos="l" depth="2" NCoef="0" IVar="-1" Cut="0.0000000000000000e+00" cType="1" res="-9.9000000000000000e+01" rms="0.0000000000000000e+00" purity="5.9825366735458374e-01" nType="1"/>\n          <Node pos="r" depth="2" NCoef="0" IVar="-1" Cut="0.0000000000000000e+00" cType="1" res="-9.9000000000000000e+01" rms="0.0000000000000000e+00" purity="4.8563390970230103e-01" nType="-1"/>\n        </Node>\n        <Node pos="r" depth="1" NCoef="0" IVar="-1" Cut="7.2546333074569702e-01" cType="0" res="-9.9000000000000000e+01" rms="0.0000000000000000e+00" purity="4.7160428762435913e-01" nType="-1"/>\n      </Node>\n    </BinaryTree>\n    <BinaryTree type="DecisionTree" boostWeight="5.9440832007277788e-02" itree="30">\n      <Node pos="s" depth="0" NCoef="0" IVar="12" Cut="-9.0476191043853760e-01" cType="1" res="-9.9000000000000000e+01" rms="0.0000000000000000e+00" purity="4.9376371502876282e-01" nType="0">\n        <Node pos="l" depth="1" NCoef="0" IVar="1" Cut="-9.9356311559677124e-01" cType="0" res="-9.9000000000000000e+01" rms="0.0000000000000000e+00" purity="5.3421437740325928e-01" nType="0">\n          <Node pos="l" depth="2" NCoef="0" IVar="-1" Cut="0.0000000000000000e+00" cType="1" res="-9.9000000000000000e+01" rms="0.0000000000000000e+00" purity="5.7180428504943848e-01" nType="1"/>\n          <Node pos="r" depth="2" NCoef="0" IVar="-1" Cut="0.0000000000000000e+00" cType="1" res="-9.9000000000000000e+01" rms="0.0000000000000000e+00" purity="4.8240271210670471e-01" nType="-1"/>\n        </Node>\n        <Node pos="r" depth="1" NCoef="0" IVar="15" Cut="7.2546333074569702e-01" cType="0" res="-9.9000000000000000e+01" rms="0.0000000000000000e+00" purity="4.8718416690826416e-01" nType="0">\n          <Node pos="l" depth="2" NCoef="0" IVar="10" Cut="-9.0476191043853760e-01" cType="0" res="-9.9000000000000000e+01" rms="0.0000000000000000e+00" purity="4.9886450171470642e-01" nType="0">\n            <Node pos="l" depth="3" NCoef="0" IVar="-1" Cut="0.0000000000000000e+00" cType="1" res="-9.9000000000000000e+01" rms="0.0000000000000000e+00" purity="5.0902014970779419e-01" nType="1"/>\n            <Node pos="r" depth="3" NCoef="0" IVar="-1" Cut="0.0000000000000000e+00" cType="1" res="-9.9000000000000000e+01" rms="0.0000000000000000e+00" purity="4.5107728242874146e-01" nType="-1"/>\n          </Node>\n          <Node pos="r" depth="2" NCoef="0" IVar="-1" Cut="0.0000000000000000e+00" cType="1" res="-9.9000000000000000e+01" rms="0.0000000000000000e+00" purity="3.4806132316589355e-01" nType="-1"/>\n        </Node>\n      </Node>\n    </BinaryTree>\n    <BinaryTree type="DecisionTree" boostWeight="4.5261082136389998e-02" itree="31">\n      <Node pos="s" depth="0" NCoef="0" IVar="12" Cut="-9.0476191043853760e-01" cType="1" res="-9.9000000000000000e+01" rms="0.0000000000000000e+00" purity="4.8674365878105164e-01" nType="0">\n        <Node pos="l" depth="1" NCoef="0" IVar="16" Cut="7.6425504684448242e-01" cType="1" res="-9.9000000000000000e+01" rms="0.0000000000000000e+00" purity="5.3194421529769897e-01" nType="0">\n          <Node pos="l" depth="2" NCoef="0" IVar="-1" Cut="0.0000000000000000e+00" cType="1" res="-9.9000000000000000e+01" rms="0.0000000000000000e+00" purity="5.9242957830429077e-01" nType="1"/>\n          <Node pos="r" depth="2" NCoef="0" IVar="-1" Cut="0.0000000000000000e+00" cType="1" res="-9.9000000000000000e+01" rms="0.0000000000000000e+00" purity="4.9758151173591614e-01" nType="-1"/>\n        </Node>\n        <Node pos="r" depth="1" NCoef="0" IVar="-1" Cut="7.4168831110000610e-01" cType="0" res="-9.9000000000000000e+01" rms="0.0000000000000000e+00" purity="4.7940135002136230e-01" nType="-1"/>\n      </Node>\n    </BinaryTree>\n    <BinaryTree type="DecisionTree" boostWeight="5.3953835900035989e-02" itree="32">\n      <Node pos="s" depth="0" NCoef="0" IVar="20" Cut="-9.0476191043853760e-01" cType="1" res="-9.9000000000000000e+01" rms="0.0000000000000000e+00" purity="4.9690830707550049e-01" nType="0">\n        <Node pos="l" depth="1" NCoef="0" IVar="8" Cut="-5.5505114793777466e-01" cType="0" res="-9.9000000000000000e+01" rms="0.0000000000000000e+00" purity="5.0145113468170166e-01" nType="0">\n          <Node pos="l" depth="2" NCoef="0" IVar="13" Cut="-9.0476191043853760e-01" cType="1" res="-9.9000000000000000e+01" rms="0.0000000000000000e+00" purity="5.3763115406036377e-01" nType="0">\n            <Node pos="l" depth="3" NCoef="0" IVar="-1" Cut="0.0000000000000000e+00" cType="1" res="-9.9000000000000000e+01" rms="0.0000000000000000e+00" purity="5.6461149454116821e-01" nType="1"/>\n            <Node pos="r" depth="3" NCoef="0" IVar="-1" Cut="0.0000000000000000e+00" cType="1" res="-9.9000000000000000e+01" rms="0.0000000000000000e+00" purity="4.7360000014305115e-01" nType="-1"/>\n          </Node>\n          <Node pos="r" depth="2" NCoef="0" IVar="0" Cut="-9.3957132101058960e-01" cType="0" res="-9.9000000000000000e+01" rms="0.0000000000000000e+00" purity="4.9200195074081421e-01" nType="0">\n            <Node pos="l" depth="3" NCoef="0" IVar="-1" Cut="0.0000000000000000e+00" cType="1" res="-9.9000000000000000e+01" rms="0.0000000000000000e+00" purity="5.4773896932601929e-01" nType="1"/>\n            <Node pos="r" depth="3" NCoef="0" IVar="-1" Cut="0.0000000000000000e+00" cType="1" res="-9.9000000000000000e+01" rms="0.0000000000000000e+00" purity="4.8646807670593262e-01" nType="-1"/>\n          </Node>\n        </Node>\n        <Node pos="r" depth="1" NCoef="0" IVar="-1" Cut="0.0000000000000000e+00" cType="1" res="-9.9000000000000000e+01" rms="0.0000000000000000e+00" purity="4.3688252568244934e-01" nType="-1"/>\n      </Node>\n    </BinaryTree>\n    <BinaryTree type="DecisionTree" boostWeight="5.4738645061465696e-02" itree="33">\n      <Node pos="s" depth="0" NCoef="0" IVar="4" Cut="-4.7619048506021500e-02" cType="1" res="-9.9000000000000000e+01" rms="0.0000000000000000e+00" purity="5.0495213270187378e-01" nType="0">\n        <Node pos="l" depth="1" NCoef="0" IVar="12" Cut="-9.0476191043853760e-01" cType="1" res="-9.9000000000000000e+01" rms="0.0000000000000000e+00" purity="5.0881445407867432e-01" nType="0">\n          <Node pos="l" depth="2" NCoef="0" IVar="-1" Cut="-5.2397406101226807e-01" cType="0" res="-9.9000000000000000e+01" rms="0.0000000000000000e+00" purity="5.5712598562240601e-01" nType="1"/>\n          <Node pos="r" depth="2" NCoef="0" IVar="18" Cut="7.4168831110000610e-01" cType="0" res="-9.9000000000000000e+01" rms="0.0000000000000000e+00" purity="5.0130945444107056e-01" nType="0">\n            <Node pos="l" depth="3" NCoef="0" IVar="-1" Cut="0.0000000000000000e+00" cType="1" res="-9.9000000000000000e+01" rms="0.0000000000000000e+00" purity="5.1152443885803223e-01" nType="1"/>\n            <Node pos="r" depth="3" NCoef="0" IVar="-1" Cut="0.0000000000000000e+00" cType="1" res="-9.9000000000000000e+01" rms="0.0000000000000000e+00" purity="3.5046905279159546e-01" nType="-1"/>\n          </Node>\n        </Node>\n        <Node pos="r" depth="1" NCoef="0" IVar="-1" Cut="0.0000000000000000e+00" cType="1" res="-9.9000000000000000e+01" rms="0.0000000000000000e+00" purity="4.3377691507339478e-01" nType="-1"/>\n      </Node>\n    </BinaryTree>\n    <BinaryTree type="DecisionTree" boostWeight="5.2294117971773475e-02" itree="34">\n      <Node pos="s" depth="0" NCoef="0" IVar="7" Cut="-3.6842104792594910e-01" cType="1" res="-9.9000000000000000e+01" rms="0.0000000000000000e+00" purity="4.9409526586532593e-01" nType="0">\n        <Node pos="l" depth="1" NCoef="0" IVar="8" Cut="-6.8205237388610840e-01" cType="0" res="-9.9000000000000000e+01" rms="0.0000000000000000e+00" purity="5.0386297702789307e-01" nType="0">\n          <Node pos="l" depth="2" NCoef="0" IVar="13" Cut="-9.0476191043853760e-01" cType="1" res="-9.9000000000000000e+01" rms="0.0000000000000000e+00" purity="5.2049767971038818e-01" nType="0">\n            <Node pos="l" depth="3" NCoef="0" IVar="-1" Cut="0.0000000000000000e+00" cType="1" res="-9.9000000000000000e+01" rms="0.0000000000000000e+00" purity="5.3292965888977051e-01" nType="1"/>\n            <Node pos="r" depth="3" NCoef="0" IVar="-1" Cut="0.0000000000000000e+00" cType="1" res="-9.9000000000000000e+01" rms="0.0000000000000000e+00" purity="4.8993772268295288e-01" nType="-1"/>\n          </Node>\n          <Node pos="r" depth="2" NCoef="0" IVar="14" Cut="-9.0476191043853760e-01" cType="0" res="-9.9000000000000000e+01" rms="0.0000000000000000e+00" purity="4.8959043622016907e-01" nType="0">\n            <Node pos="l" depth="3" NCoef="0" IVar="-1" Cut="0.0000000000000000e+00" cType="1" res="-9.9000000000000000e+01" rms="0.0000000000000000e+00" purity="5.2415168285369873e-01" nType="1"/>\n            <Node pos="r" depth="3" NCoef="0" IVar="-1" Cut="0.0000000000000000e+00" cType="1" res="-9.9000000000000000e+01" rms="0.0000000000000000e+00" purity="4.7996231913566589e-01" nType="-1"/>\n          </Node>\n        </Node>\n        <Node pos="r" depth="1" NCoef="0" IVar="18" Cut="7.7010387182235718e-01" cType="0" res="-9.9000000000000000e+01" rms="0.0000000000000000e+00" purity="4.6783280372619629e-01" nType="0">\n          <Node pos="l" depth="2" NCoef="0" IVar="18" Cut="7.8591644763946533e-01" cType="0" res="-9.9000000000000000e+01" rms="0.0000000000000000e+00" purity="4.8857390880584717e-01" nType="0">\n            <Node pos="l" depth="3" NCoef="0" IVar="-1" Cut="0.0000000000000000e+00" cType="1" res="-9.9000000000000000e+01" rms="0.0000000000000000e+00" purity="5.0131267309188843e-01" nType="1"/>\n            <Node pos="r" depth="3" NCoef="0" IVar="-1" Cut="0.0000000000000000e+00" cType="1" res="-9.9000000000000000e+01" rms="0.0000000000000000e+00" purity="4.7024646401405334e-01" nType="-1"/>\n          </Node>\n          <Node pos="r" depth="2" NCoef="0" IVar="-1" Cut="0.0000000000000000e+00" cType="1" res="-9.9000000000000000e+01" rms="0.0000000000000000e+00" purity="3.8947990536689758e-01" nType="-1"/>\n        </Node>\n      </Node>\n    </BinaryTree>\n    <BinaryTree type="DecisionTree" boostWeight="4.3618481265251773e-02" itree="35">\n      <Node pos="s" depth="0" NCoef="0" IVar="7" Cut="-3.6842104792594910e-01" cType="1" res="-9.9000000000000000e+01" rms="0.0000000000000000e+00" purity="4.9536463618278503e-01" nType="0">\n        <Node pos="l" depth="1" NCoef="0" IVar="6" Cut="-9.2074465751647949e-01" cType="0" res="-9.9000000000000000e+01" rms="0.0000000000000000e+00" purity="5.0529360771179199e-01" nType="0">\n          <Node pos="l" depth="2" NCoef="0" IVar="-1" Cut="7.6082575321197510e-01" cType="1" res="-9.9000000000000000e+01" rms="0.0000000000000000e+00" purity="5.1782888174057007e-01" nType="1"/>\n          <Node pos="r" depth="2" NCoef="0" IVar="9" Cut="1.9047622382640839e-01" cType="1" res="-9.9000000000000000e+01" rms="0.0000000000000000e+00" purity="4.8955169320106506e-01" nType="0">\n            <Node pos="l" depth="3" NCoef="0" IVar="-1" Cut="0.0000000000000000e+00" cType="1" res="-9.9000000000000000e+01" rms="0.0000000000000000e+00" purity="5.0569581985473633e-01" nType="1"/>\n            <Node pos="r" depth="3" NCoef="0" IVar="-1" Cut="0.0000000000000000e+00" cType="1" res="-9.9000000000000000e+01" rms="0.0000000000000000e+00" purity="4.5791652798652649e-01" nType="-1"/>\n          </Node>\n        </Node>\n        <Node pos="r" depth="1" NCoef="0" IVar="18" Cut="7.7010387182235718e-01" cType="0" res="-9.9000000000000000e+01" rms="0.0000000000000000e+00" purity="4.6865466237068176e-01" nType="0">\n          <Node pos="l" depth="2" NCoef="0" IVar="9" Cut="1.9047622382640839e-01" cType="0" res="-9.9000000000000000e+01" rms="0.0000000000000000e+00" purity="4.8621323704719543e-01" nType="0">\n            <Node pos="l" depth="3" NCoef="0" IVar="-1" Cut="0.0000000000000000e+00" cType="1" res="-9.9000000000000000e+01" rms="0.0000000000000000e+00" purity="5.0132757425308228e-01" nType="1"/>\n            <Node pos="r" depth="3" NCoef="0" IVar="-1" Cut="0.0000000000000000e+00" cType="1" res="-9.9000000000000000e+01" rms="0.0000000000000000e+00" purity="4.7427853941917419e-01" nType="-1"/>\n          </Node>\n          <Node pos="r" depth="2" NCoef="0" IVar="-1" Cut="0.0000000000000000e+00" cType="1" res="-9.9000000000000000e+01" rms="0.0000000000000000e+00" purity="4.0198409557342529e-01" nType="-1"/>\n        </Node>\n      </Node>\n    </BinaryTree>\n    <BinaryTree type="DecisionTree" boostWeight="4.3029076808232272e-02" itree="36">\n      <Node pos="s" depth="0" NCoef="0" IVar="20" Cut="-9.0476191043853760e-01" cType="1" res="-9.9000000000000000e+01" rms="0.0000000000000000e+00" purity="4.9067950248718262e-01" nType="0">\n        <Node pos="l" depth="1" NCoef="0" IVar="12" Cut="-9.0476191043853760e-01" cType="1" res="-9.9000000000000000e+01" rms="0.0000000000000000e+00" purity="4.9460551142692566e-01" nType="0">\n          <Node pos="l" depth="2" NCoef="0" IVar="9" Cut="1.9047622382640839e-01" cType="1" res="-9.9000000000000000e+01" rms="0.0000000000000000e+00" purity="5.2734345197677612e-01" nType="0">\n            <Node pos="l" depth="3" NCoef="0" IVar="-1" Cut="0.0000000000000000e+00" cType="1" res="-9.9000000000000000e+01" rms="0.0000000000000000e+00" purity="5.6955933570861816e-01" nType="1"/>\n            <Node pos="r" depth="3" NCoef="0" IVar="-1" Cut="0.0000000000000000e+00" cType="1" res="-9.9000000000000000e+01" rms="0.0000000000000000e+00" purity="4.8440232872962952e-01" nType="-1"/>\n          </Node>\n          <Node pos="r" depth="2" NCoef="0" IVar="18" Cut="7.4983817338943481e-01" cType="0" res="-9.9000000000000000e+01" rms="0.0000000000000000e+00" purity="4.8895359039306641e-01" nType="0">\n            <Node pos="l" depth="3" NCoef="0" IVar="-1" Cut="0.0000000000000000e+00" cType="1" res="-9.9000000000000000e+01" rms="0.0000000000000000e+00" purity="5.0179165601730347e-01" nType="1"/>\n            <Node pos="r" depth="3" NCoef="0" IVar="-1" Cut="0.0000000000000000e+00" cType="1" res="-9.9000000000000000e+01" rms="0.0000000000000000e+00" purity="3.6173880100250244e-01" nType="-1"/>\n          </Node>\n        </Node>\n        <Node pos="r" depth="1" NCoef="0" IVar="-1" Cut="0.0000000000000000e+00" cType="1" res="-9.9000000000000000e+01" rms="0.0000000000000000e+00" purity="4.3886426091194153e-01" nType="-1"/>\n      </Node>\n    </BinaryTree>\n    <BinaryTree type="DecisionTree" boostWeight="4.6683665303293029e-02" itree="37">\n      <Node pos="s" depth="0" NCoef="0" IVar="12" Cut="-9.0476191043853760e-01" cType="1" res="-9.9000000000000000e+01" rms="0.0000000000000000e+00" purity="4.8444712162017822e-01" nType="0">\n        <Node pos="l" depth="1" NCoef="0" IVar="8" Cut="-6.3064551353454590e-01" cType="0" res="-9.9000000000000000e+01" rms="0.0000000000000000e+00" purity="5.2435308694839478e-01" nType="0">\n          <Node pos="l" depth="2" NCoef="0" IVar="-1" Cut="0.0000000000000000e+00" cType="1" res="-9.9000000000000000e+01" rms="0.0000000000000000e+00" purity="5.6474554538726807e-01" nType="1"/>\n          <Node pos="r" depth="2" NCoef="0" IVar="-1" Cut="0.0000000000000000e+00" cType="1" res="-9.9000000000000000e+01" rms="0.0000000000000000e+00" purity="4.9355980753898621e-01" nType="-1"/>\n        </Node>\n        <Node pos="r" depth="1" NCoef="0" IVar="-1" Cut="7.2546333074569702e-01" cType="0" res="-9.9000000000000000e+01" rms="0.0000000000000000e+00" purity="4.7801822423934937e-01" nType="-1"/>\n      </Node>\n    </BinaryTree>\n    <BinaryTree type="DecisionTree" boostWeight="5.2898094099495981e-02" itree="38">\n      <Node pos="s" depth="0" NCoef="0" IVar="12" Cut="-9.0476191043853760e-01" cType="1" res="-9.9000000000000000e+01" rms="0.0000000000000000e+00" purity="4.9470943212509155e-01" nType="0">\n        <Node pos="l" depth="1" NCoef="0" IVar="9" Cut="2.8205132484436035e-01" cType="1" res="-9.9000000000000000e+01" rms="0.0000000000000000e+00" purity="5.2596497535705566e-01" nType="0">\n          <Node pos="l" depth="2" NCoef="0" IVar="-1" Cut="0.0000000000000000e+00" cType="1" res="-9.9000000000000000e+01" rms="0.0000000000000000e+00" purity="5.5466151237487793e-01" nType="1"/>\n          <Node pos="r" depth="2" NCoef="0" IVar="-1" Cut="0.0000000000000000e+00" cType="1" res="-9.9000000000000000e+01" rms="0.0000000000000000e+00" purity="4.7514134645462036e-01" nType="-1"/>\n        </Node>\n        <Node pos="r" depth="1" NCoef="0" IVar="15" Cut="7.2546333074569702e-01" cType="0" res="-9.9000000000000000e+01" rms="0.0000000000000000e+00" purity="4.8967638611793518e-01" nType="0">\n          <Node pos="l" depth="2" NCoef="0" IVar="17" Cut="7.5791722536087036e-01" cType="1" res="-9.9000000000000000e+01" rms="0.0000000000000000e+00" purity="4.9867063760757446e-01" nType="0">\n            <Node pos="l" depth="3" NCoef="0" IVar="-1" Cut="0.0000000000000000e+00" cType="1" res="-9.9000000000000000e+01" rms="0.0000000000000000e+00" purity="5.0914323329925537e-01" nType="1"/>\n            <Node pos="r" depth="3" NCoef="0" IVar="-1" Cut="0.0000000000000000e+00" cType="1" res="-9.9000000000000000e+01" rms="0.0000000000000000e+00" purity="4.6040728688240051e-01" nType="-1"/>\n          </Node>\n          <Node pos="r" depth="2" NCoef="0" IVar="-1" Cut="0.0000000000000000e+00" cType="1" res="-9.9000000000000000e+01" rms="0.0000000000000000e+00" purity="3.7813928723335266e-01" nType="-1"/>\n        </Node>\n      </Node>\n    </BinaryTree>\n    <BinaryTree type="DecisionTree" boostWeight="5.3061212520091230e-02" itree="39">\n      <Node pos="s" depth="0" NCoef="0" IVar="19" Cut="8.9935195446014404e-01" cType="0" res="-9.9000000000000000e+01" rms="0.0000000000000000e+00" purity="4.8902454972267151e-01" nType="0">\n        <Node pos="l" depth="1" NCoef="0" IVar="-1" Cut="0.0000000000000000e+00" cType="1" res="-9.9000000000000000e+01" rms="0.0000000000000000e+00" purity="5.2605819702148438e-01" nType="1"/>\n        <Node pos="r" depth="1" NCoef="0" IVar="12" Cut="-9.0476191043853760e-01" cType="1" res="-9.9000000000000000e+01" rms="0.0000000000000000e+00" purity="4.8136442899703979e-01" nType="0">\n          <Node pos="l" depth="2" NCoef="0" IVar="-1" Cut="-2.9478453099727631e-02" cType="1" res="-9.9000000000000000e+01" rms="0.0000000000000000e+00" purity="5.2233785390853882e-01" nType="1"/>\n          <Node pos="r" depth="2" NCoef="0" IVar="-1" Cut="7.2142827510833740e-01" cType="0" res="-9.9000000000000000e+01" rms="0.0000000000000000e+00" purity="4.7313663363456726e-01" nType="-1"/>\n        </Node>\n      </Node>\n    </BinaryTree>\n    <BinaryTree type="DecisionTree" boostWeight="6.6654666975528562e-02" itree="40">\n      <Node pos="s" depth="0" NCoef="0" IVar="13" Cut="-9.0476191043853760e-01" cType="1" res="-9.9000000000000000e+01" rms="0.0000000000000000e+00" purity="4.9633911252021790e-01" nType="0">\n        <Node pos="l" depth="1" NCoef="0" IVar="18" Cut="7.7644062042236328e-01" cType="0" res="-9.9000000000000000e+01" rms="0.0000000000000000e+00" purity="5.0583958625793457e-01" nType="0">\n          <Node pos="l" depth="2" NCoef="0" IVar="1" Cut="-9.8672837018966675e-01" cType="0" res="-9.9000000000000000e+01" rms="0.0000000000000000e+00" purity="5.3323030471801758e-01" nType="0">\n            <Node pos="l" depth="3" NCoef="0" IVar="-1" Cut="0.0000000000000000e+00" cType="1" res="-9.9000000000000000e+01" rms="0.0000000000000000e+00" purity="5.6438446044921875e-01" nType="1"/>\n            <Node pos="r" depth="3" NCoef="0" IVar="-1" Cut="0.0000000000000000e+00" cType="1" res="-9.9000000000000000e+01" rms="0.0000000000000000e+00" purity="4.9023291468620300e-01" nType="-1"/>\n          </Node>\n          <Node pos="r" depth="2" NCoef="0" IVar="2" Cut="-6.1904764175415039e-01" cType="0" res="-9.9000000000000000e+01" rms="0.0000000000000000e+00" purity="4.8731470108032227e-01" nType="0">\n            <Node pos="l" depth="3" NCoef="0" IVar="-1" Cut="0.0000000000000000e+00" cType="1" res="-9.9000000000000000e+01" rms="0.0000000000000000e+00" purity="5.0744134187698364e-01" nType="1"/>\n            <Node pos="r" depth="3" NCoef="0" IVar="-1" Cut="0.0000000000000000e+00" cType="1" res="-9.9000000000000000e+01" rms="0.0000000000000000e+00" purity="4.2322608828544617e-01" nType="-1"/>\n          </Node>\n        </Node>\n        <Node pos="r" depth="1" NCoef="0" IVar="15" Cut="7.6185864210128784e-01" cType="0" res="-9.9000000000000000e+01" rms="0.0000000000000000e+00" purity="4.8027876019477844e-01" nType="0">\n          <Node pos="l" depth="2" NCoef="0" IVar="-1" Cut="-9.0477508306503296e-01" cType="1" res="-9.9000000000000000e+01" rms="0.0000000000000000e+00" purity="5.0336033105850220e-01" nType="1"/>\n          <Node pos="r" depth="2" NCoef="0" IVar="-1" Cut="1.4285714924335480e-01" cType="1" res="-9.9000000000000000e+01" rms="0.0000000000000000e+00" purity="4.2179691791534424e-01" nType="-1"/>\n        </Node>\n      </Node>\n    </BinaryTree>\n    <BinaryTree type="DecisionTree" boostWeight="4.9099142668007030e-02" itree="41">\n      <Node pos="s" depth="0" NCoef="0" IVar="4" Cut="-4.7619048506021500e-02" cType="1" res="-9.9000000000000000e+01" rms="0.0000000000000000e+00" purity="4.9188646674156189e-01" nType="0">\n        <Node pos="l" depth="1" NCoef="0" IVar="12" Cut="-9.0476191043853760e-01" cType="1" res="-9.9000000000000000e+01" rms="0.0000000000000000e+00" purity="4.9465289711952209e-01" nType="0">\n          <Node pos="l" depth="2" NCoef="0" IVar="2" Cut="-5.2397406101226807e-01" cType="0" res="-9.9000000000000000e+01" rms="0.0000000000000000e+00" purity="5.3325170278549194e-01" nType="0">\n            <Node pos="l" depth="3" NCoef="0" IVar="-1" Cut="0.0000000000000000e+00" cType="1" res="-9.9000000000000000e+01" rms="0.0000000000000000e+00" purity="5.6377613544464111e-01" nType="1"/>\n            <Node pos="r" depth="3" NCoef="0" IVar="-1" Cut="0.0000000000000000e+00" cType="1" res="-9.9000000000000000e+01" rms="0.0000000000000000e+00" purity="4.9728554487228394e-01" nType="-1"/>\n          </Node>\n          <Node pos="r" depth="2" NCoef="0" IVar="15" Cut="7.5042122602462769e-01" cType="0" res="-9.9000000000000000e+01" rms="0.0000000000000000e+00" purity="4.8872005939483643e-01" nType="0">\n            <Node pos="l" depth="3" NCoef="0" IVar="-1" Cut="0.0000000000000000e+00" cType="1" res="-9.9000000000000000e+01" rms="0.0000000000000000e+00" purity="5.0649100542068481e-01" nType="1"/>\n            <Node pos="r" depth="3" NCoef="0" IVar="-1" Cut="0.0000000000000000e+00" cType="1" res="-9.9000000000000000e+01" rms="0.0000000000000000e+00" purity="4.4263684749603271e-01" nType="-1"/>\n          </Node>\n        </Node>\n        <Node pos="r" depth="1" NCoef="0" IVar="-1" Cut="0.0000000000000000e+00" cType="1" res="-9.9000000000000000e+01" rms="0.0000000000000000e+00" purity="4.4123765826225281e-01" nType="-1"/>\n      </Node>\n    </BinaryTree>\n    <BinaryTree type="DecisionTree" boostWeight="6.1256888004740204e-02" itree="42">\n      <Node pos="s" depth="0" NCoef="0" IVar="13" Cut="-9.0476191043853760e-01" cType="1" res="-9.9000000000000000e+01" rms="0.0000000000000000e+00" purity="4.8790845274925232e-01" nType="0">\n        <Node pos="l" depth="1" NCoef="0" IVar="18" Cut="7.7644062042236328e-01" cType="0" res="-9.9000000000000000e+01" rms="0.0000000000000000e+00" purity="4.9906501173973083e-01" nType="0">\n          <Node pos="l" depth="2" NCoef="0" IVar="-1" Cut="-9.8672837018966675e-01" cType="0" res="-9.9000000000000000e+01" rms="0.0000000000000000e+00" purity="5.2740794420242310e-01" nType="1"/>\n          <Node pos="r" depth="2" NCoef="0" IVar="8" Cut="-7.0421731472015381e-01" cType="0" res="-9.9000000000000000e+01" rms="0.0000000000000000e+00" purity="4.7984001040458679e-01" nType="0">\n            <Node pos="l" depth="3" NCoef="0" IVar="-1" Cut="0.0000000000000000e+00" cType="1" res="-9.9000000000000000e+01" rms="0.0000000000000000e+00" purity="5.0257384777069092e-01" nType="1"/>\n            <Node pos="r" depth="3" NCoef="0" IVar="-1" Cut="0.0000000000000000e+00" cType="1" res="-9.9000000000000000e+01" rms="0.0000000000000000e+00" purity="4.4548526406288147e-01" nType="-1"/>\n          </Node>\n        </Node>\n        <Node pos="r" depth="1" NCoef="0" IVar="7" Cut="-4.5864659547805786e-01" cType="1" res="-9.9000000000000000e+01" rms="0.0000000000000000e+00" purity="4.6907612681388855e-01" nType="0">\n          <Node pos="l" depth="2" NCoef="0" IVar="10" Cut="-9.0476191043853760e-01" cType="0" res="-9.9000000000000000e+01" rms="0.0000000000000000e+00" purity="4.9057143926620483e-01" nType="0">\n            <Node pos="l" depth="3" NCoef="0" IVar="-1" Cut="0.0000000000000000e+00" cType="1" res="-9.9000000000000000e+01" rms="0.0000000000000000e+00" purity="5.1157563924789429e-01" nType="1"/>\n            <Node pos="r" depth="3" NCoef="0" IVar="-1" Cut="0.0000000000000000e+00" cType="1" res="-9.9000000000000000e+01" rms="0.0000000000000000e+00" purity="4.5653823018074036e-01" nType="-1"/>\n          </Node>\n          <Node pos="r" depth="2" NCoef="0" IVar="-1" Cut="-9.1165101528167725e-01" cType="1" res="-9.9000000000000000e+01" rms="0.0000000000000000e+00" purity="4.3027770519256592e-01" nType="-1"/>\n        </Node>\n      </Node>\n    </BinaryTree>\n    <BinaryTree type="DecisionTree" boostWeight="4.3406998078869205e-02" itree="43">\n      <Node pos="s" depth="0" NCoef="0" IVar="12" Cut="-9.0476191043853760e-01" cType="1" res="-9.9000000000000000e+01" rms="0.0000000000000000e+00" purity="4.8398968577384949e-01" nType="0">\n        <Node pos="l" depth="1" NCoef="0" IVar="16" Cut="7.6425504684448242e-01" cType="1" res="-9.9000000000000000e+01" rms="0.0000000000000000e+00" purity="5.1297050714492798e-01" nType="0">\n          <Node pos="l" depth="2" NCoef="0" IVar="-1" Cut="0.0000000000000000e+00" cType="1" res="-9.9000000000000000e+01" rms="0.0000000000000000e+00" purity="5.5675804615020752e-01" nType="1"/>\n          <Node pos="r" depth="2" NCoef="0" IVar="-1" Cut="0.0000000000000000e+00" cType="1" res="-9.9000000000000000e+01" rms="0.0000000000000000e+00" purity="4.8811879754066467e-01" nType="-1"/>\n        </Node>\n        <Node pos="r" depth="1" NCoef="0" IVar="-1" Cut="7.4168831110000610e-01" cType="0" res="-9.9000000000000000e+01" rms="0.0000000000000000e+00" purity="4.7934269905090332e-01" nType="-1"/>\n      </Node>\n    </BinaryTree>\n    <BinaryTree type="DecisionTree" boostWeight="3.7899713097503104e-02" itree="44">\n      <Node pos="s" depth="0" NCoef="0" IVar="20" Cut="-9.0476191043853760e-01" cType="1" res="-9.9000000000000000e+01" rms="0.0000000000000000e+00" purity="4.9374815821647644e-01" nType="0">\n        <Node pos="l" depth="1" NCoef="0" IVar="15" Cut="7.0702260732650757e-01" cType="0" res="-9.9000000000000000e+01" rms="0.0000000000000000e+00" purity="4.9641627073287964e-01" nType="0">\n          <Node pos="l" depth="2" NCoef="0" IVar="17" Cut="7.6248943805694580e-01" cType="1" res="-9.9000000000000000e+01" rms="0.0000000000000000e+00" purity="4.9921312928199768e-01" nType="0">\n            <Node pos="l" depth="3" NCoef="0" IVar="-1" Cut="0.0000000000000000e+00" cType="1" res="-9.9000000000000000e+01" rms="0.0000000000000000e+00" purity="5.0865697860717773e-01" nType="1"/>\n            <Node pos="r" depth="3" NCoef="0" IVar="-1" Cut="0.0000000000000000e+00" cType="1" res="-9.9000000000000000e+01" rms="0.0000000000000000e+00" purity="4.4789993762969971e-01" nType="-1"/>\n          </Node>\n          <Node pos="r" depth="2" NCoef="0" IVar="-1" Cut="0.0000000000000000e+00" cType="1" res="-9.9000000000000000e+01" rms="0.0000000000000000e+00" purity="4.5735007524490356e-01" nType="-1"/>\n        </Node>\n        <Node pos="r" depth="1" NCoef="0" IVar="-1" Cut="0.0000000000000000e+00" cType="1" res="-9.9000000000000000e+01" rms="0.0000000000000000e+00" purity="4.5836573839187622e-01" nType="-1"/>\n      </Node>\n    </BinaryTree>\n    <BinaryTree type="DecisionTree" boostWeight="4.2859971060328191e-02" itree="45">\n      <Node pos="s" depth="0" NCoef="0" IVar="12" Cut="-9.0476191043853760e-01" cType="1" res="-9.9000000000000000e+01" rms="0.0000000000000000e+00" purity="4.8932808637619019e-01" nType="0">\n        <Node pos="l" depth="1" NCoef="0" IVar="16" Cut="7.6425504684448242e-01" cType="1" res="-9.9000000000000000e+01" rms="0.0000000000000000e+00" purity="5.1285231113433838e-01" nType="0">\n          <Node pos="l" depth="2" NCoef="0" IVar="-1" Cut="0.0000000000000000e+00" cType="1" res="-9.9000000000000000e+01" rms="0.0000000000000000e+00" purity="5.5122756958007812e-01" nType="1"/>\n          <Node pos="r" depth="2" NCoef="0" IVar="-1" Cut="0.0000000000000000e+00" cType="1" res="-9.9000000000000000e+01" rms="0.0000000000000000e+00" purity="4.9105381965637207e-01" nType="-1"/>\n        </Node>\n        <Node pos="r" depth="1" NCoef="0" IVar="18" Cut="7.4168831110000610e-01" cType="0" res="-9.9000000000000000e+01" rms="0.0000000000000000e+00" purity="4.8555067181587219e-01" nType="0">\n          <Node pos="l" depth="2" NCoef="0" IVar="18" Cut="7.8063845634460449e-01" cType="0" res="-9.9000000000000000e+01" rms="0.0000000000000000e+00" purity="4.9202013015747070e-01" nType="0">\n            <Node pos="l" depth="3" NCoef="0" IVar="-1" Cut="0.0000000000000000e+00" cType="1" res="-9.9000000000000000e+01" rms="0.0000000000000000e+00" purity="5.0667208433151245e-01" nType="1"/>\n            <Node pos="r" depth="3" NCoef="0" IVar="-1" Cut="0.0000000000000000e+00" cType="1" res="-9.9000000000000000e+01" rms="0.0000000000000000e+00" purity="4.7627148032188416e-01" nType="-1"/>\n          </Node>\n          <Node pos="r" depth="2" NCoef="0" IVar="-1" Cut="0.0000000000000000e+00" cType="1" res="-9.9000000000000000e+01" rms="0.0000000000000000e+00" purity="3.8082548975944519e-01" nType="-1"/>\n        </Node>\n      </Node>\n    </BinaryTree>\n    <BinaryTree type="DecisionTree" boostWeight="4.8305137079304283e-02" itree="46">\n      <Node pos="s" depth="0" NCoef="0" IVar="24" Cut="-9.0476191043853760e-01" cType="1" res="-9.9000000000000000e+01" rms="0.0000000000000000e+00" purity="4.8995062708854675e-01" nType="0">\n        <Node pos="l" depth="1" NCoef="0" IVar="9" Cut="7.3260408826172352e-03" cType="1" res="-9.9000000000000000e+01" rms="0.0000000000000000e+00" purity="5.1156234741210938e-01" nType="0">\n          <Node pos="l" depth="2" NCoef="0" IVar="-1" Cut="0.0000000000000000e+00" cType="1" res="-9.9000000000000000e+01" rms="0.0000000000000000e+00" purity="5.5113571882247925e-01" nType="1"/>\n          <Node pos="r" depth="2" NCoef="0" IVar="7" Cut="-5.4887217283248901e-01" cType="0" res="-9.9000000000000000e+01" rms="0.0000000000000000e+00" purity="4.8362374305725098e-01" nType="0">\n            <Node pos="l" depth="3" NCoef="0" IVar="-1" Cut="0.0000000000000000e+00" cType="1" res="-9.9000000000000000e+01" rms="0.0000000000000000e+00" purity="5.3059101104736328e-01" nType="1"/>\n            <Node pos="r" depth="3" NCoef="0" IVar="-1" Cut="0.0000000000000000e+00" cType="1" res="-9.9000000000000000e+01" rms="0.0000000000000000e+00" purity="4.2941609025001526e-01" nType="-1"/>\n          </Node>\n        </Node>\n        <Node pos="r" depth="1" NCoef="0" IVar="15" Cut="7.1428573131561279e-01" cType="0" res="-9.9000000000000000e+01" rms="0.0000000000000000e+00" purity="4.8478361964225769e-01" nType="0">\n          <Node pos="l" depth="2" NCoef="0" IVar="17" Cut="7.5791722536087036e-01" cType="1" res="-9.9000000000000000e+01" rms="0.0000000000000000e+00" purity="4.9049723148345947e-01" nType="0">\n            <Node pos="l" depth="3" NCoef="0" IVar="-1" Cut="0.0000000000000000e+00" cType="1" res="-9.9000000000000000e+01" rms="0.0000000000000000e+00" purity="5.0186604261398315e-01" nType="1"/>\n            <Node pos="r" depth="3" NCoef="0" IVar="-1" Cut="0.0000000000000000e+00" cType="1" res="-9.9000000000000000e+01" rms="0.0000000000000000e+00" purity="4.4914126396179199e-01" nType="-1"/>\n          </Node>\n          <Node pos="r" depth="2" NCoef="0" IVar="-1" Cut="0.0000000000000000e+00" cType="1" res="-9.9000000000000000e+01" rms="0.0000000000000000e+00" purity="4.0165796875953674e-01" nType="-1"/>\n        </Node>\n      </Node>\n    </BinaryTree>\n    <BinaryTree type="DecisionTree" boostWeight="4.7124489464157496e-02" itree="47">\n      <Node pos="s" depth="0" NCoef="0" IVar="12" Cut="-9.0476191043853760e-01" cType="1" res="-9.9000000000000000e+01" rms="0.0000000000000000e+00" purity="4.8431161046028137e-01" nType="0">\n        <Node pos="l" depth="1" NCoef="0" IVar="1" Cut="-9.9356311559677124e-01" cType="0" res="-9.9000000000000000e+01" rms="0.0000000000000000e+00" purity="5.1373112201690674e-01" nType="0">\n          <Node pos="l" depth="2" NCoef="0" IVar="-1" Cut="0.0000000000000000e+00" cType="1" res="-9.9000000000000000e+01" rms="0.0000000000000000e+00" purity="5.3412342071533203e-01" nType="1"/>\n          <Node pos="r" depth="2" NCoef="0" IVar="-1" Cut="0.0000000000000000e+00" cType="1" res="-9.9000000000000000e+01" rms="0.0000000000000000e+00" purity="4.8609164357185364e-01" nType="-1"/>\n        </Node>\n        <Node pos="r" depth="1" NCoef="0" IVar="17" Cut="7.0317405462265015e-01" cType="0" res="-9.9000000000000000e+01" rms="0.0000000000000000e+00" purity="4.7959750890731812e-01" nType="0">\n          <Node pos="l" depth="2" NCoef="0" IVar="17" Cut="7.4227708578109741e-01" cType="1" res="-9.9000000000000000e+01" rms="0.0000000000000000e+00" purity="4.8565295338630676e-01" nType="0">\n            <Node pos="l" depth="3" NCoef="0" IVar="-1" Cut="0.0000000000000000e+00" cType="1" res="-9.9000000000000000e+01" rms="0.0000000000000000e+00" purity="5.0256294012069702e-01" nType="1"/>\n            <Node pos="r" depth="3" NCoef="0" IVar="-1" Cut="0.0000000000000000e+00" cType="1" res="-9.9000000000000000e+01" rms="0.0000000000000000e+00" purity="4.6034514904022217e-01" nType="-1"/>\n          </Node>\n          <Node pos="r" depth="2" NCoef="0" IVar="-1" Cut="0.0000000000000000e+00" cType="1" res="-9.9000000000000000e+01" rms="0.0000000000000000e+00" purity="4.1129091382026672e-01" nType="-1"/>\n        </Node>\n      </Node>\n    </BinaryTree>\n    <BinaryTree type="DecisionTree" boostWeight="4.6138422805535345e-02" itree="48">\n      <Node pos="s" depth="0" NCoef="0" IVar="19" Cut="8.9935195446014404e-01" cType="0" res="-9.9000000000000000e+01" rms="0.0000000000000000e+00" purity="4.8301905393600464e-01" nType="0">\n        <Node pos="l" depth="1" NCoef="0" IVar="-1" Cut="0.0000000000000000e+00" cType="1" res="-9.9000000000000000e+01" rms="0.0000000000000000e+00" purity="5.1769983768463135e-01" nType="1"/>\n        <Node pos="r" depth="1" NCoef="0" IVar="-1" Cut="-9.6967238187789917e-01" cType="1" res="-9.9000000000000000e+01" rms="0.0000000000000000e+00" purity="4.7583886981010437e-01" nType="-1"/>\n      </Node>\n    </BinaryTree>\n    <BinaryTree type="DecisionTree" boostWeight="3.1835138097871453e-02" itree="49">\n      <Node pos="s" depth="0" NCoef="0" IVar="12" Cut="-9.0476191043853760e-01" cType="1" res="-9.9000000000000000e+01" rms="0.0000000000000000e+00" purity="4.9058535695075989e-01" nType="0">\n        <Node pos="l" depth="1" NCoef="0" IVar="-1" Cut="7.6425504684448242e-01" cType="1" res="-9.9000000000000000e+01" rms="0.0000000000000000e+00" purity="5.2348786592483521e-01" nType="1"/>\n        <Node pos="r" depth="1" NCoef="0" IVar="-1" Cut="7.2546333074569702e-01" cType="0" res="-9.9000000000000000e+01" rms="0.0000000000000000e+00" purity="4.8530384898185730e-01" nType="-1"/>\n      </Node>\n    </BinaryTree>\n  </Weights>\n</MethodSetup>\n'
p82
sb.