ccopy_reg
_reconstructor
p0
(crep.estimators.tmva
TMVAClassifier
p1
c__builtin__
object
p2
Ntp3
Rp4
(dp5
S'classes_'
p6
cnumpy.core.multiarray
_reconstruct
p7
(cnumpy
ndarray
p8
(I0
tp9
S'b'
p10
tp11
Rp12
(I1
(I2
tp13
cnumpy
dtype
p14
(S'i4'
p15
I0
I1
tp16
Rp17
(I3
S'<'
p18
NNNI-1
I-1
I0
tp19
bI00
S'\x00\x00\x00\x00\x01\x00\x00\x00'
p20
tp21
bsS'features'
p22
(lp23
S'Feature_0'
p24
aS'Feature_1'
p25
aS'Feature_2'
p26
aS'Feature_3'
p27
aS'Feature_4'
p28
aS'Feature_5'
p29
aS'Feature_6'
p30
aS'Feature_7'
p31
aS'Feature_8'
p32
aS'Feature_9'
p33
aS'Feature_10'
p34
aS'Feature_11'
p35
aS'Feature_12'
p36
aS'Feature_13'
p37
aS'Feature_14'
p38
aS'Feature_15'
p39
aS'Feature_16'
p40
aS'Feature_17'
p41
aS'Feature_18'
p42
aS'Feature_19'
p43
aS'Feature_20'
p44
aS'Feature_21'
p45
aS'Feature_22'
p46
aS'Feature_23'
p47
aS'Feature_24'
p48
aS'Feature_25'
p49
aS'Feature_26'
p50
aS'Feature_27'
p51
aS'Feature_28'
p52
aS'Feature_29'
p53
aS'Feature_30'
p54
aS'Feature_31'
p55
asS'n_classes_'
p56
I2
sS'sigmoid_function'
p57
S'bdt'
p58
sS'_method_name'
p59
S'REP_Estimator'
p60
sS'method_parameters'
p61
(dp62
S'VarTransform'
p63
S'Norm'
p64
sS'PruningValFraction'
p65
F0.3
sS'NTrees'
p66
I50
sS'PruneStrength'
p67
I-1
sS'H'
p68
S'false'
p69
sS'PruneMethod'
p70
S'CostComplexity'
p71
sS'MaxDepth'
p72
I3
sS'V'
p73
S'true'
p74
sS'BoostType'
p75
S'AdaBoost'
p76
ssS'factory_options'
p77
S'V:!Silent:!Color:!DrawProgressBar:AnalysisType=Classification'
p78
sS'method'
p79
S'kBDT'
p80
sS'formula_xml'
p81
S'<?xml version="1.0"?>\n<MethodSetup Method="BDT::REP_Estimator">\n  <GeneralInfo>\n    <Info name="TMVA Release" value="4.2.0 [262656]"/>\n    <Info name="ROOT Release" value="5.34/32 [336416]"/>\n    <Info name="Creator" value="root"/>\n    <Info name="Date" value="Thu Feb 25 16:03:54 2016"/>\n    <Info name="Host" value="Linux localhost.localdomain 2.6.32-431.1.2.el6.x86_64 #1 SMP Thu Dec 12 13:59:19 CST 2013 x86_64 x86_64 x86_64 GNU/Linux"/>\n    <Info name="Dir" value="/notebooks/PID/sergey_korolev/tmpIjGPlI"/>\n    <Info name="Training events" value="120000"/>\n    <Info name="TrainingTime" value="1.08734460e+01"/>\n    <Info name="AnalysisType" value="Classification"/>\n  </GeneralInfo>\n  <Options>\n    <Option name="V" modified="Yes">True</Option>\n    <Option name="VerbosityLevel" modified="No">Verbose</Option>\n    <Option name="VarTransform" modified="Yes">Norm</Option>\n    <Option name="H" modified="Yes">False</Option>\n    <Option name="CreateMVAPdfs" modified="No">False</Option>\n    <Option name="IgnoreNegWeightsInTraining" modified="No">False</Option>\n    <Option name="NTrees" modified="Yes">50</Option>\n    <Option name="MaxDepth" modified="Yes">3</Option>\n    <Option name="MinNodeSize" modified="No">5%</Option>\n    <Option name="nCuts" modified="No">20</Option>\n    <Option name="BoostType" modified="Yes">AdaBoost</Option>\n    <Option name="AdaBoostR2Loss" modified="No">quadratic</Option>\n    <Option name="UseBaggedBoost" modified="No">False</Option>\n    <Option name="Shrinkage" modified="No">1.000000e+00</Option>\n    <Option name="AdaBoostBeta" modified="No">5.000000e-01</Option>\n    <Option name="UseRandomisedTrees" modified="No">False</Option>\n    <Option name="UseNvars" modified="No">6</Option>\n    <Option name="UsePoissonNvars" modified="No">True</Option>\n    <Option name="BaggedSampleFraction" modified="No">6.000000e-01</Option>\n    <Option name="UseYesNoLeaf" modified="No">True</Option>\n    <Option name="NegWeightTreatment" modified="No">inverseboostnegweights</Option>\n    <Option name="Css" modified="No">1.000000e+00</Option>\n    <Option name="Cts_sb" modified="No">1.000000e+00</Option>\n    <Option name="Ctb_ss" modified="No">1.000000e+00</Option>\n    <Option name="Cbb" modified="No">1.000000e+00</Option>\n    <Option name="NodePurityLimit" modified="No">5.000000e-01</Option>\n    <Option name="SeparationType" modified="No">giniindex</Option>\n    <Option name="DoBoostMonitor" modified="No">False</Option>\n    <Option name="UseFisherCuts" modified="No">False</Option>\n    <Option name="MinLinCorrForFisher" modified="No">8.000000e-01</Option>\n    <Option name="UseExclusiveVars" modified="No">False</Option>\n    <Option name="DoPreselection" modified="No">False</Option>\n    <Option name="SigToBkgFraction" modified="No">1.000000e+00</Option>\n    <Option name="PruneMethod" modified="Yes">costcomplexity</Option>\n    <Option name="PruneStrength" modified="Yes">-1.000000e+00</Option>\n    <Option name="PruningValFraction" modified="Yes">3.000000e-01</Option>\n    <Option name="nEventsMin" modified="No">0</Option>\n    <Option name="UseBaggedGrad" modified="No">False</Option>\n    <Option name="GradBaggingFraction" modified="No">6.000000e-01</Option>\n    <Option name="UseNTrainEvents" modified="No">0</Option>\n    <Option name="NNodesMax" modified="No">0</Option>\n  </Options>\n  <Variables NVar="32">\n    <Variable VarIndex="0" Expression="Feature_0" Label="Feature_0" Title="Feature_0" Unit="" Internal="Feature_0" Type="F" Min="1.15967004e+03" Max="1.13558638e+06"/>\n    <Variable VarIndex="1" Expression="Feature_1" Label="Feature_1" Title="Feature_1" Unit="" Internal="Feature_1" Type="F" Min="6.90499830e+00" Max="6.83289922e+04"/>\n    <Variable VarIndex="2" Expression="Feature_2" Label="Feature_2" Title="Feature_2" Unit="" Internal="Feature_2" Type="F" Min="1.24249414e-01" Max="3.99916315e+00"/>\n    <Variable VarIndex="3" Expression="Feature_3" Label="Feature_3" Title="Feature_3" Unit="" Internal="Feature_3" Type="F" Min="7.00000000e+00" Max="4.90000000e+01"/>\n    <Variable VarIndex="4" Expression="Feature_4" Label="Feature_4" Title="Feature_4" Unit="" Internal="Feature_4" Type="F" Min="1.54159404e-03" Max="3.99982750e-01"/>\n    <Variable VarIndex="5" Expression="Feature_5" Label="Feature_5" Title="Feature_5" Unit="" Internal="Feature_5" Type="F" Min="9.10696853e-03" Max="1.20970528e+02"/>\n    <Variable VarIndex="6" Expression="Feature_6" Label="Feature_6" Title="Feature_6" Unit="" Internal="Feature_6" Type="F" Min="1.97511457e-04" Max="9.81467972e+01"/>\n    <Variable VarIndex="7" Expression="Feature_7" Label="Feature_7" Title="Feature_7" Unit="" Internal="Feature_7" Type="F" Min="1.00000000e+00" Max="2.00000000e+01"/>\n    <Variable VarIndex="8" Expression="Feature_8" Label="Feature_8" Title="Feature_8" Unit="" Internal="Feature_8" Type="F" Min="1.41289094e-02" Max="9.80159302e+01"/>\n    <Variable VarIndex="9" Expression="Feature_9" Label="Feature_9" Title="Feature_9" Unit="" Internal="Feature_9" Type="F" Min="1.00000000e+00" Max="2.70000000e+01"/>\n    <Variable VarIndex="10" Expression="Feature_10" Label="Feature_10" Title="Feature_10" Unit="" Internal="Feature_10" Type="F" Min="0.00000000e+00" Max="1.00000000e+00"/>\n    <Variable VarIndex="11" Expression="Feature_11" Label="Feature_11" Title="Feature_11" Unit="" Internal="Feature_11" Type="F" Min="0.00000000e+00" Max="1.00000000e+00"/>\n    <Variable VarIndex="12" Expression="Feature_12" Label="Feature_12" Title="Feature_12" Unit="" Internal="Feature_12" Type="F" Min="0.00000000e+00" Max="1.00000000e+00"/>\n    <Variable VarIndex="13" Expression="Feature_13" Label="Feature_13" Title="Feature_13" Unit="" Internal="Feature_13" Type="F" Min="0.00000000e+00" Max="1.00000000e+00"/>\n    <Variable VarIndex="14" Expression="Feature_14" Label="Feature_14" Title="Feature_14" Unit="" Internal="Feature_14" Type="F" Min="-9.99000000e+02" Max="1.31175797e+02"/>\n    <Variable VarIndex="15" Expression="Feature_15" Label="Feature_15" Title="Feature_15" Unit="" Internal="Feature_15" Type="F" Min="-9.99000000e+02" Max="1.24875801e+02"/>\n    <Variable VarIndex="16" Expression="Feature_16" Label="Feature_16" Title="Feature_16" Unit="" Internal="Feature_16" Type="F" Min="-9.99000000e+02" Max="1.58692993e+02"/>\n    <Variable VarIndex="17" Expression="Feature_17" Label="Feature_17" Title="Feature_17" Unit="" Internal="Feature_17" Type="F" Min="-9.99000000e+02" Max="1.29497803e+02"/>\n    <Variable VarIndex="18" Expression="Feature_18" Label="Feature_18" Title="Feature_18" Unit="" Internal="Feature_18" Type="F" Min="-9.99000000e+02" Max="7.35431976e+01"/>\n    <Variable VarIndex="19" Expression="Feature_19" Label="Feature_19" Title="Feature_19" Unit="" Internal="Feature_19" Type="F" Min="-9.99000000e+02" Max="9.60000046e-03"/>\n    <Variable VarIndex="20" Expression="Feature_20" Label="Feature_20" Title="Feature_20" Unit="" Internal="Feature_20" Type="F" Min="-9.99000000e+02" Max="0.00000000e+00"/>\n    <Variable VarIndex="21" Expression="Feature_21" Label="Feature_21" Title="Feature_21" Unit="" Internal="Feature_21" Type="F" Min="0.00000000e+00" Max="1.00000000e+00"/>\n    <Variable VarIndex="22" Expression="Feature_22" Label="Feature_22" Title="Feature_22" Unit="" Internal="Feature_22" Type="F" Min="0.00000000e+00" Max="3.30000000e+01"/>\n    <Variable VarIndex="23" Expression="Feature_23" Label="Feature_23" Title="Feature_23" Unit="" Internal="Feature_23" Type="F" Min="0.00000000e+00" Max="1.00000000e+00"/>\n    <Variable VarIndex="24" Expression="Feature_24" Label="Feature_24" Title="Feature_24" Unit="" Internal="Feature_24" Type="F" Min="0.00000000e+00" Max="1.00000000e+00"/>\n    <Variable VarIndex="25" Expression="Feature_25" Label="Feature_25" Title="Feature_25" Unit="" Internal="Feature_25" Type="F" Min="-9.99000000e+02" Max="4.05479050e+00"/>\n    <Variable VarIndex="26" Expression="Feature_26" Label="Feature_26" Title="Feature_26" Unit="" Internal="Feature_26" Type="F" Min="-9.99000000e+02" Max="2.15297604e+00"/>\n    <Variable VarIndex="27" Expression="Feature_27" Label="Feature_27" Title="Feature_27" Unit="" Internal="Feature_27" Type="F" Min="-9.99000000e+02" Max="2.72250462e+00"/>\n    <Variable VarIndex="28" Expression="Feature_28" Label="Feature_28" Title="Feature_28" Unit="" Internal="Feature_28" Type="F" Min="-9.99000000e+02" Max="2.87338901e+00"/>\n    <Variable VarIndex="29" Expression="Feature_29" Label="Feature_29" Title="Feature_29" Unit="" Internal="Feature_29" Type="F" Min="-9.99000000e+02" Max="3.39547467e+00"/>\n    <Variable VarIndex="30" Expression="Feature_30" Label="Feature_30" Title="Feature_30" Unit="" Internal="Feature_30" Type="F" Min="0.00000000e+00" Max="1.00000000e+00"/>\n    <Variable VarIndex="31" Expression="Feature_31" Label="Feature_31" Title="Feature_31" Unit="" Internal="Feature_31" Type="F" Min="-9.99000000e+02" Max="4.79148388e+00"/>\n  </Variables>\n  <Spectators NSpec="0"/>\n  <Classes NClass="2">\n    <Class Name="Background" Index="0"/>\n    <Class Name="Signal" Index="1"/>\n  </Classes>\n  <Transformations NTransformations="1">\n    <Transform Name="Normalize">\n      <Selection>\n        <Input NInputs="32">\n          <Input Type="Variable" Label="Feature_0" Expression="Feature_0"/>\n          <Input Type="Variable" Label="Feature_1" Expression="Feature_1"/>\n          <Input Type="Variable" Label="Feature_2" Expression="Feature_2"/>\n          <Input Type="Variable" Label="Feature_3" Expression="Feature_3"/>\n          <Input Type="Variable" Label="Feature_4" Expression="Feature_4"/>\n          <Input Type="Variable" Label="Feature_5" Expression="Feature_5"/>\n          <Input Type="Variable" Label="Feature_6" Expression="Feature_6"/>\n          <Input Type="Variable" Label="Feature_7" Expression="Feature_7"/>\n          <Input Type="Variable" Label="Feature_8" Expression="Feature_8"/>\n          <Input Type="Variable" Label="Feature_9" Expression="Feature_9"/>\n          <Input Type="Variable" Label="Feature_10" Expression="Feature_10"/>\n          <Input Type="Variable" Label="Feature_11" Expression="Feature_11"/>\n          <Input Type="Variable" Label="Feature_12" Expression="Feature_12"/>\n          <Input Type="Variable" Label="Feature_13" Expression="Feature_13"/>\n          <Input Type="Variable" Label="Feature_14" Expression="Feature_14"/>\n          <Input Type="Variable" Label="Feature_15" Expression="Feature_15"/>\n          <Input Type="Variable" Label="Feature_16" Expression="Feature_16"/>\n          <Input Type="Variable" Label="Feature_17" Expression="Feature_17"/>\n          <Input Type="Variable" Label="Feature_18" Expression="Feature_18"/>\n          <Input Type="Variable" Label="Feature_19" Expression="Feature_19"/>\n          <Input Type="Variable" Label="Feature_20" Expression="Feature_20"/>\n          <Input Type="Variable" Label="Feature_21" Expression="Feature_21"/>\n          <Input Type="Variable" Label="Feature_22" Expression="Feature_22"/>\n          <Input Type="Variable" Label="Feature_23" Expression="Feature_23"/>\n          <Input Type="Variable" Label="Feature_24" Expression="Feature_24"/>\n          <Input Type="Variable" Label="Feature_25" Expression="Feature_25"/>\n          <Input Type="Variable" Label="Feature_26" Expression="Feature_26"/>\n          <Input Type="Variable" Label="Feature_27" Expression="Feature_27"/>\n          <Input Type="Variable" Label="Feature_28" Expression="Feature_28"/>\n          <Input Type="Variable" Label="Feature_29" Expression="Feature_29"/>\n          <Input Type="Variable" Label="Feature_30" Expression="Feature_30"/>\n          <Input Type="Variable" Label="Feature_31" Expression="Feature_31"/>\n        </Input>\n        <Output NOutputs="32">\n          <Output Type="Variable" Label="Feature_0" Expression="Feature_0"/>\n          <Output Type="Variable" Label="Feature_1" Expression="Feature_1"/>\n          <Output Type="Variable" Label="Feature_2" Expression="Feature_2"/>\n          <Output Type="Variable" Label="Feature_3" Expression="Feature_3"/>\n          <Output Type="Variable" Label="Feature_4" Expression="Feature_4"/>\n          <Output Type="Variable" Label="Feature_5" Expression="Feature_5"/>\n          <Output Type="Variable" Label="Feature_6" Expression="Feature_6"/>\n          <Output Type="Variable" Label="Feature_7" Expression="Feature_7"/>\n          <Output Type="Variable" Label="Feature_8" Expression="Feature_8"/>\n          <Output Type="Variable" Label="Feature_9" Expression="Feature_9"/>\n          <Output Type="Variable" Label="Feature_10" Expression="Feature_10"/>\n          <Output Type="Variable" Label="Feature_11" Expression="Feature_11"/>\n          <Output Type="Variable" Label="Feature_12" Expression="Feature_12"/>\n          <Output Type="Variable" Label="Feature_13" Expression="Feature_13"/>\n          <Output Type="Variable" Label="Feature_14" Expression="Feature_14"/>\n          <Output Type="Variable" Label="Feature_15" Expression="Feature_15"/>\n          <Output Type="Variable" Label="Feature_16" Expression="Feature_16"/>\n          <Output Type="Variable" Label="Feature_17" Expression="Feature_17"/>\n          <Output Type="Variable" Label="Feature_18" Expression="Feature_18"/>\n          <Output Type="Variable" Label="Feature_19" Expression="Feature_19"/>\n          <Output Type="Variable" Label="Feature_20" Expression="Feature_20"/>\n          <Output Type="Variable" Label="Feature_21" Expression="Feature_21"/>\n          <Output Type="Variable" Label="Feature_22" Expression="Feature_22"/>\n          <Output Type="Variable" Label="Feature_23" Expression="Feature_23"/>\n          <Output Type="Variable" Label="Feature_24" Expression="Feature_24"/>\n          <Output Type="Variable" Label="Feature_25" Expression="Feature_25"/>\n          <Output Type="Variable" Label="Feature_26" Expression="Feature_26"/>\n          <Output Type="Variable" Label="Feature_27" Expression="Feature_27"/>\n          <Output Type="Variable" Label="Feature_28" Expression="Feature_28"/>\n          <Output Type="Variable" Label="Feature_29" Expression="Feature_29"/>\n          <Output Type="Variable" Label="Feature_30" Expression="Feature_30"/>\n          <Output Type="Variable" Label="Feature_31" Expression="Feature_31"/>\n        </Output>\n      </Selection>\n      <Class ClassIndex="0">\n        <Ranges>\n          <Range Index="0" Min="1.1596700439453125e+03" Max="1.0630282500000000e+06"/>\n          <Range Index="1" Min="2.5342041015625000e+01" Max="1.8976062500000000e+04"/>\n          <Range Index="2" Min="1.2424941360950470e-01" Max="3.9977631568908691e+00"/>\n          <Range Index="3" Min="7.0000000000000000e+00" Max="4.9000000000000000e+01"/>\n          <Range Index="4" Min="1.5415940433740616e-03" Max="3.9969471096992493e-01"/>\n          <Range Index="5" Min="9.1069685295224190e-03" Max="1.1536591339111328e+02"/>\n          <Range Index="6" Min="8.2196702715009451e-04" Max="9.8146797180175781e+01"/>\n          <Range Index="7" Min="1.0000000000000000e+00" Max="2.0000000000000000e+01"/>\n          <Range Index="8" Min="1.9908614456653595e-02" Max="9.8015930175781250e+01"/>\n          <Range Index="9" Min="1.0000000000000000e+00" Max="2.7000000000000000e+01"/>\n          <Range Index="10" Min="0.0000000000000000e+00" Max="1.0000000000000000e+00"/>\n          <Range Index="11" Min="0.0000000000000000e+00" Max="1.0000000000000000e+00"/>\n          <Range Index="12" Min="0.0000000000000000e+00" Max="1.0000000000000000e+00"/>\n          <Range Index="13" Min="0.0000000000000000e+00" Max="1.0000000000000000e+00"/>\n          <Range Index="14" Min="-9.9900000000000000e+02" Max="1.3117579650878906e+02"/>\n          <Range Index="15" Min="-9.9900000000000000e+02" Max="1.2487580108642578e+02"/>\n          <Range Index="16" Min="-9.9900000000000000e+02" Max="1.5869299316406250e+02"/>\n          <Range Index="17" Min="-9.9900000000000000e+02" Max="1.2949780273437500e+02"/>\n          <Range Index="18" Min="-9.9900000000000000e+02" Max="7.3543197631835938e+01"/>\n          <Range Index="19" Min="-9.9900000000000000e+02" Max="9.4999996945261955e-03"/>\n          <Range Index="20" Min="-9.9900000000000000e+02" Max="0.0000000000000000e+00"/>\n          <Range Index="21" Min="0.0000000000000000e+00" Max="1.0000000000000000e+00"/>\n          <Range Index="22" Min="0.0000000000000000e+00" Max="3.3000000000000000e+01"/>\n          <Range Index="23" Min="0.0000000000000000e+00" Max="1.0000000000000000e+00"/>\n          <Range Index="24" Min="0.0000000000000000e+00" Max="1.0000000000000000e+00"/>\n          <Range Index="25" Min="-9.9900000000000000e+02" Max="4.0547904968261719e+00"/>\n          <Range Index="26" Min="-9.9900000000000000e+02" Max="2.1529760360717773e+00"/>\n          <Range Index="27" Min="-9.9900000000000000e+02" Max="2.7225046157836914e+00"/>\n          <Range Index="28" Min="-9.9900000000000000e+02" Max="2.8733890056610107e+00"/>\n          <Range Index="29" Min="-9.9900000000000000e+02" Max="3.3954746723175049e+00"/>\n          <Range Index="30" Min="0.0000000000000000e+00" Max="1.0000000000000000e+00"/>\n          <Range Index="31" Min="-9.9900000000000000e+02" Max="4.7914838790893555e+00"/>\n        </Ranges>\n      </Class>\n      <Class ClassIndex="1">\n        <Ranges>\n          <Range Index="0" Min="1.2209699707031250e+03" Max="1.1355863750000000e+06"/>\n          <Range Index="1" Min="6.9049983024597168e+00" Max="6.8328992187500000e+04"/>\n          <Range Index="2" Min="2.1479970216751099e-01" Max="3.9991631507873535e+00"/>\n          <Range Index="3" Min="7.0000000000000000e+00" Max="4.3000000000000000e+01"/>\n          <Range Index="4" Min="1.8568665254861116e-03" Max="3.9998275041580200e-01"/>\n          <Range Index="5" Min="7.0352032780647278e-02" Max="1.2097052764892578e+02"/>\n          <Range Index="6" Min="1.9751145737245679e-04" Max="8.1674484252929688e+01"/>\n          <Range Index="7" Min="1.0000000000000000e+00" Max="1.7000000000000000e+01"/>\n          <Range Index="8" Min="1.4128909446299076e-02" Max="8.9160659790039062e+01"/>\n          <Range Index="9" Min="1.0000000000000000e+00" Max="2.5000000000000000e+01"/>\n          <Range Index="10" Min="0.0000000000000000e+00" Max="1.0000000000000000e+00"/>\n          <Range Index="11" Min="0.0000000000000000e+00" Max="1.0000000000000000e+00"/>\n          <Range Index="12" Min="0.0000000000000000e+00" Max="1.0000000000000000e+00"/>\n          <Range Index="13" Min="0.0000000000000000e+00" Max="1.0000000000000000e+00"/>\n          <Range Index="14" Min="-9.9900000000000000e+02" Max="1.0919640350341797e+02"/>\n          <Range Index="15" Min="-9.9900000000000000e+02" Max="5.3233001708984375e+01"/>\n          <Range Index="16" Min="-9.9900000000000000e+02" Max="1.0009089660644531e+02"/>\n          <Range Index="17" Min="-9.9900000000000000e+02" Max="8.5176300048828125e+01"/>\n          <Range Index="18" Min="-9.9900000000000000e+02" Max="5.7046600341796875e+01"/>\n          <Range Index="19" Min="-9.9900000000000000e+02" Max="9.6000004559755325e-03"/>\n          <Range Index="20" Min="-9.9900000000000000e+02" Max="0.0000000000000000e+00"/>\n          <Range Index="21" Min="0.0000000000000000e+00" Max="1.0000000000000000e+00"/>\n          <Range Index="22" Min="0.0000000000000000e+00" Max="2.4000000000000000e+01"/>\n          <Range Index="23" Min="0.0000000000000000e+00" Max="1.0000000000000000e+00"/>\n          <Range Index="24" Min="0.0000000000000000e+00" Max="1.0000000000000000e+00"/>\n          <Range Index="25" Min="-9.9900000000000000e+02" Max="4.0547904968261719e+00"/>\n          <Range Index="26" Min="-9.9900000000000000e+02" Max="2.1529760360717773e+00"/>\n          <Range Index="27" Min="-9.9900000000000000e+02" Max="2.4863731861114502e+00"/>\n          <Range Index="28" Min="-9.9900000000000000e+02" Max="2.7663090229034424e+00"/>\n          <Range Index="29" Min="-9.9900000000000000e+02" Max="3.3954746723175049e+00"/>\n          <Range Index="30" Min="0.0000000000000000e+00" Max="1.0000000000000000e+00"/>\n          <Range Index="31" Min="-9.9900000000000000e+02" Max="4.4935369491577148e+00"/>\n        </Ranges>\n      </Class>\n      <Class ClassIndex="2">\n        <Ranges>\n          <Range Index="0" Min="1.1596700439453125e+03" Max="1.1355863750000000e+06"/>\n          <Range Index="1" Min="6.9049983024597168e+00" Max="6.8328992187500000e+04"/>\n          <Range Index="2" Min="1.2424941360950470e-01" Max="3.9991631507873535e+00"/>\n          <Range Index="3" Min="7.0000000000000000e+00" Max="4.9000000000000000e+01"/>\n          <Range Index="4" Min="1.5415940433740616e-03" Max="3.9998275041580200e-01"/>\n          <Range Index="5" Min="9.1069685295224190e-03" Max="1.2097052764892578e+02"/>\n          <Range Index="6" Min="1.9751145737245679e-04" Max="9.8146797180175781e+01"/>\n          <Range Index="7" Min="1.0000000000000000e+00" Max="2.0000000000000000e+01"/>\n          <Range Index="8" Min="1.4128909446299076e-02" Max="9.8015930175781250e+01"/>\n          <Range Index="9" Min="1.0000000000000000e+00" Max="2.7000000000000000e+01"/>\n          <Range Index="10" Min="0.0000000000000000e+00" Max="1.0000000000000000e+00"/>\n          <Range Index="11" Min="0.0000000000000000e+00" Max="1.0000000000000000e+00"/>\n          <Range Index="12" Min="0.0000000000000000e+00" Max="1.0000000000000000e+00"/>\n          <Range Index="13" Min="0.0000000000000000e+00" Max="1.0000000000000000e+00"/>\n          <Range Index="14" Min="-9.9900000000000000e+02" Max="1.3117579650878906e+02"/>\n          <Range Index="15" Min="-9.9900000000000000e+02" Max="1.2487580108642578e+02"/>\n          <Range Index="16" Min="-9.9900000000000000e+02" Max="1.5869299316406250e+02"/>\n          <Range Index="17" Min="-9.9900000000000000e+02" Max="1.2949780273437500e+02"/>\n          <Range Index="18" Min="-9.9900000000000000e+02" Max="7.3543197631835938e+01"/>\n          <Range Index="19" Min="-9.9900000000000000e+02" Max="9.6000004559755325e-03"/>\n          <Range Index="20" Min="-9.9900000000000000e+02" Max="0.0000000000000000e+00"/>\n          <Range Index="21" Min="0.0000000000000000e+00" Max="1.0000000000000000e+00"/>\n          <Range Index="22" Min="0.0000000000000000e+00" Max="3.3000000000000000e+01"/>\n          <Range Index="23" Min="0.0000000000000000e+00" Max="1.0000000000000000e+00"/>\n          <Range Index="24" Min="0.0000000000000000e+00" Max="1.0000000000000000e+00"/>\n          <Range Index="25" Min="-9.9900000000000000e+02" Max="4.0547904968261719e+00"/>\n          <Range Index="26" Min="-9.9900000000000000e+02" Max="2.1529760360717773e+00"/>\n          <Range Index="27" Min="-9.9900000000000000e+02" Max="2.7225046157836914e+00"/>\n          <Range Index="28" Min="-9.9900000000000000e+02" Max="2.8733890056610107e+00"/>\n          <Range Index="29" Min="-9.9900000000000000e+02" Max="3.3954746723175049e+00"/>\n          <Range Index="30" Min="0.0000000000000000e+00" Max="1.0000000000000000e+00"/>\n          <Range Index="31" Min="-9.9900000000000000e+02" Max="4.7914838790893555e+00"/>\n        </Ranges>\n      </Class>\n    </Transform>\n  </Transformations>\n  <MVAPdfs/>\n  <Weights NTrees="50" AnalysisType="0">\n    <BinaryTree type="DecisionTree" boostWeight="9.6200550268921825e-01" itree="0">\n      <Node pos="s" depth="0" NCoef="0" IVar="4" Cut="-8.0952382087707520e-01" cType="0" res="-9.9000000000000000e+01" rms="0.0000000000000000e+00" purity="5.0000000000000000e-01" nType="0">\n        <Node pos="l" depth="1" NCoef="0" IVar="-1" Cut="-5.5101543664932251e-01" cType="0" res="-9.9000000000000000e+01" rms="0.0000000000000000e+00" purity="8.5753375291824341e-01" nType="1"/>\n        <Node pos="r" depth="1" NCoef="0" IVar="-1" Cut="-9.3650996685028076e-01" cType="0" res="-9.9000000000000000e+01" rms="0.0000000000000000e+00" purity="1.1104066669940948e-01" nType="-1"/>\n      </Node>\n    </BinaryTree>\n    <BinaryTree type="DecisionTree" boostWeight="5.6426807733592366e-01" itree="1">\n      <Node pos="s" depth="0" NCoef="0" IVar="4" Cut="-5.2380955219268799e-01" cType="0" res="-9.9000000000000000e+01" rms="0.0000000000000000e+00" purity="4.8588970303535461e-01" nType="0">\n        <Node pos="l" depth="1" NCoef="0" IVar="-1" Cut="-1.6097033023834229e-01" cType="0" res="-9.9000000000000000e+01" rms="0.0000000000000000e+00" purity="8.2023012638092041e-01" nType="1"/>\n        <Node pos="r" depth="1" NCoef="0" IVar="-1" Cut="-9.5464962720870972e-01" cType="0" res="-9.9000000000000000e+01" rms="0.0000000000000000e+00" purity="2.8356161713600159e-01" nType="-1"/>\n      </Node>\n    </BinaryTree>\n    <BinaryTree type="DecisionTree" boostWeight="4.2380559608473090e-01" itree="2">\n      <Node pos="s" depth="0" NCoef="0" IVar="4" Cut="-9.0476191043853760e-01" cType="0" res="-9.9000000000000000e+01" rms="0.0000000000000000e+00" purity="5.2291774749755859e-01" nType="0">\n        <Node pos="l" depth="1" NCoef="0" IVar="-1" Cut="2.2733467631042004e-03" cType="0" res="-9.9000000000000000e+01" rms="0.0000000000000000e+00" purity="6.6888964176177979e-01" nType="1"/>\n        <Node pos="r" depth="1" NCoef="0" IVar="4" Cut="-9.8185956478118896e-01" cType="0" res="-9.9000000000000000e+01" rms="0.0000000000000000e+00" purity="2.5999009609222412e-01" nType="0">\n          <Node pos="l" depth="2" NCoef="0" IVar="14" Cut="7.5659054517745972e-01" cType="0" res="-9.9000000000000000e+01" rms="0.0000000000000000e+00" purity="4.2442807555198669e-01" nType="0">\n            <Node pos="l" depth="3" NCoef="0" IVar="-1" Cut="0.0000000000000000e+00" cType="1" res="-9.9000000000000000e+01" rms="0.0000000000000000e+00" purity="5.3587800264358521e-01" nType="1"/>\n            <Node pos="r" depth="3" NCoef="0" IVar="-1" Cut="0.0000000000000000e+00" cType="1" res="-9.9000000000000000e+01" rms="0.0000000000000000e+00" purity="3.2560500502586365e-01" nType="-1"/>\n          </Node>\n          <Node pos="r" depth="2" NCoef="0" IVar="-1" Cut="-9.8877048492431641e-01" cType="0" res="-9.9000000000000000e+01" rms="0.0000000000000000e+00" purity="1.0777464509010315e-01" nType="-1"/>\n        </Node>\n      </Node>\n    </BinaryTree>\n    <BinaryTree type="DecisionTree" boostWeight="2.9632907659449242e-01" itree="3">\n      <Node pos="s" depth="0" NCoef="0" IVar="4" Cut="-4.7619048506021500e-02" cType="0" res="-9.9000000000000000e+01" rms="0.0000000000000000e+00" purity="4.7405219078063965e-01" nType="0">\n        <Node pos="l" depth="1" NCoef="0" IVar="-1" Cut="0.0000000000000000e+00" cType="1" res="-9.9000000000000000e+01" rms="0.0000000000000000e+00" purity="7.6748901605606079e-01" nType="1"/>\n        <Node pos="r" depth="1" NCoef="0" IVar="4" Cut="-9.5467627048492432e-01" cType="0" res="-9.9000000000000000e+01" rms="0.0000000000000000e+00" purity="4.0080487728118896e-01" nType="0">\n          <Node pos="l" depth="2" NCoef="0" IVar="1" Cut="-9.7349250316619873e-01" cType="1" res="-9.9000000000000000e+01" rms="0.0000000000000000e+00" purity="4.8659914731979370e-01" nType="0">\n            <Node pos="l" depth="3" NCoef="0" IVar="-1" Cut="0.0000000000000000e+00" cType="1" res="-9.9000000000000000e+01" rms="0.0000000000000000e+00" purity="5.1190918684005737e-01" nType="1"/>\n            <Node pos="r" depth="3" NCoef="0" IVar="-1" Cut="0.0000000000000000e+00" cType="1" res="-9.9000000000000000e+01" rms="0.0000000000000000e+00" purity="3.3569830656051636e-01" nType="-1"/>\n          </Node>\n          <Node pos="r" depth="2" NCoef="0" IVar="-1" Cut="-9.8489338159561157e-01" cType="0" res="-9.9000000000000000e+01" rms="0.0000000000000000e+00" purity="2.1524266898632050e-01" nType="-1"/>\n        </Node>\n      </Node>\n    </BinaryTree>\n    <BinaryTree type="DecisionTree" boostWeight="2.8579034827681887e-01" itree="4">\n      <Node pos="s" depth="0" NCoef="0" IVar="4" Cut="-4.7619048506021500e-02" cType="0" res="-9.9000000000000000e+01" rms="0.0000000000000000e+00" purity="4.4704115390777588e-01" nType="0">\n        <Node pos="l" depth="1" NCoef="0" IVar="-1" Cut="0.0000000000000000e+00" cType="1" res="-9.9000000000000000e+01" rms="0.0000000000000000e+00" purity="7.1050906181335449e-01" nType="1"/>\n        <Node pos="r" depth="1" NCoef="0" IVar="4" Cut="-9.5467627048492432e-01" cType="0" res="-9.9000000000000000e+01" rms="0.0000000000000000e+00" purity="3.8436365127563477e-01" nType="0">\n          <Node pos="l" depth="2" NCoef="0" IVar="23" Cut="-9.0476191043853760e-01" cType="1" res="-9.9000000000000000e+01" rms="0.0000000000000000e+00" purity="4.3352052569389343e-01" nType="0">\n            <Node pos="l" depth="3" NCoef="0" IVar="-1" Cut="0.0000000000000000e+00" cType="1" res="-9.9000000000000000e+01" rms="0.0000000000000000e+00" purity="5.2092099189758301e-01" nType="1"/>\n            <Node pos="r" depth="3" NCoef="0" IVar="-1" Cut="0.0000000000000000e+00" cType="1" res="-9.9000000000000000e+01" rms="0.0000000000000000e+00" purity="4.0855711698532104e-01" nType="-1"/>\n          </Node>\n          <Node pos="r" depth="2" NCoef="0" IVar="-1" Cut="-9.8489338159561157e-01" cType="0" res="-9.9000000000000000e+01" rms="0.0000000000000000e+00" purity="2.6947665214538574e-01" nType="-1"/>\n        </Node>\n      </Node>\n    </BinaryTree>\n    <BinaryTree type="DecisionTree" boostWeight="1.9912979192433464e-01" itree="5">\n      <Node pos="s" depth="0" NCoef="0" IVar="4" Cut="1.4285714924335480e-01" cType="0" res="-9.9000000000000000e+01" rms="0.0000000000000000e+00" purity="4.7177672386169434e-01" nType="0">\n        <Node pos="l" depth="1" NCoef="0" IVar="-1" Cut="0.0000000000000000e+00" cType="1" res="-9.9000000000000000e+01" rms="0.0000000000000000e+00" purity="6.8781834840774536e-01" nType="1"/>\n        <Node pos="r" depth="1" NCoef="0" IVar="-1" Cut="-9.4558203220367432e-01" cType="0" res="-9.9000000000000000e+01" rms="0.0000000000000000e+00" purity="4.3567666411399841e-01" nType="-1"/>\n      </Node>\n    </BinaryTree>\n    <BinaryTree type="DecisionTree" boostWeight="2.1419034042027529e-01" itree="6">\n      <Node pos="s" depth="0" NCoef="0" IVar="4" Cut="-2.3809523880481720e-01" cType="0" res="-9.9000000000000000e+01" rms="0.0000000000000000e+00" purity="4.8572090268135071e-01" nType="0">\n        <Node pos="l" depth="1" NCoef="0" IVar="-1" Cut="3.5167217254638672e-01" cType="0" res="-9.9000000000000000e+01" rms="0.0000000000000000e+00" purity="6.1517935991287231e-01" nType="1"/>\n        <Node pos="r" depth="1" NCoef="0" IVar="12" Cut="-9.0476191043853760e-01" cType="1" res="-9.9000000000000000e+01" rms="0.0000000000000000e+00" purity="4.4410359859466553e-01" nType="0">\n          <Node pos="l" depth="2" NCoef="0" IVar="-1" Cut="0.0000000000000000e+00" cType="1" res="-9.9000000000000000e+01" rms="0.0000000000000000e+00" purity="6.1710494756698608e-01" nType="1"/>\n          <Node pos="r" depth="2" NCoef="0" IVar="14" Cut="7.5736904144287109e-01" cType="0" res="-9.9000000000000000e+01" rms="0.0000000000000000e+00" purity="4.2179366946220398e-01" nType="0">\n            <Node pos="l" depth="3" NCoef="0" IVar="-1" Cut="0.0000000000000000e+00" cType="1" res="-9.9000000000000000e+01" rms="0.0000000000000000e+00" purity="5.2263247966766357e-01" nType="1"/>\n            <Node pos="r" depth="3" NCoef="0" IVar="-1" Cut="0.0000000000000000e+00" cType="1" res="-9.9000000000000000e+01" rms="0.0000000000000000e+00" purity="3.2417953014373779e-01" nType="-1"/>\n          </Node>\n        </Node>\n      </Node>\n    </BinaryTree>\n    <BinaryTree type="DecisionTree" boostWeight="2.9744604972479943e-01" itree="7">\n      <Node pos="s" depth="0" NCoef="0" IVar="13" Cut="-9.0476191043853760e-01" cType="1" res="-9.9000000000000000e+01" rms="0.0000000000000000e+00" purity="4.6799361705780029e-01" nType="0">\n        <Node pos="l" depth="1" NCoef="0" IVar="1" Cut="-9.9412202835083008e-01" cType="1" res="-9.9000000000000000e+01" rms="0.0000000000000000e+00" purity="5.0992190837860107e-01" nType="0">\n          <Node pos="l" depth="2" NCoef="0" IVar="-1" Cut="-9.9608165025711060e-01" cType="1" res="-9.9000000000000000e+01" rms="0.0000000000000000e+00" purity="6.8519645929336548e-01" nType="1"/>\n          <Node pos="r" depth="2" NCoef="0" IVar="-1" Cut="7.1428573131561279e-01" cType="0" res="-9.9000000000000000e+01" rms="0.0000000000000000e+00" purity="3.8557645678520203e-01" nType="-1"/>\n        </Node>\n        <Node pos="r" depth="1" NCoef="0" IVar="-1" Cut="-4.7916173934936523e-01" cType="0" res="-9.9000000000000000e+01" rms="0.0000000000000000e+00" purity="3.5362622141838074e-01" nType="-1"/>\n      </Node>\n    </BinaryTree>\n    <BinaryTree type="DecisionTree" boostWeight="1.7103262918178377e-01" itree="8">\n      <Node pos="s" depth="0" NCoef="0" IVar="2" Cut="-4.8831200599670410e-01" cType="0" res="-9.9000000000000000e+01" rms="0.0000000000000000e+00" purity="4.9684306979179382e-01" nType="0">\n        <Node pos="l" depth="1" NCoef="0" IVar="4" Cut="3.3359524607658386e-01" cType="0" res="-9.9000000000000000e+01" rms="0.0000000000000000e+00" purity="5.4072433710098267e-01" nType="0">\n          <Node pos="l" depth="2" NCoef="0" IVar="-1" Cut="0.0000000000000000e+00" cType="1" res="-9.9000000000000000e+01" rms="0.0000000000000000e+00" purity="6.5190339088439941e-01" nType="1"/>\n          <Node pos="r" depth="2" NCoef="0" IVar="13" Cut="-9.0476191043853760e-01" cType="1" res="-9.9000000000000000e+01" rms="0.0000000000000000e+00" purity="5.2118015289306641e-01" nType="0">\n            <Node pos="l" depth="3" NCoef="0" IVar="-1" Cut="0.0000000000000000e+00" cType="1" res="-9.9000000000000000e+01" rms="0.0000000000000000e+00" purity="5.3626304864883423e-01" nType="1"/>\n            <Node pos="r" depth="3" NCoef="0" IVar="-1" Cut="0.0000000000000000e+00" cType="1" res="-9.9000000000000000e+01" rms="0.0000000000000000e+00" purity="4.8559254407882690e-01" nType="-1"/>\n          </Node>\n        </Node>\n        <Node pos="r" depth="1" NCoef="0" IVar="13" Cut="-9.0476191043853760e-01" cType="1" res="-9.9000000000000000e+01" rms="0.0000000000000000e+00" purity="4.0948256850242615e-01" nType="0">\n          <Node pos="l" depth="2" NCoef="0" IVar="1" Cut="-9.9464356899261475e-01" cType="1" res="-9.9000000000000000e+01" rms="0.0000000000000000e+00" purity="4.5945453643798828e-01" nType="0">\n            <Node pos="l" depth="3" NCoef="0" IVar="-1" Cut="0.0000000000000000e+00" cType="1" res="-9.9000000000000000e+01" rms="0.0000000000000000e+00" purity="6.1306643486022949e-01" nType="1"/>\n            <Node pos="r" depth="3" NCoef="0" IVar="-1" Cut="0.0000000000000000e+00" cType="1" res="-9.9000000000000000e+01" rms="0.0000000000000000e+00" purity="3.6068543791770935e-01" nType="-1"/>\n          </Node>\n          <Node pos="r" depth="2" NCoef="0" IVar="-1" Cut="0.0000000000000000e+00" cType="1" res="-9.9000000000000000e+01" rms="0.0000000000000000e+00" purity="2.5195220112800598e-01" nType="-1"/>\n        </Node>\n      </Node>\n    </BinaryTree>\n    <BinaryTree type="DecisionTree" boostWeight="1.1890185856932592e-01" itree="9">\n      <Node pos="s" depth="0" NCoef="0" IVar="2" Cut="-4.8831200599670410e-01" cType="0" res="-9.9000000000000000e+01" rms="0.0000000000000000e+00" purity="4.8844668269157410e-01" nType="0">\n        <Node pos="l" depth="1" NCoef="0" IVar="4" Cut="3.3359524607658386e-01" cType="0" res="-9.9000000000000000e+01" rms="0.0000000000000000e+00" purity="5.1982939243316650e-01" nType="0">\n          <Node pos="l" depth="2" NCoef="0" IVar="-1" Cut="0.0000000000000000e+00" cType="1" res="-9.9000000000000000e+01" rms="0.0000000000000000e+00" purity="6.1215597391128540e-01" nType="1"/>\n          <Node pos="r" depth="2" NCoef="0" IVar="14" Cut="7.1428573131561279e-01" cType="0" res="-9.9000000000000000e+01" rms="0.0000000000000000e+00" purity="5.0393933057785034e-01" nType="0">\n            <Node pos="l" depth="3" NCoef="0" IVar="-1" Cut="0.0000000000000000e+00" cType="1" res="-9.9000000000000000e+01" rms="0.0000000000000000e+00" purity="5.1751357316970825e-01" nType="1"/>\n            <Node pos="r" depth="3" NCoef="0" IVar="-1" Cut="0.0000000000000000e+00" cType="1" res="-9.9000000000000000e+01" rms="0.0000000000000000e+00" purity="4.3722298741340637e-01" nType="-1"/>\n          </Node>\n        </Node>\n        <Node pos="r" depth="1" NCoef="0" IVar="13" Cut="-9.0476191043853760e-01" cType="1" res="-9.9000000000000000e+01" rms="0.0000000000000000e+00" purity="4.2476719617843628e-01" nType="0">\n          <Node pos="l" depth="2" NCoef="0" IVar="1" Cut="-9.8935568332672119e-01" cType="1" res="-9.9000000000000000e+01" rms="0.0000000000000000e+00" purity="4.6801921725273132e-01" nType="0">\n            <Node pos="l" depth="3" NCoef="0" IVar="-1" Cut="0.0000000000000000e+00" cType="1" res="-9.9000000000000000e+01" rms="0.0000000000000000e+00" purity="5.2451962232589722e-01" nType="1"/>\n            <Node pos="r" depth="3" NCoef="0" IVar="-1" Cut="0.0000000000000000e+00" cType="1" res="-9.9000000000000000e+01" rms="0.0000000000000000e+00" purity="3.2109448313713074e-01" nType="-1"/>\n          </Node>\n          <Node pos="r" depth="2" NCoef="0" IVar="-1" Cut="0.0000000000000000e+00" cType="1" res="-9.9000000000000000e+01" rms="0.0000000000000000e+00" purity="2.8552982211112976e-01" nType="-1"/>\n        </Node>\n      </Node>\n    </BinaryTree>\n    <BinaryTree type="DecisionTree" boostWeight="8.7596549821508898e-02" itree="10">\n      <Node pos="s" depth="0" NCoef="0" IVar="2" Cut="-5.8130228519439697e-01" cType="0" res="-9.9000000000000000e+01" rms="0.0000000000000000e+00" purity="4.7310516238212585e-01" nType="0">\n        <Node pos="l" depth="1" NCoef="0" IVar="4" Cut="3.3343127369880676e-01" cType="0" res="-9.9000000000000000e+01" rms="0.0000000000000000e+00" purity="4.9137115478515625e-01" nType="0">\n          <Node pos="l" depth="2" NCoef="0" IVar="-1" Cut="0.0000000000000000e+00" cType="1" res="-9.9000000000000000e+01" rms="0.0000000000000000e+00" purity="5.8371758460998535e-01" nType="1"/>\n          <Node pos="r" depth="2" NCoef="0" IVar="-1" Cut="2.3809523880481720e-01" cType="1" res="-9.9000000000000000e+01" rms="0.0000000000000000e+00" purity="4.7841826081275940e-01" nType="-1"/>\n        </Node>\n        <Node pos="r" depth="1" NCoef="0" IVar="-1" Cut="-9.0476191043853760e-01" cType="1" res="-9.9000000000000000e+01" rms="0.0000000000000000e+00" purity="3.9248549938201904e-01" nType="-1"/>\n      </Node>\n    </BinaryTree>\n    <BinaryTree type="DecisionTree" boostWeight="9.8042050770384512e-02" itree="11">\n      <Node pos="s" depth="0" NCoef="0" IVar="2" Cut="-5.8130228519439697e-01" cType="0" res="-9.9000000000000000e+01" rms="0.0000000000000000e+00" purity="4.9056458473205566e-01" nType="0">\n        <Node pos="l" depth="1" NCoef="0" IVar="9" Cut="2.3809523880481720e-01" cType="1" res="-9.9000000000000000e+01" rms="0.0000000000000000e+00" purity="5.0789231061935425e-01" nType="0">\n          <Node pos="l" depth="2" NCoef="0" IVar="-1" Cut="6.9447720050811768e-01" cType="0" res="-9.9000000000000000e+01" rms="0.0000000000000000e+00" purity="5.2370041608810425e-01" nType="1"/>\n          <Node pos="r" depth="2" NCoef="0" IVar="-1" Cut="1.9047622382640839e-01" cType="1" res="-9.9000000000000000e+01" rms="0.0000000000000000e+00" purity="4.5183280110359192e-01" nType="-1"/>\n        </Node>\n        <Node pos="r" depth="1" NCoef="0" IVar="-1" Cut="-9.0476191043853760e-01" cType="1" res="-9.9000000000000000e+01" rms="0.0000000000000000e+00" purity="4.1355705261230469e-01" nType="-1"/>\n      </Node>\n    </BinaryTree>\n    <BinaryTree type="DecisionTree" boostWeight="1.7796624113529824e-01" itree="12">\n      <Node pos="s" depth="0" NCoef="0" IVar="14" Cut="6.1904764175415039e-01" cType="1" res="-9.9000000000000000e+01" rms="0.0000000000000000e+00" purity="4.8767986893653870e-01" nType="0">\n        <Node pos="l" depth="1" NCoef="0" IVar="-1" Cut="0.0000000000000000e+00" cType="1" res="-9.9000000000000000e+01" rms="0.0000000000000000e+00" purity="6.2633311748504639e-01" nType="1"/>\n        <Node pos="r" depth="1" NCoef="0" IVar="14" Cut="7.6420110464096069e-01" cType="0" res="-9.9000000000000000e+01" rms="0.0000000000000000e+00" purity="4.7518095374107361e-01" nType="0">\n          <Node pos="l" depth="2" NCoef="0" IVar="14" Cut="7.7542990446090698e-01" cType="0" res="-9.9000000000000000e+01" rms="0.0000000000000000e+00" purity="5.6992948055267334e-01" nType="0">\n            <Node pos="l" depth="3" NCoef="0" IVar="-1" Cut="0.0000000000000000e+00" cType="1" res="-9.9000000000000000e+01" rms="0.0000000000000000e+00" purity="7.3809987306594849e-01" nType="1"/>\n            <Node pos="r" depth="3" NCoef="0" IVar="-1" Cut="0.0000000000000000e+00" cType="1" res="-9.9000000000000000e+01" rms="0.0000000000000000e+00" purity="4.7524902224540710e-01" nType="-1"/>\n          </Node>\n          <Node pos="r" depth="2" NCoef="0" IVar="-1" Cut="7.3656105995178223e-01" cType="0" res="-9.9000000000000000e+01" rms="0.0000000000000000e+00" purity="4.2448815703392029e-01" nType="-1"/>\n        </Node>\n      </Node>\n    </BinaryTree>\n    <BinaryTree type="DecisionTree" boostWeight="9.1696398479229640e-02" itree="13">\n      <Node pos="s" depth="0" NCoef="0" IVar="2" Cut="-5.8130228519439697e-01" cType="0" res="-9.9000000000000000e+01" rms="0.0000000000000000e+00" purity="5.1472491025924683e-01" nType="0">\n        <Node pos="l" depth="1" NCoef="0" IVar="6" Cut="-7.1428442001342773e-01" cType="0" res="-9.9000000000000000e+01" rms="0.0000000000000000e+00" purity="5.3072798252105713e-01" nType="0">\n          <Node pos="l" depth="2" NCoef="0" IVar="-1" Cut="0.0000000000000000e+00" cType="1" res="-9.9000000000000000e+01" rms="0.0000000000000000e+00" purity="6.0105633735656738e-01" nType="1"/>\n          <Node pos="r" depth="2" NCoef="0" IVar="17" Cut="7.6316165924072266e-01" cType="0" res="-9.9000000000000000e+01" rms="0.0000000000000000e+00" purity="5.2291661500930786e-01" nType="0">\n            <Node pos="l" depth="3" NCoef="0" IVar="-1" Cut="0.0000000000000000e+00" cType="1" res="-9.9000000000000000e+01" rms="0.0000000000000000e+00" purity="5.5033671855926514e-01" nType="1"/>\n            <Node pos="r" depth="3" NCoef="0" IVar="-1" Cut="0.0000000000000000e+00" cType="1" res="-9.9000000000000000e+01" rms="0.0000000000000000e+00" purity="4.8753273487091064e-01" nType="-1"/>\n          </Node>\n        </Node>\n        <Node pos="r" depth="1" NCoef="0" IVar="-1" Cut="7.5172096490859985e-01" cType="0" res="-9.9000000000000000e+01" rms="0.0000000000000000e+00" purity="4.4189301133155823e-01" nType="-1"/>\n      </Node>\n    </BinaryTree>\n    <BinaryTree type="DecisionTree" boostWeight="8.5710978747029432e-02" itree="14">\n      <Node pos="s" depth="0" NCoef="0" IVar="2" Cut="-5.8130228519439697e-01" cType="0" res="-9.9000000000000000e+01" rms="0.0000000000000000e+00" purity="5.1202332973480225e-01" nType="0">\n        <Node pos="l" depth="1" NCoef="0" IVar="27" Cut="-9.0478432178497314e-01" cType="0" res="-9.9000000000000000e+01" rms="0.0000000000000000e+00" purity="5.2591979503631592e-01" nType="0">\n          <Node pos="l" depth="2" NCoef="0" IVar="27" Cut="9.9412935972213745e-01" cType="0" res="-9.9000000000000000e+01" rms="0.0000000000000000e+00" purity="5.3737205266952515e-01" nType="0">\n            <Node pos="l" depth="3" NCoef="0" IVar="-1" Cut="0.0000000000000000e+00" cType="1" res="-9.9000000000000000e+01" rms="0.0000000000000000e+00" purity="6.0883647203445435e-01" nType="1"/>\n            <Node pos="r" depth="3" NCoef="0" IVar="-1" Cut="0.0000000000000000e+00" cType="1" res="-9.9000000000000000e+01" rms="0.0000000000000000e+00" purity="4.9924039840698242e-01" nType="-1"/>\n          </Node>\n          <Node pos="r" depth="2" NCoef="0" IVar="9" Cut="-8.4249056875705719e-02" cType="0" res="-9.9000000000000000e+01" rms="0.0000000000000000e+00" purity="4.8809343576431274e-01" nType="0">\n            <Node pos="l" depth="3" NCoef="0" IVar="-1" Cut="0.0000000000000000e+00" cType="1" res="-9.9000000000000000e+01" rms="0.0000000000000000e+00" purity="5.2175551652908325e-01" nType="1"/>\n            <Node pos="r" depth="3" NCoef="0" IVar="-1" Cut="0.0000000000000000e+00" cType="1" res="-9.9000000000000000e+01" rms="0.0000000000000000e+00" purity="4.0596279501914978e-01" nType="-1"/>\n          </Node>\n        </Node>\n        <Node pos="r" depth="1" NCoef="0" IVar="17" Cut="7.5172096490859985e-01" cType="0" res="-9.9000000000000000e+01" rms="0.0000000000000000e+00" purity="4.4861099123954773e-01" nType="0">\n          <Node pos="l" depth="2" NCoef="0" IVar="5" Cut="-9.3512547016143799e-01" cType="0" res="-9.9000000000000000e+01" rms="0.0000000000000000e+00" purity="4.8716548085212708e-01" nType="0">\n            <Node pos="l" depth="3" NCoef="0" IVar="-1" Cut="0.0000000000000000e+00" cType="1" res="-9.9000000000000000e+01" rms="0.0000000000000000e+00" purity="5.1142287254333496e-01" nType="1"/>\n            <Node pos="r" depth="3" NCoef="0" IVar="-1" Cut="0.0000000000000000e+00" cType="1" res="-9.9000000000000000e+01" rms="0.0000000000000000e+00" purity="4.6891489624977112e-01" nType="-1"/>\n          </Node>\n          <Node pos="r" depth="2" NCoef="0" IVar="-1" Cut="0.0000000000000000e+00" cType="1" res="-9.9000000000000000e+01" rms="0.0000000000000000e+00" purity="3.6497938632965088e-01" nType="-1"/>\n        </Node>\n      </Node>\n    </BinaryTree>\n    <BinaryTree type="DecisionTree" boostWeight="1.1893001296525679e-01" itree="15">\n      <Node pos="s" depth="0" NCoef="0" IVar="14" Cut="6.1904764175415039e-01" cType="1" res="-9.9000000000000000e+01" rms="0.0000000000000000e+00" purity="5.1606118679046631e-01" nType="0">\n        <Node pos="l" depth="1" NCoef="0" IVar="-1" Cut="0.0000000000000000e+00" cType="1" res="-9.9000000000000000e+01" rms="0.0000000000000000e+00" purity="6.1124974489212036e-01" nType="1"/>\n        <Node pos="r" depth="1" NCoef="0" IVar="14" Cut="7.6420110464096069e-01" cType="0" res="-9.9000000000000000e+01" rms="0.0000000000000000e+00" purity="5.0745600461959839e-01" nType="0">\n          <Node pos="l" depth="2" NCoef="0" IVar="-1" Cut="7.7542990446090698e-01" cType="0" res="-9.9000000000000000e+01" rms="0.0000000000000000e+00" purity="5.8135789632797241e-01" nType="1"/>\n          <Node pos="r" depth="2" NCoef="0" IVar="14" Cut="7.3656105995178223e-01" cType="0" res="-9.9000000000000000e+01" rms="0.0000000000000000e+00" purity="4.6823236346244812e-01" nType="0">\n            <Node pos="l" depth="3" NCoef="0" IVar="-1" Cut="0.0000000000000000e+00" cType="1" res="-9.9000000000000000e+01" rms="0.0000000000000000e+00" purity="5.0683879852294922e-01" nType="1"/>\n            <Node pos="r" depth="3" NCoef="0" IVar="-1" Cut="0.0000000000000000e+00" cType="1" res="-9.9000000000000000e+01" rms="0.0000000000000000e+00" purity="4.0590032935142517e-01" nType="-1"/>\n          </Node>\n        </Node>\n      </Node>\n    </BinaryTree>\n    <BinaryTree type="DecisionTree" boostWeight="8.0848824210950604e-02" itree="16">\n      <Node pos="s" depth="0" NCoef="0" IVar="2" Cut="-5.8130228519439697e-01" cType="0" res="-9.9000000000000000e+01" rms="0.0000000000000000e+00" purity="4.9997359514236450e-01" nType="0">\n        <Node pos="l" depth="1" NCoef="0" IVar="27" Cut="-9.0478432178497314e-01" cType="0" res="-9.9000000000000000e+01" rms="0.0000000000000000e+00" purity="5.1285535097122192e-01" nType="0">\n          <Node pos="l" depth="2" NCoef="0" IVar="27" Cut="9.9304950237274170e-01" cType="0" res="-9.9000000000000000e+01" rms="0.0000000000000000e+00" purity="5.2720570564270020e-01" nType="0">\n            <Node pos="l" depth="3" NCoef="0" IVar="-1" Cut="0.0000000000000000e+00" cType="1" res="-9.9000000000000000e+01" rms="0.0000000000000000e+00" purity="5.6539452075958252e-01" nType="1"/>\n            <Node pos="r" depth="3" NCoef="0" IVar="-1" Cut="0.0000000000000000e+00" cType="1" res="-9.9000000000000000e+01" rms="0.0000000000000000e+00" purity="4.9249896407127380e-01" nType="-1"/>\n          </Node>\n          <Node pos="r" depth="2" NCoef="0" IVar="-1" Cut="-8.4249056875705719e-02" cType="0" res="-9.9000000000000000e+01" rms="0.0000000000000000e+00" purity="4.6545180678367615e-01" nType="-1"/>\n        </Node>\n        <Node pos="r" depth="1" NCoef="0" IVar="-1" Cut="-9.0476191043853760e-01" cType="1" res="-9.9000000000000000e+01" rms="0.0000000000000000e+00" purity="4.4119256734848022e-01" nType="-1"/>\n      </Node>\n    </BinaryTree>\n    <BinaryTree type="DecisionTree" boostWeight="6.8099156758175169e-02" itree="17">\n      <Node pos="s" depth="0" NCoef="0" IVar="2" Cut="-5.8130228519439697e-01" cType="0" res="-9.9000000000000000e+01" rms="0.0000000000000000e+00" purity="5.0600224733352661e-01" nType="0">\n        <Node pos="l" depth="1" NCoef="0" IVar="2" Cut="-2.8017976880073547e-01" cType="0" res="-9.9000000000000000e+01" rms="0.0000000000000000e+00" purity="5.1834219694137573e-01" nType="0">\n          <Node pos="l" depth="2" NCoef="0" IVar="-1" Cut="-9.0476191043853760e-01" cType="0" res="-9.9000000000000000e+01" rms="0.0000000000000000e+00" purity="5.3977799415588379e-01" nType="1"/>\n          <Node pos="r" depth="2" NCoef="0" IVar="6" Cut="-7.4710911512374878e-01" cType="0" res="-9.9000000000000000e+01" rms="0.0000000000000000e+00" purity="4.9916434288024902e-01" nType="0">\n            <Node pos="l" depth="3" NCoef="0" IVar="-1" Cut="0.0000000000000000e+00" cType="1" res="-9.9000000000000000e+01" rms="0.0000000000000000e+00" purity="5.8004987239837646e-01" nType="1"/>\n            <Node pos="r" depth="3" NCoef="0" IVar="-1" Cut="0.0000000000000000e+00" cType="1" res="-9.9000000000000000e+01" rms="0.0000000000000000e+00" purity="4.8683431744575500e-01" nType="-1"/>\n          </Node>\n        </Node>\n        <Node pos="r" depth="1" NCoef="0" IVar="-1" Cut="-9.0476191043853760e-01" cType="1" res="-9.9000000000000000e+01" rms="0.0000000000000000e+00" purity="4.4955614209175110e-01" nType="-1"/>\n      </Node>\n    </BinaryTree>\n    <BinaryTree type="DecisionTree" boostWeight="1.0350926567165640e-01" itree="18">\n      <Node pos="s" depth="0" NCoef="0" IVar="21" Cut="-9.0476191043853760e-01" cType="1" res="-9.9000000000000000e+01" rms="0.0000000000000000e+00" purity="5.0789999961853027e-01" nType="0">\n        <Node pos="l" depth="1" NCoef="0" IVar="16" Cut="6.0033959150314331e-01" cType="1" res="-9.9000000000000000e+01" rms="0.0000000000000000e+00" purity="5.1464486122131348e-01" nType="0">\n          <Node pos="l" depth="2" NCoef="0" IVar="-1" Cut="0.0000000000000000e+00" cType="1" res="-9.9000000000000000e+01" rms="0.0000000000000000e+00" purity="5.9887409210205078e-01" nType="1"/>\n          <Node pos="r" depth="2" NCoef="0" IVar="14" Cut="7.6725053787231445e-01" cType="0" res="-9.9000000000000000e+01" rms="0.0000000000000000e+00" purity="5.0708991289138794e-01" nType="0">\n            <Node pos="l" depth="3" NCoef="0" IVar="-1" Cut="0.0000000000000000e+00" cType="1" res="-9.9000000000000000e+01" rms="0.0000000000000000e+00" purity="6.0060024261474609e-01" nType="1"/>\n            <Node pos="r" depth="3" NCoef="0" IVar="-1" Cut="0.0000000000000000e+00" cType="1" res="-9.9000000000000000e+01" rms="0.0000000000000000e+00" purity="4.7482603788375854e-01" nType="-1"/>\n          </Node>\n        </Node>\n        <Node pos="r" depth="1" NCoef="0" IVar="-1" Cut="0.0000000000000000e+00" cType="1" res="-9.9000000000000000e+01" rms="0.0000000000000000e+00" purity="4.1171970963478088e-01" nType="-1"/>\n      </Node>\n    </BinaryTree>\n    <BinaryTree type="DecisionTree" boostWeight="7.7805244260918366e-02" itree="19">\n      <Node pos="s" depth="0" NCoef="0" IVar="9" Cut="2.3809523880481720e-01" cType="1" res="-9.9000000000000000e+01" rms="0.0000000000000000e+00" purity="5.1850074529647827e-01" nType="0">\n        <Node pos="l" depth="1" NCoef="0" IVar="8" Cut="-4.8020473122596741e-01" cType="0" res="-9.9000000000000000e+01" rms="0.0000000000000000e+00" purity="5.3082042932510376e-01" nType="0">\n          <Node pos="l" depth="2" NCoef="0" IVar="-1" Cut="0.0000000000000000e+00" cType="1" res="-9.9000000000000000e+01" rms="0.0000000000000000e+00" purity="5.8652037382125854e-01" nType="1"/>\n          <Node pos="r" depth="2" NCoef="0" IVar="1" Cut="-9.6967238187789917e-01" cType="1" res="-9.9000000000000000e+01" rms="0.0000000000000000e+00" purity="5.2281010150909424e-01" nType="0">\n            <Node pos="l" depth="3" NCoef="0" IVar="-1" Cut="0.0000000000000000e+00" cType="1" res="-9.9000000000000000e+01" rms="0.0000000000000000e+00" purity="5.3221100568771362e-01" nType="1"/>\n            <Node pos="r" depth="3" NCoef="0" IVar="-1" Cut="0.0000000000000000e+00" cType="1" res="-9.9000000000000000e+01" rms="0.0000000000000000e+00" purity="4.5600831508636475e-01" nType="-1"/>\n          </Node>\n        </Node>\n        <Node pos="r" depth="1" NCoef="0" IVar="2" Cut="-5.4999727010726929e-01" cType="0" res="-9.9000000000000000e+01" rms="0.0000000000000000e+00" purity="4.7809284925460815e-01" nType="0">\n          <Node pos="l" depth="2" NCoef="0" IVar="3" Cut="1.9047622382640839e-01" cType="1" res="-9.9000000000000000e+01" rms="0.0000000000000000e+00" purity="4.9789637327194214e-01" nType="0">\n            <Node pos="l" depth="3" NCoef="0" IVar="-1" Cut="0.0000000000000000e+00" cType="1" res="-9.9000000000000000e+01" rms="0.0000000000000000e+00" purity="5.1667356491088867e-01" nType="1"/>\n            <Node pos="r" depth="3" NCoef="0" IVar="-1" Cut="0.0000000000000000e+00" cType="1" res="-9.9000000000000000e+01" rms="0.0000000000000000e+00" purity="4.7833493351936340e-01" nType="-1"/>\n          </Node>\n          <Node pos="r" depth="2" NCoef="0" IVar="-1" Cut="0.0000000000000000e+00" cType="1" res="-9.9000000000000000e+01" rms="0.0000000000000000e+00" purity="4.3010437488555908e-01" nType="-1"/>\n        </Node>\n      </Node>\n    </BinaryTree>\n    <BinaryTree type="DecisionTree" boostWeight="5.1806850590528128e-02" itree="20">\n      <Node pos="s" depth="0" NCoef="0" IVar="21" Cut="-9.0476191043853760e-01" cType="1" res="-9.9000000000000000e+01" rms="0.0000000000000000e+00" purity="5.0810122489929199e-01" nType="0">\n        <Node pos="l" depth="1" NCoef="0" IVar="2" Cut="-6.7429256439208984e-01" cType="0" res="-9.9000000000000000e+01" rms="0.0000000000000000e+00" purity="5.1397889852523804e-01" nType="0">\n          <Node pos="l" depth="2" NCoef="0" IVar="-1" Cut="-8.0952382087707520e-01" cType="1" res="-9.9000000000000000e+01" rms="0.0000000000000000e+00" purity="5.1942825317382812e-01" nType="1"/>\n          <Node pos="r" depth="2" NCoef="0" IVar="-1" Cut="0.0000000000000000e+00" cType="1" res="-9.9000000000000000e+01" rms="0.0000000000000000e+00" purity="4.3471583724021912e-01" nType="-1"/>\n        </Node>\n        <Node pos="r" depth="1" NCoef="0" IVar="-1" Cut="0.0000000000000000e+00" cType="1" res="-9.9000000000000000e+01" rms="0.0000000000000000e+00" purity="4.2401814460754395e-01" nType="-1"/>\n      </Node>\n    </BinaryTree>\n    <BinaryTree type="DecisionTree" boostWeight="1.0736898038587893e-01" itree="21">\n      <Node pos="s" depth="0" NCoef="0" IVar="8" Cut="-4.6606138348579407e-01" cType="0" res="-9.9000000000000000e+01" rms="0.0000000000000000e+00" purity="4.9839940667152405e-01" nType="0">\n        <Node pos="l" depth="1" NCoef="0" IVar="-1" Cut="0.0000000000000000e+00" cType="1" res="-9.9000000000000000e+01" rms="0.0000000000000000e+00" purity="5.4514586925506592e-01" nType="1"/>\n        <Node pos="r" depth="1" NCoef="0" IVar="4" Cut="-8.0952382087707520e-01" cType="1" res="-9.9000000000000000e+01" rms="0.0000000000000000e+00" purity="4.9109670519828796e-01" nType="0">\n          <Node pos="l" depth="2" NCoef="0" IVar="4" Cut="-9.8185998201370239e-01" cType="0" res="-9.9000000000000000e+01" rms="0.0000000000000000e+00" purity="5.1210701465606689e-01" nType="0">\n            <Node pos="l" depth="3" NCoef="0" IVar="-1" Cut="0.0000000000000000e+00" cType="1" res="-9.9000000000000000e+01" rms="0.0000000000000000e+00" purity="5.7181483507156372e-01" nType="1"/>\n            <Node pos="r" depth="3" NCoef="0" IVar="-1" Cut="0.0000000000000000e+00" cType="1" res="-9.9000000000000000e+01" rms="0.0000000000000000e+00" purity="3.7424638867378235e-01" nType="-1"/>\n          </Node>\n          <Node pos="r" depth="2" NCoef="0" IVar="-1" Cut="-6.3718295097351074e-01" cType="0" res="-9.9000000000000000e+01" rms="0.0000000000000000e+00" purity="4.7336006164550781e-01" nType="-1"/>\n        </Node>\n      </Node>\n    </BinaryTree>\n    <BinaryTree type="DecisionTree" boostWeight="4.5015407978225203e-02" itree="22">\n      <Node pos="s" depth="0" NCoef="0" IVar="6" Cut="-7.1428442001342773e-01" cType="0" res="-9.9000000000000000e+01" rms="0.0000000000000000e+00" purity="5.0317096710205078e-01" nType="0">\n        <Node pos="l" depth="1" NCoef="0" IVar="-1" Cut="0.0000000000000000e+00" cType="1" res="-9.9000000000000000e+01" rms="0.0000000000000000e+00" purity="5.6118369102478027e-01" nType="1"/>\n        <Node pos="r" depth="1" NCoef="0" IVar="9" Cut="3.3333334326744080e-01" cType="1" res="-9.9000000000000000e+01" rms="0.0000000000000000e+00" purity="4.9771648645401001e-01" nType="0">\n          <Node pos="l" depth="2" NCoef="0" IVar="21" Cut="-9.0476191043853760e-01" cType="1" res="-9.9000000000000000e+01" rms="0.0000000000000000e+00" purity="5.0555062294006348e-01" nType="0">\n            <Node pos="l" depth="3" NCoef="0" IVar="-1" Cut="0.0000000000000000e+00" cType="1" res="-9.9000000000000000e+01" rms="0.0000000000000000e+00" purity="5.1005023717880249e-01" nType="1"/>\n            <Node pos="r" depth="3" NCoef="0" IVar="-1" Cut="0.0000000000000000e+00" cType="1" res="-9.9000000000000000e+01" rms="0.0000000000000000e+00" purity="4.4246357679367065e-01" nType="-1"/>\n          </Node>\n          <Node pos="r" depth="2" NCoef="0" IVar="-1" Cut="-9.0474790334701538e-01" cType="1" res="-9.9000000000000000e+01" rms="0.0000000000000000e+00" purity="4.3846789002418518e-01" nType="-1"/>\n        </Node>\n      </Node>\n    </BinaryTree>\n    <BinaryTree type="DecisionTree" boostWeight="8.5918051028539763e-02" itree="23">\n      <Node pos="s" depth="0" NCoef="0" IVar="14" Cut="6.1904764175415039e-01" cType="1" res="-9.9000000000000000e+01" rms="0.0000000000000000e+00" purity="4.9552628397941589e-01" nType="0">\n        <Node pos="l" depth="1" NCoef="0" IVar="-1" Cut="0.0000000000000000e+00" cType="1" res="-9.9000000000000000e+01" rms="0.0000000000000000e+00" purity="5.5483114719390869e-01" nType="1"/>\n        <Node pos="r" depth="1" NCoef="0" IVar="14" Cut="7.6420110464096069e-01" cType="0" res="-9.9000000000000000e+01" rms="0.0000000000000000e+00" purity="4.9022683501243591e-01" nType="0">\n          <Node pos="l" depth="2" NCoef="0" IVar="14" Cut="7.7542990446090698e-01" cType="0" res="-9.9000000000000000e+01" rms="0.0000000000000000e+00" purity="5.3025245666503906e-01" nType="0">\n            <Node pos="l" depth="3" NCoef="0" IVar="-1" Cut="0.0000000000000000e+00" cType="1" res="-9.9000000000000000e+01" rms="0.0000000000000000e+00" purity="6.3593059778213501e-01" nType="1"/>\n            <Node pos="r" depth="3" NCoef="0" IVar="-1" Cut="0.0000000000000000e+00" cType="1" res="-9.9000000000000000e+01" rms="0.0000000000000000e+00" purity="4.7542434930801392e-01" nType="-1"/>\n          </Node>\n          <Node pos="r" depth="2" NCoef="0" IVar="-1" Cut="-9.0476191043853760e-01" cType="0" res="-9.9000000000000000e+01" rms="0.0000000000000000e+00" purity="4.6917349100112915e-01" nType="-1"/>\n        </Node>\n      </Node>\n    </BinaryTree>\n    <BinaryTree type="DecisionTree" boostWeight="6.6308930981558545e-02" itree="24">\n      <Node pos="s" depth="0" NCoef="0" IVar="6" Cut="-7.1428442001342773e-01" cType="0" res="-9.9000000000000000e+01" rms="0.0000000000000000e+00" purity="5.0886303186416626e-01" nType="0">\n        <Node pos="l" depth="1" NCoef="0" IVar="-1" Cut="0.0000000000000000e+00" cType="1" res="-9.9000000000000000e+01" rms="0.0000000000000000e+00" purity="5.6721693277359009e-01" nType="1"/>\n        <Node pos="r" depth="1" NCoef="0" IVar="9" Cut="2.3809523880481720e-01" cType="1" res="-9.9000000000000000e+01" rms="0.0000000000000000e+00" purity="5.0335252285003662e-01" nType="0">\n          <Node pos="l" depth="2" NCoef="0" IVar="10" Cut="-9.0476191043853760e-01" cType="0" res="-9.9000000000000000e+01" rms="0.0000000000000000e+00" purity="5.1320236921310425e-01" nType="0">\n            <Node pos="l" depth="3" NCoef="0" IVar="-1" Cut="0.0000000000000000e+00" cType="1" res="-9.9000000000000000e+01" rms="0.0000000000000000e+00" purity="5.2720135450363159e-01" nType="1"/>\n            <Node pos="r" depth="3" NCoef="0" IVar="-1" Cut="0.0000000000000000e+00" cType="1" res="-9.9000000000000000e+01" rms="0.0000000000000000e+00" purity="4.7331169247627258e-01" nType="-1"/>\n          </Node>\n          <Node pos="r" depth="2" NCoef="0" IVar="14" Cut="7.6167631149291992e-01" cType="0" res="-9.9000000000000000e+01" rms="0.0000000000000000e+00" purity="4.7068896889686584e-01" nType="0">\n            <Node pos="l" depth="3" NCoef="0" IVar="-1" Cut="0.0000000000000000e+00" cType="1" res="-9.9000000000000000e+01" rms="0.0000000000000000e+00" purity="5.1511693000793457e-01" nType="1"/>\n            <Node pos="r" depth="3" NCoef="0" IVar="-1" Cut="0.0000000000000000e+00" cType="1" res="-9.9000000000000000e+01" rms="0.0000000000000000e+00" purity="4.4901165366172791e-01" nType="-1"/>\n          </Node>\n        </Node>\n      </Node>\n    </BinaryTree>\n    <BinaryTree type="DecisionTree" boostWeight="1.0731433818252828e-01" itree="25">\n      <Node pos="s" depth="0" NCoef="0" IVar="4" Cut="3.3333334326744080e-01" cType="0" res="-9.9000000000000000e+01" rms="0.0000000000000000e+00" purity="5.0305795669555664e-01" nType="0">\n        <Node pos="l" depth="1" NCoef="0" IVar="-1" Cut="0.0000000000000000e+00" cType="1" res="-9.9000000000000000e+01" rms="0.0000000000000000e+00" purity="5.5161666870117188e-01" nType="1"/>\n        <Node pos="r" depth="1" NCoef="0" IVar="4" Cut="-9.3651008605957031e-01" cType="0" res="-9.9000000000000000e+01" rms="0.0000000000000000e+00" purity="4.9753323197364807e-01" nType="0">\n          <Node pos="l" depth="2" NCoef="0" IVar="23" Cut="-9.0476191043853760e-01" cType="0" res="-9.9000000000000000e+01" rms="0.0000000000000000e+00" purity="5.0788670778274536e-01" nType="0">\n            <Node pos="l" depth="3" NCoef="0" IVar="-1" Cut="0.0000000000000000e+00" cType="1" res="-9.9000000000000000e+01" rms="0.0000000000000000e+00" purity="5.2735447883605957e-01" nType="1"/>\n            <Node pos="r" depth="3" NCoef="0" IVar="-1" Cut="0.0000000000000000e+00" cType="1" res="-9.9000000000000000e+01" rms="0.0000000000000000e+00" purity="4.3555578589439392e-01" nType="-1"/>\n          </Node>\n          <Node pos="r" depth="2" NCoef="0" IVar="4" Cut="-9.8488384485244751e-01" cType="0" res="-9.9000000000000000e+01" rms="0.0000000000000000e+00" purity="4.7136577963829041e-01" nType="0">\n            <Node pos="l" depth="3" NCoef="0" IVar="-1" Cut="0.0000000000000000e+00" cType="1" res="-9.9000000000000000e+01" rms="0.0000000000000000e+00" purity="5.5773913860321045e-01" nType="1"/>\n            <Node pos="r" depth="3" NCoef="0" IVar="-1" Cut="0.0000000000000000e+00" cType="1" res="-9.9000000000000000e+01" rms="0.0000000000000000e+00" purity="3.3024489879608154e-01" nType="-1"/>\n          </Node>\n        </Node>\n      </Node>\n    </BinaryTree>\n    <BinaryTree type="DecisionTree" boostWeight="4.6151093353377068e-02" itree="26">\n      <Node pos="s" depth="0" NCoef="0" IVar="6" Cut="-7.1428442001342773e-01" cType="0" res="-9.9000000000000000e+01" rms="0.0000000000000000e+00" purity="4.8868399858474731e-01" nType="0">\n        <Node pos="l" depth="1" NCoef="0" IVar="-1" Cut="0.0000000000000000e+00" cType="1" res="-9.9000000000000000e+01" rms="0.0000000000000000e+00" purity="5.3727281093597412e-01" nType="1"/>\n        <Node pos="r" depth="1" NCoef="0" IVar="14" Cut="6.1904764175415039e-01" cType="1" res="-9.9000000000000000e+01" rms="0.0000000000000000e+00" purity="4.8411688208580017e-01" nType="0">\n          <Node pos="l" depth="2" NCoef="0" IVar="-1" Cut="0.0000000000000000e+00" cType="1" res="-9.9000000000000000e+01" rms="0.0000000000000000e+00" purity="5.3244531154632568e-01" nType="1"/>\n          <Node pos="r" depth="2" NCoef="0" IVar="-1" Cut="7.5993657112121582e-01" cType="0" res="-9.9000000000000000e+01" rms="0.0000000000000000e+00" purity="4.7933724522590637e-01" nType="-1"/>\n        </Node>\n      </Node>\n    </BinaryTree>\n    <BinaryTree type="DecisionTree" boostWeight="3.6381549001288815e-02" itree="27">\n      <Node pos="s" depth="0" NCoef="0" IVar="21" Cut="-9.0476191043853760e-01" cType="1" res="-9.9000000000000000e+01" rms="0.0000000000000000e+00" purity="4.9633553624153137e-01" nType="0">\n        <Node pos="l" depth="1" NCoef="0" IVar="4" Cut="-2.3809523880481720e-01" cType="0" res="-9.9000000000000000e+01" rms="0.0000000000000000e+00" purity="5.0013667345046997e-01" nType="0">\n          <Node pos="l" depth="2" NCoef="0" IVar="-1" Cut="2.9273328185081482e-01" cType="0" res="-9.9000000000000000e+01" rms="0.0000000000000000e+00" purity="5.2980953454971313e-01" nType="1"/>\n          <Node pos="r" depth="2" NCoef="0" IVar="3" Cut="-1.3605439662933350e-01" cType="0" res="-9.9000000000000000e+01" rms="0.0000000000000000e+00" purity="4.9065268039703369e-01" nType="0">\n            <Node pos="l" depth="3" NCoef="0" IVar="-1" Cut="0.0000000000000000e+00" cType="1" res="-9.9000000000000000e+01" rms="0.0000000000000000e+00" purity="5.0093811750411987e-01" nType="1"/>\n            <Node pos="r" depth="3" NCoef="0" IVar="-1" Cut="0.0000000000000000e+00" cType="1" res="-9.9000000000000000e+01" rms="0.0000000000000000e+00" purity="4.5633012056350708e-01" nType="-1"/>\n          </Node>\n        </Node>\n        <Node pos="r" depth="1" NCoef="0" IVar="-1" Cut="0.0000000000000000e+00" cType="1" res="-9.9000000000000000e+01" rms="0.0000000000000000e+00" purity="4.4200325012207031e-01" nType="-1"/>\n      </Node>\n    </BinaryTree>\n    <BinaryTree type="DecisionTree" boostWeight="4.1960640620979310e-02" itree="28">\n      <Node pos="s" depth="0" NCoef="0" IVar="7" Cut="-8.1954884529113770e-01" cType="1" res="-9.9000000000000000e+01" rms="0.0000000000000000e+00" purity="4.9139502644538879e-01" nType="0">\n        <Node pos="l" depth="1" NCoef="0" IVar="-1" Cut="0.0000000000000000e+00" cType="1" res="-9.9000000000000000e+01" rms="0.0000000000000000e+00" purity="5.2675116062164307e-01" nType="1"/>\n        <Node pos="r" depth="1" NCoef="0" IVar="6" Cut="-9.0456640720367432e-01" cType="0" res="-9.9000000000000000e+01" rms="0.0000000000000000e+00" purity="4.8604848980903625e-01" nType="0">\n          <Node pos="l" depth="2" NCoef="0" IVar="4" Cut="-5.2363461256027222e-01" cType="1" res="-9.9000000000000000e+01" rms="0.0000000000000000e+00" purity="4.9906209111213684e-01" nType="0">\n            <Node pos="l" depth="3" NCoef="0" IVar="-1" Cut="0.0000000000000000e+00" cType="1" res="-9.9000000000000000e+01" rms="0.0000000000000000e+00" purity="5.0742405652999878e-01" nType="1"/>\n            <Node pos="r" depth="3" NCoef="0" IVar="-1" Cut="0.0000000000000000e+00" cType="1" res="-9.9000000000000000e+01" rms="0.0000000000000000e+00" purity="4.8146945238113403e-01" nType="-1"/>\n          </Node>\n          <Node pos="r" depth="2" NCoef="0" IVar="-1" Cut="7.5172096490859985e-01" cType="0" res="-9.9000000000000000e+01" rms="0.0000000000000000e+00" purity="4.6567076444625854e-01" nType="-1"/>\n        </Node>\n      </Node>\n    </BinaryTree>\n    <BinaryTree type="DecisionTree" boostWeight="7.5027819805771584e-02" itree="29">\n      <Node pos="s" depth="0" NCoef="0" IVar="4" Cut="-2.3809523880481720e-01" cType="0" res="-9.9000000000000000e+01" rms="0.0000000000000000e+00" purity="4.9158325791358948e-01" nType="0">\n        <Node pos="l" depth="1" NCoef="0" IVar="-1" Cut="6.9629572331905365e-02" cType="1" res="-9.9000000000000000e+01" rms="0.0000000000000000e+00" purity="5.1647186279296875e-01" nType="1"/>\n        <Node pos="r" depth="1" NCoef="0" IVar="4" Cut="-9.6372336149215698e-01" cType="0" res="-9.9000000000000000e+01" rms="0.0000000000000000e+00" purity="4.8339268565177917e-01" nType="0">\n          <Node pos="l" depth="2" NCoef="0" IVar="1" Cut="-9.7338950634002686e-01" cType="0" res="-9.9000000000000000e+01" rms="0.0000000000000000e+00" purity="4.9148523807525635e-01" nType="0">\n            <Node pos="l" depth="3" NCoef="0" IVar="-1" Cut="0.0000000000000000e+00" cType="1" res="-9.9000000000000000e+01" rms="0.0000000000000000e+00" purity="5.5194622278213501e-01" nType="1"/>\n            <Node pos="r" depth="3" NCoef="0" IVar="-1" Cut="0.0000000000000000e+00" cType="1" res="-9.9000000000000000e+01" rms="0.0000000000000000e+00" purity="4.8085424304008484e-01" nType="-1"/>\n          </Node>\n          <Node pos="r" depth="2" NCoef="0" IVar="4" Cut="-9.8618143796920776e-01" cType="0" res="-9.9000000000000000e+01" rms="0.0000000000000000e+00" purity="4.5910769701004028e-01" nType="0">\n            <Node pos="l" depth="3" NCoef="0" IVar="-1" Cut="0.0000000000000000e+00" cType="1" res="-9.9000000000000000e+01" rms="0.0000000000000000e+00" purity="5.5809676647186279e-01" nType="1"/>\n            <Node pos="r" depth="3" NCoef="0" IVar="-1" Cut="0.0000000000000000e+00" cType="1" res="-9.9000000000000000e+01" rms="0.0000000000000000e+00" purity="3.3621719479560852e-01" nType="-1"/>\n          </Node>\n        </Node>\n      </Node>\n    </BinaryTree>\n    <BinaryTree type="DecisionTree" boostWeight="1.4859059129354568e-01" itree="30">\n      <Node pos="s" depth="0" NCoef="0" IVar="9" Cut="4.7619048506021500e-02" cType="1" res="-9.9000000000000000e+01" rms="0.0000000000000000e+00" purity="4.9396029114723206e-01" nType="0">\n        <Node pos="l" depth="1" NCoef="0" IVar="23" Cut="-9.0476191043853760e-01" cType="0" res="-9.9000000000000000e+01" rms="0.0000000000000000e+00" purity="5.0861608982086182e-01" nType="0">\n          <Node pos="l" depth="2" NCoef="0" IVar="-1" Cut="-9.0476191043853760e-01" cType="0" res="-9.9000000000000000e+01" rms="0.0000000000000000e+00" purity="5.2939015626907349e-01" nType="1"/>\n          <Node pos="r" depth="2" NCoef="0" IVar="-1" Cut="0.0000000000000000e+00" cType="1" res="-9.9000000000000000e+01" rms="0.0000000000000000e+00" purity="4.0985578298568726e-01" nType="-1"/>\n        </Node>\n        <Node pos="r" depth="1" NCoef="0" IVar="29" Cut="-9.0476191043853760e-01" cType="1" res="-9.9000000000000000e+01" rms="0.0000000000000000e+00" purity="4.8484173417091370e-01" nType="0">\n          <Node pos="l" depth="2" NCoef="0" IVar="-1" Cut="0.0000000000000000e+00" cType="1" res="-9.9000000000000000e+01" rms="0.0000000000000000e+00" purity="5.6193447113037109e-01" nType="1"/>\n          <Node pos="r" depth="2" NCoef="0" IVar="29" Cut="9.9410074949264526e-01" cType="0" res="-9.9000000000000000e+01" rms="0.0000000000000000e+00" purity="4.7064054012298584e-01" nType="0">\n            <Node pos="l" depth="3" NCoef="0" IVar="-1" Cut="0.0000000000000000e+00" cType="1" res="-9.9000000000000000e+01" rms="0.0000000000000000e+00" purity="7.3221063613891602e-01" nType="1"/>\n            <Node pos="r" depth="3" NCoef="0" IVar="-1" Cut="0.0000000000000000e+00" cType="1" res="-9.9000000000000000e+01" rms="0.0000000000000000e+00" purity="4.2305985093116760e-01" nType="-1"/>\n          </Node>\n        </Node>\n      </Node>\n    </BinaryTree>\n    <BinaryTree type="DecisionTree" boostWeight="7.6618678174877511e-02" itree="31">\n      <Node pos="s" depth="0" NCoef="0" IVar="9" Cut="-4.2857143282890320e-01" cType="0" res="-9.9000000000000000e+01" rms="0.0000000000000000e+00" purity="4.9442583322525024e-01" nType="0">\n        <Node pos="l" depth="1" NCoef="0" IVar="4" Cut="-8.0952382087707520e-01" cType="1" res="-9.9000000000000000e+01" rms="0.0000000000000000e+00" purity="4.9942436814308167e-01" nType="0">\n          <Node pos="l" depth="2" NCoef="0" IVar="4" Cut="-9.8185998201370239e-01" cType="0" res="-9.9000000000000000e+01" rms="0.0000000000000000e+00" purity="5.1643848419189453e-01" nType="0">\n            <Node pos="l" depth="3" NCoef="0" IVar="-1" Cut="0.0000000000000000e+00" cType="1" res="-9.9000000000000000e+01" rms="0.0000000000000000e+00" purity="5.4703634977340698e-01" nType="1"/>\n            <Node pos="r" depth="3" NCoef="0" IVar="-1" Cut="0.0000000000000000e+00" cType="1" res="-9.9000000000000000e+01" rms="0.0000000000000000e+00" purity="4.3511316180229187e-01" nType="-1"/>\n          </Node>\n          <Node pos="r" depth="2" NCoef="0" IVar="16" Cut="7.2701656818389893e-01" cType="0" res="-9.9000000000000000e+01" rms="0.0000000000000000e+00" purity="4.8648902773857117e-01" nType="0">\n            <Node pos="l" depth="3" NCoef="0" IVar="-1" Cut="0.0000000000000000e+00" cType="1" res="-9.9000000000000000e+01" rms="0.0000000000000000e+00" purity="5.2280044555664062e-01" nType="1"/>\n            <Node pos="r" depth="3" NCoef="0" IVar="-1" Cut="0.0000000000000000e+00" cType="1" res="-9.9000000000000000e+01" rms="0.0000000000000000e+00" purity="4.7173699736595154e-01" nType="-1"/>\n          </Node>\n        </Node>\n        <Node pos="r" depth="1" NCoef="0" IVar="3" Cut="-4.6938773989677429e-01" cType="1" res="-9.9000000000000000e+01" rms="0.0000000000000000e+00" purity="4.6082833409309387e-01" nType="0">\n          <Node pos="l" depth="2" NCoef="0" IVar="-1" Cut="0.0000000000000000e+00" cType="1" res="-9.9000000000000000e+01" rms="0.0000000000000000e+00" purity="5.0300115346908569e-01" nType="1"/>\n          <Node pos="r" depth="2" NCoef="0" IVar="-1" Cut="0.0000000000000000e+00" cType="1" res="-9.9000000000000000e+01" rms="0.0000000000000000e+00" purity="4.0400043129920959e-01" nType="-1"/>\n        </Node>\n      </Node>\n    </BinaryTree>\n    <BinaryTree type="DecisionTree" boostWeight="4.8627859813606081e-02" itree="32">\n      <Node pos="s" depth="0" NCoef="0" IVar="9" Cut="-4.2857143282890320e-01" cType="0" res="-9.9000000000000000e+01" rms="0.0000000000000000e+00" purity="4.9477845430374146e-01" nType="0">\n        <Node pos="l" depth="1" NCoef="0" IVar="16" Cut="6.0033959150314331e-01" cType="1" res="-9.9000000000000000e+01" rms="0.0000000000000000e+00" purity="5.0026947259902954e-01" nType="0">\n          <Node pos="l" depth="2" NCoef="0" IVar="-1" Cut="0.0000000000000000e+00" cType="1" res="-9.9000000000000000e+01" rms="0.0000000000000000e+00" purity="5.4581552743911743e-01" nType="1"/>\n          <Node pos="r" depth="2" NCoef="0" IVar="16" Cut="7.4378770589828491e-01" cType="1" res="-9.9000000000000000e+01" rms="0.0000000000000000e+00" purity="4.9610909819602966e-01" nType="0">\n            <Node pos="l" depth="3" NCoef="0" IVar="-1" Cut="0.0000000000000000e+00" cType="1" res="-9.9000000000000000e+01" rms="0.0000000000000000e+00" purity="5.0876474380493164e-01" nType="1"/>\n            <Node pos="r" depth="3" NCoef="0" IVar="-1" Cut="0.0000000000000000e+00" cType="1" res="-9.9000000000000000e+01" rms="0.0000000000000000e+00" purity="3.9718747138977051e-01" nType="-1"/>\n          </Node>\n        </Node>\n        <Node pos="r" depth="1" NCoef="0" IVar="-1" Cut="-9.0476191043853760e-01" cType="1" res="-9.9000000000000000e+01" rms="0.0000000000000000e+00" purity="4.5785671472549438e-01" nType="-1"/>\n      </Node>\n    </BinaryTree>\n    <BinaryTree type="DecisionTree" boostWeight="7.3734355946294808e-02" itree="33">\n      <Node pos="s" depth="0" NCoef="0" IVar="4" Cut="-7.1428573131561279e-01" cType="0" res="-9.9000000000000000e+01" rms="0.0000000000000000e+00" purity="4.8795625567436218e-01" nType="0">\n        <Node pos="l" depth="1" NCoef="0" IVar="-1" Cut="-4.6936783194541931e-01" cType="1" res="-9.9000000000000000e+01" rms="0.0000000000000000e+00" purity="5.0036418437957764e-01" nType="1"/>\n        <Node pos="r" depth="1" NCoef="0" IVar="4" Cut="-9.8639589548110962e-01" cType="0" res="-9.9000000000000000e+01" rms="0.0000000000000000e+00" purity="4.7645074129104614e-01" nType="0">\n          <Node pos="l" depth="2" NCoef="0" IVar="7" Cut="-4.5864659547805786e-01" cType="0" res="-9.9000000000000000e+01" rms="0.0000000000000000e+00" purity="4.9728479981422424e-01" nType="0">\n            <Node pos="l" depth="3" NCoef="0" IVar="-1" Cut="0.0000000000000000e+00" cType="1" res="-9.9000000000000000e+01" rms="0.0000000000000000e+00" purity="5.4167014360427856e-01" nType="1"/>\n            <Node pos="r" depth="3" NCoef="0" IVar="-1" Cut="0.0000000000000000e+00" cType="1" res="-9.9000000000000000e+01" rms="0.0000000000000000e+00" purity="4.7390475869178772e-01" nType="-1"/>\n          </Node>\n          <Node pos="r" depth="2" NCoef="0" IVar="-1" Cut="0.0000000000000000e+00" cType="1" res="-9.9000000000000000e+01" rms="0.0000000000000000e+00" purity="3.6257156729698181e-01" nType="-1"/>\n        </Node>\n      </Node>\n    </BinaryTree>\n    <BinaryTree type="DecisionTree" boostWeight="5.8658288873334040e-02" itree="34">\n      <Node pos="s" depth="0" NCoef="0" IVar="8" Cut="-7.3303067684173584e-01" cType="0" res="-9.9000000000000000e+01" rms="0.0000000000000000e+00" purity="4.8977226018905640e-01" nType="0">\n        <Node pos="l" depth="1" NCoef="0" IVar="4" Cut="-5.2358567714691162e-01" cType="1" res="-9.9000000000000000e+01" rms="0.0000000000000000e+00" purity="4.9744936823844910e-01" nType="0">\n          <Node pos="l" depth="2" NCoef="0" IVar="4" Cut="-9.7703403234481812e-01" cType="0" res="-9.9000000000000000e+01" rms="0.0000000000000000e+00" purity="5.0503307580947876e-01" nType="0">\n            <Node pos="l" depth="3" NCoef="0" IVar="-1" Cut="0.0000000000000000e+00" cType="1" res="-9.9000000000000000e+01" rms="0.0000000000000000e+00" purity="5.1740038394927979e-01" nType="1"/>\n            <Node pos="r" depth="3" NCoef="0" IVar="-1" Cut="0.0000000000000000e+00" cType="1" res="-9.9000000000000000e+01" rms="0.0000000000000000e+00" purity="4.5599290728569031e-01" nType="-1"/>\n          </Node>\n          <Node pos="r" depth="2" NCoef="0" IVar="-1" Cut="-6.4785063266754150e-01" cType="1" res="-9.9000000000000000e+01" rms="0.0000000000000000e+00" purity="4.8464167118072510e-01" nType="-1"/>\n        </Node>\n        <Node pos="r" depth="1" NCoef="0" IVar="13" Cut="-9.0476191043853760e-01" cType="1" res="-9.9000000000000000e+01" rms="0.0000000000000000e+00" purity="4.7545742988586426e-01" nType="0">\n          <Node pos="l" depth="2" NCoef="0" IVar="1" Cut="-9.8818200826644897e-01" cType="1" res="-9.9000000000000000e+01" rms="0.0000000000000000e+00" purity="4.9623465538024902e-01" nType="0">\n            <Node pos="l" depth="3" NCoef="0" IVar="-1" Cut="0.0000000000000000e+00" cType="1" res="-9.9000000000000000e+01" rms="0.0000000000000000e+00" purity="5.1990920305252075e-01" nType="1"/>\n            <Node pos="r" depth="3" NCoef="0" IVar="-1" Cut="0.0000000000000000e+00" cType="1" res="-9.9000000000000000e+01" rms="0.0000000000000000e+00" purity="4.0910434722900391e-01" nType="-1"/>\n          </Node>\n          <Node pos="r" depth="2" NCoef="0" IVar="-1" Cut="-9.0863019227981567e-01" cType="1" res="-9.9000000000000000e+01" rms="0.0000000000000000e+00" purity="4.2581000924110413e-01" nType="-1"/>\n        </Node>\n      </Node>\n    </BinaryTree>\n    <BinaryTree type="DecisionTree" boostWeight="4.9575651335744431e-02" itree="35">\n      <Node pos="s" depth="0" NCoef="0" IVar="8" Cut="-7.3303067684173584e-01" cType="0" res="-9.9000000000000000e+01" rms="0.0000000000000000e+00" purity="4.8916688561439514e-01" nType="0">\n        <Node pos="l" depth="1" NCoef="0" IVar="4" Cut="-7.1403390169143677e-01" cType="0" res="-9.9000000000000000e+01" rms="0.0000000000000000e+00" purity="4.9739953875541687e-01" nType="0">\n          <Node pos="l" depth="2" NCoef="0" IVar="5" Cut="-5.6214642524719238e-01" cType="1" res="-9.9000000000000000e+01" rms="0.0000000000000000e+00" purity="5.0919449329376221e-01" nType="0">\n            <Node pos="l" depth="3" NCoef="0" IVar="-1" Cut="0.0000000000000000e+00" cType="1" res="-9.9000000000000000e+01" rms="0.0000000000000000e+00" purity="5.1557397842407227e-01" nType="1"/>\n            <Node pos="r" depth="3" NCoef="0" IVar="-1" Cut="0.0000000000000000e+00" cType="1" res="-9.9000000000000000e+01" rms="0.0000000000000000e+00" purity="4.9743443727493286e-01" nType="-1"/>\n          </Node>\n          <Node pos="r" depth="2" NCoef="0" IVar="5" Cut="-9.3756175041198730e-01" cType="1" res="-9.9000000000000000e+01" rms="0.0000000000000000e+00" purity="4.8596149682998657e-01" nType="0">\n            <Node pos="l" depth="3" NCoef="0" IVar="-1" Cut="0.0000000000000000e+00" cType="1" res="-9.9000000000000000e+01" rms="0.0000000000000000e+00" purity="5.1445937156677246e-01" nType="1"/>\n            <Node pos="r" depth="3" NCoef="0" IVar="-1" Cut="0.0000000000000000e+00" cType="1" res="-9.9000000000000000e+01" rms="0.0000000000000000e+00" purity="4.6947190165519714e-01" nType="-1"/>\n          </Node>\n        </Node>\n        <Node pos="r" depth="1" NCoef="0" IVar="17" Cut="7.5172096490859985e-01" cType="0" res="-9.9000000000000000e+01" rms="0.0000000000000000e+00" purity="4.7379225492477417e-01" nType="0">\n          <Node pos="l" depth="2" NCoef="0" IVar="18" Cut="8.6177933216094971e-01" cType="0" res="-9.9000000000000000e+01" rms="0.0000000000000000e+00" purity="4.9212554097175598e-01" nType="0">\n            <Node pos="l" depth="3" NCoef="0" IVar="-1" Cut="0.0000000000000000e+00" cType="1" res="-9.9000000000000000e+01" rms="0.0000000000000000e+00" purity="5.1204746961593628e-01" nType="1"/>\n            <Node pos="r" depth="3" NCoef="0" IVar="-1" Cut="0.0000000000000000e+00" cType="1" res="-9.9000000000000000e+01" rms="0.0000000000000000e+00" purity="4.4879975914955139e-01" nType="-1"/>\n          </Node>\n          <Node pos="r" depth="2" NCoef="0" IVar="-1" Cut="-8.0926340818405151e-01" cType="0" res="-9.9000000000000000e+01" rms="0.0000000000000000e+00" purity="4.3352836370468140e-01" nType="-1"/>\n        </Node>\n      </Node>\n    </BinaryTree>\n    <BinaryTree type="DecisionTree" boostWeight="3.7117522165646462e-02" itree="36">\n      <Node pos="s" depth="0" NCoef="0" IVar="8" Cut="-7.3303067684173584e-01" cType="0" res="-9.9000000000000000e+01" rms="0.0000000000000000e+00" purity="4.8932215571403503e-01" nType="0">\n        <Node pos="l" depth="1" NCoef="0" IVar="2" Cut="-1.3571377098560333e-01" cType="0" res="-9.9000000000000000e+01" rms="0.0000000000000000e+00" purity="4.9726673960685730e-01" nType="0">\n          <Node pos="l" depth="2" NCoef="0" IVar="-1" Cut="0.0000000000000000e+00" cType="1" res="-9.9000000000000000e+01" rms="0.0000000000000000e+00" purity="5.1476347446441650e-01" nType="1"/>\n          <Node pos="r" depth="2" NCoef="0" IVar="-1" Cut="-9.0476191043853760e-01" cType="0" res="-9.9000000000000000e+01" rms="0.0000000000000000e+00" purity="4.8961573839187622e-01" nType="-1"/>\n        </Node>\n        <Node pos="r" depth="1" NCoef="0" IVar="13" Cut="-9.0476191043853760e-01" cType="1" res="-9.9000000000000000e+01" rms="0.0000000000000000e+00" purity="4.7447097301483154e-01" nType="0">\n          <Node pos="l" depth="2" NCoef="0" IVar="1" Cut="-9.8818200826644897e-01" cType="1" res="-9.9000000000000000e+01" rms="0.0000000000000000e+00" purity="4.8784539103507996e-01" nType="0">\n            <Node pos="l" depth="3" NCoef="0" IVar="-1" Cut="0.0000000000000000e+00" cType="1" res="-9.9000000000000000e+01" rms="0.0000000000000000e+00" purity="5.0521862506866455e-01" nType="1"/>\n            <Node pos="r" depth="3" NCoef="0" IVar="-1" Cut="0.0000000000000000e+00" cType="1" res="-9.9000000000000000e+01" rms="0.0000000000000000e+00" purity="4.2360782623291016e-01" nType="-1"/>\n          </Node>\n          <Node pos="r" depth="2" NCoef="0" IVar="-1" Cut="-9.0863019227981567e-01" cType="1" res="-9.9000000000000000e+01" rms="0.0000000000000000e+00" purity="4.4243541359901428e-01" nType="-1"/>\n        </Node>\n      </Node>\n    </BinaryTree>\n    <BinaryTree type="DecisionTree" boostWeight="5.5945822753189253e-02" itree="37">\n      <Node pos="s" depth="0" NCoef="0" IVar="8" Cut="-7.3303067684173584e-01" cType="0" res="-9.9000000000000000e+01" rms="0.0000000000000000e+00" purity="4.9132522940635681e-01" nType="0">\n        <Node pos="l" depth="1" NCoef="0" IVar="4" Cut="-8.0925798416137695e-01" cType="1" res="-9.9000000000000000e+01" rms="0.0000000000000000e+00" purity="5.0089973211288452e-01" nType="0">\n          <Node pos="l" depth="2" NCoef="0" IVar="13" Cut="-9.0476191043853760e-01" cType="1" res="-9.9000000000000000e+01" rms="0.0000000000000000e+00" purity="5.1426380872726440e-01" nType="0">\n            <Node pos="l" depth="3" NCoef="0" IVar="-1" Cut="0.0000000000000000e+00" cType="1" res="-9.9000000000000000e+01" rms="0.0000000000000000e+00" purity="5.3333067893981934e-01" nType="1"/>\n            <Node pos="r" depth="3" NCoef="0" IVar="-1" Cut="0.0000000000000000e+00" cType="1" res="-9.9000000000000000e+01" rms="0.0000000000000000e+00" purity="4.6769654750823975e-01" nType="-1"/>\n          </Node>\n          <Node pos="r" depth="2" NCoef="0" IVar="4" Cut="-2.9232060909271240e-01" cType="0" res="-9.9000000000000000e+01" rms="0.0000000000000000e+00" purity="4.9129149317741394e-01" nType="0">\n            <Node pos="l" depth="3" NCoef="0" IVar="-1" Cut="0.0000000000000000e+00" cType="1" res="-9.9000000000000000e+01" rms="0.0000000000000000e+00" purity="5.1044505834579468e-01" nType="1"/>\n            <Node pos="r" depth="3" NCoef="0" IVar="-1" Cut="0.0000000000000000e+00" cType="1" res="-9.9000000000000000e+01" rms="0.0000000000000000e+00" purity="4.7451701760292053e-01" nType="-1"/>\n          </Node>\n        </Node>\n        <Node pos="r" depth="1" NCoef="0" IVar="17" Cut="7.5172096490859985e-01" cType="0" res="-9.9000000000000000e+01" rms="0.0000000000000000e+00" purity="4.7341400384902954e-01" nType="0">\n          <Node pos="l" depth="2" NCoef="0" IVar="14" Cut="7.6589411497116089e-01" cType="0" res="-9.9000000000000000e+01" rms="0.0000000000000000e+00" purity="4.8577469587326050e-01" nType="0">\n            <Node pos="l" depth="3" NCoef="0" IVar="-1" Cut="0.0000000000000000e+00" cType="1" res="-9.9000000000000000e+01" rms="0.0000000000000000e+00" purity="5.1485574245452881e-01" nType="1"/>\n            <Node pos="r" depth="3" NCoef="0" IVar="-1" Cut="0.0000000000000000e+00" cType="1" res="-9.9000000000000000e+01" rms="0.0000000000000000e+00" purity="4.6820297837257385e-01" nType="-1"/>\n          </Node>\n          <Node pos="r" depth="2" NCoef="0" IVar="-1" Cut="-8.0926340818405151e-01" cType="0" res="-9.9000000000000000e+01" rms="0.0000000000000000e+00" purity="4.4620212912559509e-01" nType="-1"/>\n        </Node>\n      </Node>\n    </BinaryTree>\n    <BinaryTree type="DecisionTree" boostWeight="5.7514984620642577e-02" itree="38">\n      <Node pos="s" depth="0" NCoef="0" IVar="21" Cut="-9.0476191043853760e-01" cType="1" res="-9.9000000000000000e+01" rms="0.0000000000000000e+00" purity="4.9241527915000916e-01" nType="0">\n        <Node pos="l" depth="1" NCoef="0" IVar="10" Cut="-9.0476191043853760e-01" cType="0" res="-9.9000000000000000e+01" rms="0.0000000000000000e+00" purity="4.9518445134162903e-01" nType="0">\n          <Node pos="l" depth="2" NCoef="0" IVar="14" Cut="7.3310589790344238e-01" cType="0" res="-9.9000000000000000e+01" rms="0.0000000000000000e+00" purity="5.0153166055679321e-01" nType="0">\n            <Node pos="l" depth="3" NCoef="0" IVar="-1" Cut="0.0000000000000000e+00" cType="1" res="-9.9000000000000000e+01" rms="0.0000000000000000e+00" purity="5.1964181661605835e-01" nType="1"/>\n            <Node pos="r" depth="3" NCoef="0" IVar="-1" Cut="0.0000000000000000e+00" cType="1" res="-9.9000000000000000e+01" rms="0.0000000000000000e+00" purity="4.4992849230766296e-01" nType="-1"/>\n          </Node>\n          <Node pos="r" depth="2" NCoef="0" IVar="-1" Cut="-9.0476191043853760e-01" cType="1" res="-9.9000000000000000e+01" rms="0.0000000000000000e+00" purity="4.7293698787689209e-01" nType="-1"/>\n        </Node>\n        <Node pos="r" depth="1" NCoef="0" IVar="-1" Cut="0.0000000000000000e+00" cType="1" res="-9.9000000000000000e+01" rms="0.0000000000000000e+00" purity="4.5293307304382324e-01" nType="-1"/>\n      </Node>\n    </BinaryTree>\n    <BinaryTree type="DecisionTree" boostWeight="5.3540403012649451e-02" itree="39">\n      <Node pos="s" depth="0" NCoef="0" IVar="14" Cut="6.1904764175415039e-01" cType="1" res="-9.9000000000000000e+01" rms="0.0000000000000000e+00" purity="4.9130365252494812e-01" nType="0">\n        <Node pos="l" depth="1" NCoef="0" IVar="-1" Cut="0.0000000000000000e+00" cType="1" res="-9.9000000000000000e+01" rms="0.0000000000000000e+00" purity="5.3858244419097900e-01" nType="1"/>\n        <Node pos="r" depth="1" NCoef="0" IVar="18" Cut="8.9512658119201660e-01" cType="1" res="-9.9000000000000000e+01" rms="0.0000000000000000e+00" purity="4.8705974221229553e-01" nType="0">\n          <Node pos="l" depth="2" NCoef="0" IVar="18" Cut="8.6489558219909668e-01" cType="0" res="-9.9000000000000000e+01" rms="0.0000000000000000e+00" purity="4.9370184540748596e-01" nType="0">\n            <Node pos="l" depth="3" NCoef="0" IVar="-1" Cut="0.0000000000000000e+00" cType="1" res="-9.9000000000000000e+01" rms="0.0000000000000000e+00" purity="5.2594393491744995e-01" nType="1"/>\n            <Node pos="r" depth="3" NCoef="0" IVar="-1" Cut="0.0000000000000000e+00" cType="1" res="-9.9000000000000000e+01" rms="0.0000000000000000e+00" purity="4.8226135969161987e-01" nType="-1"/>\n          </Node>\n          <Node pos="r" depth="2" NCoef="0" IVar="-1" Cut="0.0000000000000000e+00" cType="1" res="-9.9000000000000000e+01" rms="0.0000000000000000e+00" purity="3.8721266388893127e-01" nType="-1"/>\n        </Node>\n      </Node>\n    </BinaryTree>\n    <BinaryTree type="DecisionTree" boostWeight="4.1020695525863092e-02" itree="40">\n      <Node pos="s" depth="0" NCoef="0" IVar="15" Cut="7.1428561210632324e-01" cType="1" res="-9.9000000000000000e+01" rms="0.0000000000000000e+00" purity="4.9644505977630615e-01" nType="0">\n        <Node pos="l" depth="1" NCoef="0" IVar="-1" Cut="0.0000000000000000e+00" cType="1" res="-9.9000000000000000e+01" rms="0.0000000000000000e+00" purity="5.2548474073410034e-01" nType="1"/>\n        <Node pos="r" depth="1" NCoef="0" IVar="18" Cut="8.9512658119201660e-01" cType="1" res="-9.9000000000000000e+01" rms="0.0000000000000000e+00" purity="4.9332413077354431e-01" nType="0">\n          <Node pos="l" depth="2" NCoef="0" IVar="10" Cut="-9.0476191043853760e-01" cType="0" res="-9.9000000000000000e+01" rms="0.0000000000000000e+00" purity="4.9960958957672119e-01" nType="0">\n            <Node pos="l" depth="3" NCoef="0" IVar="-1" Cut="0.0000000000000000e+00" cType="1" res="-9.9000000000000000e+01" rms="0.0000000000000000e+00" purity="5.0852072238922119e-01" nType="1"/>\n            <Node pos="r" depth="3" NCoef="0" IVar="-1" Cut="0.0000000000000000e+00" cType="1" res="-9.9000000000000000e+01" rms="0.0000000000000000e+00" purity="4.5541253685951233e-01" nType="-1"/>\n          </Node>\n          <Node pos="r" depth="2" NCoef="0" IVar="-1" Cut="0.0000000000000000e+00" cType="1" res="-9.9000000000000000e+01" rms="0.0000000000000000e+00" purity="3.9999079704284668e-01" nType="-1"/>\n        </Node>\n      </Node>\n    </BinaryTree>\n    <BinaryTree type="DecisionTree" boostWeight="2.7499971498386771e-02" itree="41">\n      <Node pos="s" depth="0" NCoef="0" IVar="7" Cut="-8.1954884529113770e-01" cType="1" res="-9.9000000000000000e+01" rms="0.0000000000000000e+00" purity="4.9026253819465637e-01" nType="0">\n        <Node pos="l" depth="1" NCoef="0" IVar="-1" Cut="0.0000000000000000e+00" cType="1" res="-9.9000000000000000e+01" rms="0.0000000000000000e+00" purity="5.1526254415512085e-01" nType="1"/>\n        <Node pos="r" depth="1" NCoef="0" IVar="-1" Cut="-5.2380955219268799e-01" cType="0" res="-9.9000000000000000e+01" rms="0.0000000000000000e+00" purity="4.8648267984390259e-01" nType="-1"/>\n      </Node>\n    </BinaryTree>\n    <BinaryTree type="DecisionTree" boostWeight="7.1409869066477255e-02" itree="42">\n      <Node pos="s" depth="0" NCoef="0" IVar="4" Cut="-8.0952382087707520e-01" cType="1" res="-9.9000000000000000e+01" rms="0.0000000000000000e+00" purity="4.9532952904701233e-01" nType="0">\n        <Node pos="l" depth="1" NCoef="0" IVar="4" Cut="-8.7301987409591675e-01" cType="0" res="-9.9000000000000000e+01" rms="0.0000000000000000e+00" purity="5.0584721565246582e-01" nType="0">\n          <Node pos="l" depth="2" NCoef="0" IVar="-1" Cut="0.0000000000000000e+00" cType="1" res="-9.9000000000000000e+01" rms="0.0000000000000000e+00" purity="5.8530694246292114e-01" nType="1"/>\n          <Node pos="r" depth="2" NCoef="0" IVar="4" Cut="-9.8790848255157471e-01" cType="0" res="-9.9000000000000000e+01" rms="0.0000000000000000e+00" purity="4.8927643895149231e-01" nType="0">\n            <Node pos="l" depth="3" NCoef="0" IVar="-1" Cut="0.0000000000000000e+00" cType="1" res="-9.9000000000000000e+01" rms="0.0000000000000000e+00" purity="5.1270258426666260e-01" nType="1"/>\n            <Node pos="r" depth="3" NCoef="0" IVar="-1" Cut="0.0000000000000000e+00" cType="1" res="-9.9000000000000000e+01" rms="0.0000000000000000e+00" purity="3.8680407404899597e-01" nType="-1"/>\n          </Node>\n        </Node>\n        <Node pos="r" depth="1" NCoef="0" IVar="13" Cut="-9.0476191043853760e-01" cType="0" res="-9.9000000000000000e+01" rms="0.0000000000000000e+00" purity="4.8735100030899048e-01" nType="0">\n          <Node pos="l" depth="2" NCoef="0" IVar="-1" Cut="0.0000000000000000e+00" cType="1" res="-9.9000000000000000e+01" rms="0.0000000000000000e+00" purity="5.3018808364868164e-01" nType="1"/>\n          <Node pos="r" depth="2" NCoef="0" IVar="1" Cut="-9.9412202835083008e-01" cType="1" res="-9.9000000000000000e+01" rms="0.0000000000000000e+00" purity="4.7429487109184265e-01" nType="0">\n            <Node pos="l" depth="3" NCoef="0" IVar="-1" Cut="0.0000000000000000e+00" cType="1" res="-9.9000000000000000e+01" rms="0.0000000000000000e+00" purity="5.0751936435699463e-01" nType="1"/>\n            <Node pos="r" depth="3" NCoef="0" IVar="-1" Cut="0.0000000000000000e+00" cType="1" res="-9.9000000000000000e+01" rms="0.0000000000000000e+00" purity="4.4834533333778381e-01" nType="-1"/>\n          </Node>\n        </Node>\n      </Node>\n    </BinaryTree>\n    <BinaryTree type="DecisionTree" boostWeight="5.3665340979622632e-02" itree="43">\n      <Node pos="s" depth="0" NCoef="0" IVar="4" Cut="-7.1428573131561279e-01" cType="0" res="-9.9000000000000000e+01" rms="0.0000000000000000e+00" purity="4.8855894804000854e-01" nType="0">\n        <Node pos="l" depth="1" NCoef="0" IVar="4" Cut="-4.6936783194541931e-01" cType="1" res="-9.9000000000000000e+01" rms="0.0000000000000000e+00" purity="4.9676483869552612e-01" nType="0">\n          <Node pos="l" depth="2" NCoef="0" IVar="-1" Cut="0.0000000000000000e+00" cType="1" res="-9.9000000000000000e+01" rms="0.0000000000000000e+00" purity="5.2075397968292236e-01" nType="1"/>\n          <Node pos="r" depth="2" NCoef="0" IVar="6" Cut="-8.8199448585510254e-01" cType="0" res="-9.9000000000000000e+01" rms="0.0000000000000000e+00" purity="4.8665225505828857e-01" nType="0">\n            <Node pos="l" depth="3" NCoef="0" IVar="-1" Cut="0.0000000000000000e+00" cType="1" res="-9.9000000000000000e+01" rms="0.0000000000000000e+00" purity="5.0619292259216309e-01" nType="1"/>\n            <Node pos="r" depth="3" NCoef="0" IVar="-1" Cut="0.0000000000000000e+00" cType="1" res="-9.9000000000000000e+01" rms="0.0000000000000000e+00" purity="4.7323560714721680e-01" nType="-1"/>\n          </Node>\n        </Node>\n        <Node pos="r" depth="1" NCoef="0" IVar="4" Cut="-9.8639589548110962e-01" cType="0" res="-9.9000000000000000e+01" rms="0.0000000000000000e+00" purity="4.8089790344238281e-01" nType="0">\n          <Node pos="l" depth="2" NCoef="0" IVar="4" Cut="-9.6048223972320557e-01" cType="1" res="-9.9000000000000000e+01" rms="0.0000000000000000e+00" purity="4.9408161640167236e-01" nType="0">\n            <Node pos="l" depth="3" NCoef="0" IVar="-1" Cut="0.0000000000000000e+00" cType="1" res="-9.9000000000000000e+01" rms="0.0000000000000000e+00" purity="5.3344398736953735e-01" nType="1"/>\n            <Node pos="r" depth="3" NCoef="0" IVar="-1" Cut="0.0000000000000000e+00" cType="1" res="-9.9000000000000000e+01" rms="0.0000000000000000e+00" purity="4.8007458448410034e-01" nType="-1"/>\n          </Node>\n          <Node pos="r" depth="2" NCoef="0" IVar="-1" Cut="0.0000000000000000e+00" cType="1" res="-9.9000000000000000e+01" rms="0.0000000000000000e+00" purity="4.0662989020347595e-01" nType="-1"/>\n        </Node>\n      </Node>\n    </BinaryTree>\n    <BinaryTree type="DecisionTree" boostWeight="5.4355804446306832e-02" itree="44">\n      <Node pos="s" depth="0" NCoef="0" IVar="4" Cut="-8.0952382087707520e-01" cType="1" res="-9.9000000000000000e+01" rms="0.0000000000000000e+00" purity="4.9131709337234497e-01" nType="0">\n        <Node pos="l" depth="1" NCoef="0" IVar="4" Cut="-8.7301987409591675e-01" cType="0" res="-9.9000000000000000e+01" rms="0.0000000000000000e+00" purity="4.9971976876258850e-01" nType="0">\n          <Node pos="l" depth="2" NCoef="0" IVar="-1" Cut="0.0000000000000000e+00" cType="1" res="-9.9000000000000000e+01" rms="0.0000000000000000e+00" purity="5.8099353313446045e-01" nType="1"/>\n          <Node pos="r" depth="2" NCoef="0" IVar="1" Cut="-9.7563982009887695e-01" cType="1" res="-9.9000000000000000e+01" rms="0.0000000000000000e+00" purity="4.8273491859436035e-01" nType="0">\n            <Node pos="l" depth="3" NCoef="0" IVar="-1" Cut="0.0000000000000000e+00" cType="1" res="-9.9000000000000000e+01" rms="0.0000000000000000e+00" purity="5.0608187913894653e-01" nType="1"/>\n            <Node pos="r" depth="3" NCoef="0" IVar="-1" Cut="0.0000000000000000e+00" cType="1" res="-9.9000000000000000e+01" rms="0.0000000000000000e+00" purity="3.9244201779365540e-01" nType="-1"/>\n          </Node>\n        </Node>\n        <Node pos="r" depth="1" NCoef="0" IVar="4" Cut="-6.3718295097351074e-01" cType="0" res="-9.9000000000000000e+01" rms="0.0000000000000000e+00" purity="4.8494553565979004e-01" nType="0">\n          <Node pos="l" depth="2" NCoef="0" IVar="5" Cut="-8.0657976865768433e-01" cType="1" res="-9.9000000000000000e+01" rms="0.0000000000000000e+00" purity="4.9541318416595459e-01" nType="0">\n            <Node pos="l" depth="3" NCoef="0" IVar="-1" Cut="0.0000000000000000e+00" cType="1" res="-9.9000000000000000e+01" rms="0.0000000000000000e+00" purity="5.1101899147033691e-01" nType="1"/>\n            <Node pos="r" depth="3" NCoef="0" IVar="-1" Cut="0.0000000000000000e+00" cType="1" res="-9.9000000000000000e+01" rms="0.0000000000000000e+00" purity="4.8834007978439331e-01" nType="-1"/>\n          </Node>\n          <Node pos="r" depth="2" NCoef="0" IVar="-1" Cut="0.0000000000000000e+00" cType="1" res="-9.9000000000000000e+01" rms="0.0000000000000000e+00" purity="4.5296818017959595e-01" nType="-1"/>\n        </Node>\n      </Node>\n    </BinaryTree>\n    <BinaryTree type="DecisionTree" boostWeight="7.8964648840463225e-02" itree="45">\n      <Node pos="s" depth="0" NCoef="0" IVar="4" Cut="-9.0476191043853760e-01" cType="0" res="-9.9000000000000000e+01" rms="0.0000000000000000e+00" purity="4.9153256416320801e-01" nType="0">\n        <Node pos="l" depth="1" NCoef="0" IVar="13" Cut="-9.0476191043853760e-01" cType="0" res="-9.9000000000000000e+01" rms="0.0000000000000000e+00" purity="4.9942868947982788e-01" nType="0">\n          <Node pos="l" depth="2" NCoef="0" IVar="-1" Cut="0.0000000000000000e+00" cType="1" res="-9.9000000000000000e+01" rms="0.0000000000000000e+00" purity="5.3038144111633301e-01" nType="1"/>\n          <Node pos="r" depth="2" NCoef="0" IVar="1" Cut="-9.8824405670166016e-01" cType="1" res="-9.9000000000000000e+01" rms="0.0000000000000000e+00" purity="4.8951396346092224e-01" nType="0">\n            <Node pos="l" depth="3" NCoef="0" IVar="-1" Cut="0.0000000000000000e+00" cType="1" res="-9.9000000000000000e+01" rms="0.0000000000000000e+00" purity="5.0909590721130371e-01" nType="1"/>\n            <Node pos="r" depth="3" NCoef="0" IVar="-1" Cut="0.0000000000000000e+00" cType="1" res="-9.9000000000000000e+01" rms="0.0000000000000000e+00" purity="4.2957156896591187e-01" nType="-1"/>\n          </Node>\n        </Node>\n        <Node pos="r" depth="1" NCoef="0" IVar="1" Cut="-9.7563982009887695e-01" cType="1" res="-9.9000000000000000e+01" rms="0.0000000000000000e+00" purity="4.7396174073219299e-01" nType="0">\n          <Node pos="l" depth="2" NCoef="0" IVar="1" Cut="-9.8811733722686768e-01" cType="1" res="-9.9000000000000000e+01" rms="0.0000000000000000e+00" purity="4.9897658824920654e-01" nType="0">\n            <Node pos="l" depth="3" NCoef="0" IVar="-1" Cut="0.0000000000000000e+00" cType="1" res="-9.9000000000000000e+01" rms="0.0000000000000000e+00" purity="5.4106426239013672e-01" nType="1"/>\n            <Node pos="r" depth="3" NCoef="0" IVar="-1" Cut="0.0000000000000000e+00" cType="1" res="-9.9000000000000000e+01" rms="0.0000000000000000e+00" purity="4.1337493062019348e-01" nType="-1"/>\n          </Node>\n          <Node pos="r" depth="2" NCoef="0" IVar="-1" Cut="0.0000000000000000e+00" cType="1" res="-9.9000000000000000e+01" rms="0.0000000000000000e+00" purity="3.7606564164161682e-01" nType="-1"/>\n        </Node>\n      </Node>\n    </BinaryTree>\n    <BinaryTree type="DecisionTree" boostWeight="4.2480376855752129e-02" itree="46">\n      <Node pos="s" depth="0" NCoef="0" IVar="2" Cut="-5.8130228519439697e-01" cType="0" res="-9.9000000000000000e+01" rms="0.0000000000000000e+00" purity="4.8252728581428528e-01" nType="0">\n        <Node pos="l" depth="1" NCoef="0" IVar="8" Cut="-7.3085731267929077e-01" cType="0" res="-9.9000000000000000e+01" rms="0.0000000000000000e+00" purity="4.8740705847740173e-01" nType="0">\n          <Node pos="l" depth="2" NCoef="0" IVar="17" Cut="7.1428573131561279e-01" cType="1" res="-9.9000000000000000e+01" rms="0.0000000000000000e+00" purity="4.9353370070457458e-01" nType="0">\n            <Node pos="l" depth="3" NCoef="0" IVar="-1" Cut="0.0000000000000000e+00" cType="1" res="-9.9000000000000000e+01" rms="0.0000000000000000e+00" purity="5.2323174476623535e-01" nType="1"/>\n            <Node pos="r" depth="3" NCoef="0" IVar="-1" Cut="0.0000000000000000e+00" cType="1" res="-9.9000000000000000e+01" rms="0.0000000000000000e+00" purity="4.8876598477363586e-01" nType="-1"/>\n          </Node>\n          <Node pos="r" depth="2" NCoef="0" IVar="-1" Cut="-6.5914785861968994e-01" cType="1" res="-9.9000000000000000e+01" rms="0.0000000000000000e+00" purity="4.7264483571052551e-01" nType="-1"/>\n        </Node>\n        <Node pos="r" depth="1" NCoef="0" IVar="-1" Cut="-6.1673349142074585e-01" cType="0" res="-9.9000000000000000e+01" rms="0.0000000000000000e+00" purity="4.5926254987716675e-01" nType="-1"/>\n      </Node>\n    </BinaryTree>\n    <BinaryTree type="DecisionTree" boostWeight="4.5514216236091982e-02" itree="47">\n      <Node pos="s" depth="0" NCoef="0" IVar="2" Cut="-5.8130228519439697e-01" cType="0" res="-9.9000000000000000e+01" rms="0.0000000000000000e+00" purity="4.9142187833786011e-01" nType="0">\n        <Node pos="l" depth="1" NCoef="0" IVar="10" Cut="-9.0476191043853760e-01" cType="0" res="-9.9000000000000000e+01" rms="0.0000000000000000e+00" purity="4.9594649672508240e-01" nType="0">\n          <Node pos="l" depth="2" NCoef="0" IVar="7" Cut="-7.2932332754135132e-01" cType="1" res="-9.9000000000000000e+01" rms="0.0000000000000000e+00" purity="5.0122380256652832e-01" nType="0">\n            <Node pos="l" depth="3" NCoef="0" IVar="-1" Cut="0.0000000000000000e+00" cType="1" res="-9.9000000000000000e+01" rms="0.0000000000000000e+00" purity="5.5079525709152222e-01" nType="1"/>\n            <Node pos="r" depth="3" NCoef="0" IVar="-1" Cut="0.0000000000000000e+00" cType="1" res="-9.9000000000000000e+01" rms="0.0000000000000000e+00" purity="4.9165979027748108e-01" nType="-1"/>\n          </Node>\n          <Node pos="r" depth="2" NCoef="0" IVar="9" Cut="-4.7252744436264038e-01" cType="1" res="-9.9000000000000000e+01" rms="0.0000000000000000e+00" purity="4.7733384370803833e-01" nType="0">\n            <Node pos="l" depth="3" NCoef="0" IVar="-1" Cut="0.0000000000000000e+00" cType="1" res="-9.9000000000000000e+01" rms="0.0000000000000000e+00" purity="5.2217978239059448e-01" nType="1"/>\n            <Node pos="r" depth="3" NCoef="0" IVar="-1" Cut="0.0000000000000000e+00" cType="1" res="-9.9000000000000000e+01" rms="0.0000000000000000e+00" purity="4.5632284879684448e-01" nType="-1"/>\n          </Node>\n        </Node>\n        <Node pos="r" depth="1" NCoef="0" IVar="2" Cut="-6.1673349142074585e-01" cType="0" res="-9.9000000000000000e+01" rms="0.0000000000000000e+00" purity="4.6982887387275696e-01" nType="0">\n          <Node pos="l" depth="2" NCoef="0" IVar="-1" Cut="0.0000000000000000e+00" cType="1" res="-9.9000000000000000e+01" rms="0.0000000000000000e+00" purity="5.0960111618041992e-01" nType="1"/>\n          <Node pos="r" depth="2" NCoef="0" IVar="-1" Cut="1.3832199573516846e-01" cType="1" res="-9.9000000000000000e+01" rms="0.0000000000000000e+00" purity="4.5284688472747803e-01" nType="-1"/>\n        </Node>\n      </Node>\n    </BinaryTree>\n    <BinaryTree type="DecisionTree" boostWeight="4.2045450161842017e-02" itree="48">\n      <Node pos="s" depth="0" NCoef="0" IVar="2" Cut="-5.8130228519439697e-01" cType="0" res="-9.9000000000000000e+01" rms="0.0000000000000000e+00" purity="4.9792081117630005e-01" nType="0">\n        <Node pos="l" depth="1" NCoef="0" IVar="10" Cut="-9.0476191043853760e-01" cType="0" res="-9.9000000000000000e+01" rms="0.0000000000000000e+00" purity="5.0285512208938599e-01" nType="0">\n          <Node pos="l" depth="2" NCoef="0" IVar="17" Cut="7.9927563667297363e-01" cType="1" res="-9.9000000000000000e+01" rms="0.0000000000000000e+00" purity="5.0892668962478638e-01" nType="0">\n            <Node pos="l" depth="3" NCoef="0" IVar="-1" Cut="0.0000000000000000e+00" cType="1" res="-9.9000000000000000e+01" rms="0.0000000000000000e+00" purity="5.1384717226028442e-01" nType="1"/>\n            <Node pos="r" depth="3" NCoef="0" IVar="-1" Cut="0.0000000000000000e+00" cType="1" res="-9.9000000000000000e+01" rms="0.0000000000000000e+00" purity="4.5445337891578674e-01" nType="-1"/>\n          </Node>\n          <Node pos="r" depth="2" NCoef="0" IVar="2" Cut="-3.5546943545341492e-01" cType="0" res="-9.9000000000000000e+01" rms="0.0000000000000000e+00" purity="4.8142009973526001e-01" nType="0">\n            <Node pos="l" depth="3" NCoef="0" IVar="-1" Cut="0.0000000000000000e+00" cType="1" res="-9.9000000000000000e+01" rms="0.0000000000000000e+00" purity="5.0393867492675781e-01" nType="1"/>\n            <Node pos="r" depth="3" NCoef="0" IVar="-1" Cut="0.0000000000000000e+00" cType="1" res="-9.9000000000000000e+01" rms="0.0000000000000000e+00" purity="4.4595777988433838e-01" nType="-1"/>\n          </Node>\n        </Node>\n        <Node pos="r" depth="1" NCoef="0" IVar="3" Cut="1.6780050098896027e-01" cType="1" res="-9.9000000000000000e+01" rms="0.0000000000000000e+00" purity="4.7435534000396729e-01" nType="0">\n          <Node pos="l" depth="2" NCoef="0" IVar="9" Cut="9.5238141715526581e-02" cType="0" res="-9.9000000000000000e+01" rms="0.0000000000000000e+00" purity="4.9303963780403137e-01" nType="0">\n            <Node pos="l" depth="3" NCoef="0" IVar="-1" Cut="0.0000000000000000e+00" cType="1" res="-9.9000000000000000e+01" rms="0.0000000000000000e+00" purity="5.1592320203781128e-01" nType="1"/>\n            <Node pos="r" depth="3" NCoef="0" IVar="-1" Cut="0.0000000000000000e+00" cType="1" res="-9.9000000000000000e+01" rms="0.0000000000000000e+00" purity="4.7275927662849426e-01" nType="-1"/>\n          </Node>\n          <Node pos="r" depth="2" NCoef="0" IVar="-1" Cut="0.0000000000000000e+00" cType="1" res="-9.9000000000000000e+01" rms="0.0000000000000000e+00" purity="4.3957096338272095e-01" nType="-1"/>\n        </Node>\n      </Node>\n    </BinaryTree>\n    <BinaryTree type="DecisionTree" boostWeight="5.8010838027294905e-02" itree="49">\n      <Node pos="s" depth="0" NCoef="0" IVar="30" Cut="-9.0476191043853760e-01" cType="0" res="-9.9000000000000000e+01" rms="0.0000000000000000e+00" purity="4.9254330992698669e-01" nType="0">\n        <Node pos="l" depth="1" NCoef="0" IVar="23" Cut="-9.0476191043853760e-01" cType="0" res="-9.9000000000000000e+01" rms="0.0000000000000000e+00" purity="4.9801492691040039e-01" nType="0">\n          <Node pos="l" depth="2" NCoef="0" IVar="-1" Cut="-7.2932332754135132e-01" cType="1" res="-9.9000000000000000e+01" rms="0.0000000000000000e+00" purity="5.0927799940109253e-01" nType="1"/>\n          <Node pos="r" depth="2" NCoef="0" IVar="1" Cut="-9.9197804927825928e-01" cType="1" res="-9.9000000000000000e+01" rms="0.0000000000000000e+00" purity="4.6289533376693726e-01" nType="0">\n            <Node pos="l" depth="3" NCoef="0" IVar="-1" Cut="0.0000000000000000e+00" cType="1" res="-9.9000000000000000e+01" rms="0.0000000000000000e+00" purity="5.1059108972549438e-01" nType="1"/>\n            <Node pos="r" depth="3" NCoef="0" IVar="-1" Cut="0.0000000000000000e+00" cType="1" res="-9.9000000000000000e+01" rms="0.0000000000000000e+00" purity="3.8031440973281860e-01" nType="-1"/>\n          </Node>\n        </Node>\n        <Node pos="r" depth="1" NCoef="0" IVar="27" Cut="-9.0478754043579102e-01" cType="1" res="-9.9000000000000000e+01" rms="0.0000000000000000e+00" purity="4.7697141766548157e-01" nType="0">\n          <Node pos="l" depth="2" NCoef="0" IVar="-1" Cut="0.0000000000000000e+00" cType="1" res="-9.9000000000000000e+01" rms="0.0000000000000000e+00" purity="5.5906772613525391e-01" nType="1"/>\n          <Node pos="r" depth="2" NCoef="0" IVar="9" Cut="-3.8461533188819885e-01" cType="1" res="-9.9000000000000000e+01" rms="0.0000000000000000e+00" purity="4.5659038424491882e-01" nType="0">\n            <Node pos="l" depth="3" NCoef="0" IVar="-1" Cut="0.0000000000000000e+00" cType="1" res="-9.9000000000000000e+01" rms="0.0000000000000000e+00" purity="5.1932626962661743e-01" nType="1"/>\n            <Node pos="r" depth="3" NCoef="0" IVar="-1" Cut="0.0000000000000000e+00" cType="1" res="-9.9000000000000000e+01" rms="0.0000000000000000e+00" purity="4.2670935392379761e-01" nType="-1"/>\n          </Node>\n        </Node>\n      </Node>\n    </BinaryTree>\n  </Weights>\n</MethodSetup>\n'
p82
sb.